(dp0
Vrating
p1
V5
p2
sVtext
p3
VMiller Apartments are absolutely brilliant. We only had 1 night there but it was very clean, comfortable and centrally located. You couldn&acute;t ask for a better place to stay if travelling to Adelaide. We had a 2 bed/ 2 bath apartment suitable for 2 couples. A very short walk, maybe 50 metres to Rundle Mall. Would definitely stay again and recommend to anyone. Staff also very friendly and welcoming.
p4
sS'title_length'
p5
I405
sS'bigram_counts'
p6
ccollections
Counter
p7
((dp8
(Vacute
p9
V;
p10
tp11
I1
s(Vnight
p12
Vclean
p13
tp14
I1
s(Vask
p15
Vbetter
p16
tp17
I1
s(Vabsolutely
p18
Vbrilliant.
p19
tp20
I1
s(Vplace
p21
Vstay
p22
tp23
I1
s(Vfriendly
p24
Vwelcoming
p25
tp26
I1
s(Vcouples.
p27
Vshort
p28
tp29
I1
s(V2
p30
Vbath
p31
tp32
I1
s(g31
Vapartment
p33
tp34
I1
s(Vrundle
p35
Vmall.
p36
tp37
I1
s(V&
p38
g9
tp39
I1
s(Vstaff
p40
Valso
p41
tp42
I1
s(Vdefinitely
p43
Vstay
p44
tp45
I1
s(g19
V1
p46
tp47
I1
s(g30
g27
tp48
I1
s(Vrecommend
p49
Vanyone.
p50
tp51
I1
s(V,
p52
Vmaybe
p53
tp54
I1
s(g36
Vwould
p55
tp56
I1
s(g33
Vsuitable
p57
tp58
I1
s(g22
Vtravelling
p59
tp60
I1
s(Vmiller
p61
Vapartments
p62
tp63
I1
s(g28
Vwalk
p64
tp65
I1
s(g44
g49
tp66
I1
s(g13
g52
tp67
I1
s(Vmetres
p68
g35
tp69
I1
s(V50
p70
g68
tp71
I1
s(g41
g24
tp72
I1
s(g16
g21
tp73
I1
s(g57
g30
tp74
I1
s(g46
g12
tp75
I1
s(g59
Vadelaide.
p76
tp77
I1
s(g55
g43
tp78
I1
s(g53
g70
tp79
I1
s(Vlocated.
p80
g38
tp81
I1
s(g64
g52
tp82
I1
s(g76
g30
tp83
I1
s(Vcentrally
p84
g80
tp85
I1
s(g25
V.
p86
tp87
I1
s(g52
Vcomfortable
p88
tp89
I1
s(g88
g84
tp90
I1
s(Vbed/
p91
g30
tp92
I1
s(g10
g15
tp93
I1
s(g30
g91
tp94
I1
s(g50
g40
tp95
I1
s(g62
g18
tp96
I1
stp97
Rp98
sS'rev_unigrams'
p99
(lp100
g61
ag62
ag18
ag19
ag46
ag12
ag13
ag52
ag88
ag84
ag80
ag38
ag9
ag10
ag15
ag16
ag21
ag22
ag59
ag76
ag30
ag91
ag30
ag31
ag33
ag57
ag30
ag27
ag28
ag64
ag52
ag53
ag70
ag68
ag35
ag36
ag55
ag43
ag44
ag49
ag50
ag40
ag41
ag24
ag25
ag86
asVid
p101
V84
p102
sVtaObject
p103
VMiller Apartments Adelaide
p104
sVtitle
p105
VWeekend Holiday
p106
sS'unigram_counts'
p107
g7
((dp108
g31
I1
sg80
I1
sg62
I1
sg18
I1
sg61
I1
sg50
I1
sg68
I1
sg88
I1
sg40
I1
sg46
I1
sg76
I1
sg33
I1
sg55
I1
sg38
I1
sg91
I1
sg52
I2
sg86
I1
sg16
I1
sg41
I1
sg30
I3
sg49
I1
sg10
I1
sg24
I1
sg84
I1
sg19
I1
sg36
I1
sg22
I2
sg27
I1
sg15
I1
sg64
I1
sg59
I1
sg35
I1
sg9
I1
sg28
I1
sg25
I1
sg53
I1
sg70
I1
sg43
I1
sg21
I1
sg13
I1
sg12
I1
sg57
I1
stp109
Rp110
sS'rev_bigrams'
p111
(lp112
g63
ag96
ag20
ag47
ag75
ag14
ag67
ag89
ag90
ag85
ag81
ag39
ag11
ag93
ag17
ag73
ag23
ag60
ag77
ag83
ag94
ag92
ag32
ag34
ag58
ag74
ag48
ag29
ag65
ag82
ag54
ag79
ag71
ag69
ag37
ag56
ag78
ag45
ag66
ag51
ag95
ag42
ag72
ag26
ag87
asS'pos_count'
p113
ccollections
defaultdict
p114
(c__builtin__
int
p115
tp116
Rp117
V:
p118
I2
sVNN
p119
I215
sVFW
p120
I17
sVCC
p121
I1
sg52
I51
sVSYM
p122
I27
sVPOS
p123
I29
sV''
p124
I71
sVCD
p125
I6
sVLS
p126
I8
sVDT
p127
I26
sg86
I7
sVNNS
p128
I1
ssS'rev_length'
p129
I405
sVusername
p130
V124_10
p131
sS'tagged_text'
p132
(lp133
(V[
p134
g120
tp135
a(Vu
p136
VFW
p137
tp138
a(V'
p139
g123
tp140
a(VM
p141
g119
tp142
a(Vi
p143
VFW
p144
tp145
a(Vl
p146
VNN
p147
tp148
a(g146
VNN
p149
tp150
a(Ve
p151
g122
tp152
a(Vr
p153
VNN
p154
tp155
a(g139
g124
tp156
a(g52
g52
tp157
a(g136
VNN
p158
tp159
a(g139
V''
p160
tp161
a(VA
p162
g127
tp163
a(Vp
p164
VNN
p165
tp166
a(Va
p167
VDT
p168
tp169
a(g153
VNN
p170
tp171
a(Vt
p172
VNN
p173
tp174
a(Vm
p175
VNN
p176
tp177
a(g151
VSYM
p178
tp179
a(Vn
p180
VNN
p181
tp182
a(g172
VNN
p183
tp184
a(Vs
p185
VNN
p186
tp187
a(g139
V''
p188
tp189
a(g52
g52
tp190
a(g136
VNN
p191
tp192
a(g139
V''
p193
tp194
a(g167
VDT
p195
tp196
a(Vb
p197
VNN
p198
tp199
a(g185
VNN
p200
tp201
a(Vo
p202
VNN
p203
tp204
a(g146
VNN
p205
tp206
a(g136
VNN
p207
tp208
a(g172
VNN
p209
tp210
a(g151
VSYM
p211
tp212
a(g146
VNN
p213
tp214
a(Vy
p215
VNN
p216
tp217
a(g139
V''
p218
tp219
a(g52
g52
tp220
a(g136
VNN
p221
tp222
a(g139
VPOS
p223
tp224
a(g197
VNN
p225
tp226
a(g153
VNN
p227
tp228
a(g143
VFW
p229
tp230
a(g146
VNN
p231
tp232
a(g146
VNN
p233
tp234
a(g143
g126
tp235
a(g167
VDT
p236
tp237
a(g180
VNN
p238
tp239
a(g172
VNN
p240
tp241
a(g86
g86
tp242
a(g139
V''
p243
tp244
a(g52
g52
tp245
a(g136
VNN
p246
tp247
a(g139
VPOS
p248
tp249
a(VW
p250
VNN
p251
tp252
a(g151
VSYM
p253
tp254
a(g139
V''
p255
tp256
a(g52
g52
tp257
a(g136
VNN
p258
tp259
a(g139
V''
p260
tp261
a(g46
g125
tp262
a(g139
V''
p263
tp264
a(g52
g52
tp265
a(g136
VNN
p266
tp267
a(g139
VPOS
p268
tp269
a(g180
VNN
p270
tp271
a(g143
VFW
p272
tp273
a(Vg
p274
VNN
p275
tp276
a(Vh
p277
VNN
p278
tp279
a(g172
VNN
p280
tp281
a(g139
V''
p282
tp283
a(g52
g52
tp284
a(g136
VNN
p285
tp286
a(g139
VPOS
p287
tp288
a(Vc
p289
VNN
p290
tp291
a(g146
VNN
p292
tp293
a(g151
VSYM
p294
tp295
a(g167
VDT
p296
tp297
a(g180
VNN
p298
tp299
a(g139
V''
p300
tp301
a(g52
g52
tp302
a(g136
VNN
p303
tp304
a(g139
V''
p305
tp306
a(g52
g52
tp307
a(g139
V''
p308
tp309
a(g52
g52
tp310
a(g136
VNN
p311
tp312
a(g139
VPOS
p313
tp314
a(g289
VNN
p315
tp316
a(g202
VNN
p317
tp318
a(g175
VNN
p319
tp320
a(Vf
p321
VFW
p322
tp323
a(g202
VNN
p324
tp325
a(g153
VNN
p326
tp327
a(g172
VNN
p328
tp329
a(g167
VDT
p330
tp331
a(g197
VNN
p332
tp333
a(g146
VNN
p334
tp335
a(g151
VSYM
p336
tp337
a(g139
V''
p338
tp339
a(g52
g52
tp340
a(g136
VNN
p341
tp342
a(g139
VPOS
p343
tp344
a(g289
VNN
p345
tp346
a(g151
VSYM
p347
tp348
a(g180
VNN
p349
tp350
a(g172
VNN
p351
tp352
a(g153
VNN
p353
tp354
a(g167
VDT
p355
tp356
a(g146
VNN
p357
tp358
a(g146
VNN
p359
tp360
a(g215
VNN
p361
tp362
a(g139
V''
p363
tp364
a(g52
g52
tp365
a(g136
VNN
p366
tp367
a(g139
VPOS
p368
tp369
a(g146
VNN
p370
tp371
a(g202
VNN
p372
tp373
a(g289
VNN
p374
tp375
a(g167
VDT
p376
tp377
a(g172
VNN
p378
tp379
a(g151
VSYM
p380
tp381
a(Vd
p382
VNN
p383
tp384
a(g86
g86
tp385
a(g139
V''
p386
tp387
a(g52
g52
tp388
a(g136
VNN
p389
tp390
a(g139
VPOS
p391
tp392
a(VY
p393
VNN
p394
tp395
a(g202
VNN
p396
tp397
a(g136
VNN
p398
tp399
a(g139
V''
p400
tp401
a(g52
g52
tp402
a(g136
VNN
p403
tp404
a(g139
V''
p405
tp406
a(g38
g121
tp407
a(g139
V''
p408
tp409
a(g52
g52
tp410
a(g136
VNN
p411
tp412
a(g139
V''
p413
tp414
a(g167
VDT
p415
tp416
a(g289
VNN
p417
tp418
a(g136
VNN
p419
tp420
a(g172
VNN
p421
tp422
a(g151
VSYM
p423
tp424
a(g139
V''
p425
tp426
a(g52
g52
tp427
a(g136
VNN
p428
tp429
a(g139
V''
p430
tp431
a(g10
g118
tp432
a(g139
V''
p433
tp434
a(g52
g52
tp435
a(g136
VNN
p436
tp437
a(g139
V''
p438
tp439
a(g167
VDT
p440
tp441
a(g185
VNN
p442
tp443
a(Vk
p444
VNN
p445
tp446
a(g139
V''
p447
tp448
a(g52
g52
tp449
a(g136
VNN
p450
tp451
a(g139
VPOS
p452
tp453
a(g197
VNN
p454
tp455
a(g151
VSYM
p456
tp457
a(g172
VNN
p458
tp459
a(g172
VNN
p460
tp461
a(g151
VSYM
p462
tp463
a(g153
VNN
p464
tp465
a(g139
V''
p466
tp467
a(g52
g52
tp468
a(g136
VNN
p469
tp470
a(g139
VPOS
p471
tp472
a(g164
VNN
p473
tp474
a(g146
VNN
p475
tp476
a(g167
VDT
p477
tp478
a(g289
VNN
p479
tp480
a(g151
VSYM
p481
tp482
a(g139
V''
p483
tp484
a(g52
g52
tp485
a(g136
VNN
p486
tp487
a(g139
VPOS
p488
tp489
a(g185
VNN
p490
tp491
a(g172
VNN
p492
tp493
a(g167
VDT
p494
tp495
a(g215
VNN
p496
tp497
a(g139
V''
p498
tp499
a(g52
g52
tp500
a(g136
VNN
p501
tp502
a(g139
VPOS
p503
tp504
a(g172
VNN
p505
tp506
a(g153
VNN
p507
tp508
a(g167
VDT
p509
tp510
a(Vv
p511
VLS
p512
tp513
a(g151
VLS
p514
tp515
a(g146
VNN
p516
tp517
a(g146
VNN
p518
tp519
a(g143
VFW
p520
tp521
a(g180
VNN
p522
tp523
a(g274
VNN
p524
tp525
a(g139
V''
p526
tp527
a(g52
g52
tp528
a(g136
VNN
p529
tp530
a(g139
V''
p531
tp532
a(g162
VDT
p533
tp534
a(g382
VNN
p535
tp536
a(g151
VSYM
p537
tp538
a(g146
VNN
p539
tp540
a(g167
VDT
p541
tp542
a(g143
VFW
p543
tp544
a(g382
VFW
p545
tp546
a(g151
VLS
p547
tp548
a(g86
g86
tp549
a(g139
V''
p550
tp551
a(g52
g52
tp552
a(g136
VNN
p553
tp554
a(g139
VPOS
p555
tp556
a(g250
VNN
p557
tp558
a(g151
VSYM
p559
tp560
a(g139
V''
p561
tp562
a(g52
g52
tp563
a(g136
VNN
p564
tp565
a(g139
V''
p566
tp567
a(g30
VCD
p568
tp569
a(g139
V''
p570
tp571
a(g52
g52
tp572
a(g136
VNN
p573
tp574
a(g139
VPOS
p575
tp576
a(g197
VNN
p577
tp578
a(g151
VSYM
p579
tp580
a(g382
VNN
p581
tp582
a(V/
p583
g118
tp584
a(g139
V''
p585
tp586
a(g52
g52
tp587
a(g136
VNN
p588
tp589
a(g139
V''
p590
tp591
a(g30
VCD
p592
tp593
a(g139
V''
p594
tp595
a(g52
g52
tp596
a(g136
VNN
p597
tp598
a(g139
VPOS
p599
tp600
a(g197
VNN
p601
tp602
a(g167
VDT
p603
tp604
a(g172
VNN
p605
tp606
a(g277
VNN
p607
tp608
a(g139
V''
p609
tp610
a(g52
g52
tp611
a(g136
VNN
p612
tp613
a(g139
V''
p614
tp615
a(g167
VDT
p616
tp617
a(g164
VNN
p618
tp619
a(g167
VDT
p620
tp621
a(g153
VNN
p622
tp623
a(g172
VNN
p624
tp625
a(g175
VNN
p626
tp627
a(g151
VSYM
p628
tp629
a(g180
VNN
p630
tp631
a(g172
VNN
p632
tp633
a(g139
V''
p634
tp635
a(g52
g52
tp636
a(g136
VNN
p637
tp638
a(g139
VPOS
p639
tp640
a(g185
VNN
p641
tp642
a(g136
VFW
p643
tp644
a(g143
VFW
p645
tp646
a(g172
VNN
p647
tp648
a(g167
VDT
p649
tp650
a(g197
VNN
p651
tp652
a(g146
VNN
p653
tp654
a(g151
VSYM
p655
tp656
a(g139
V''
p657
tp658
a(g52
g52
tp659
a(g136
VNN
p660
tp661
a(g139
V''
p662
tp663
a(g30
VCD
p664
tp665
a(g139
V''
p666
tp667
a(g52
g52
tp668
a(g136
VNN
p669
tp670
a(g139
VPOS
p671
tp672
a(g289
VNN
p673
tp674
a(g202
VNN
p675
tp676
a(g136
VNN
p677
tp678
a(g164
VNN
p679
tp680
a(g146
VNN
p681
tp682
a(g151
VSYM
p683
tp684
a(g185
VNN
p685
tp686
a(g86
g86
tp687
a(g139
V''
p688
tp689
a(g52
g52
tp690
a(g136
VNN
p691
tp692
a(g139
VPOS
p693
tp694
a(g162
VNN
p695
tp696
a(g139
V''
p697
tp698
a(g52
g52
tp699
a(g136
VNN
p700
tp701
a(g139
VPOS
p702
tp703
a(g185
VNN
p704
tp705
a(g277
VNN
p706
tp707
a(g202
VNN
p708
tp709
a(g153
VNN
p710
tp711
a(g172
VNN
p712
tp713
a(g139
V''
p714
tp715
a(g52
g52
tp716
a(g136
VNN
p717
tp718
a(g139
V''
p719
tp720
a(Vw
p721
VNN
p722
tp723
a(g167
VDT
p724
tp725
a(g146
VNN
p726
tp727
a(g444
VNN
p728
tp729
a(g139
V''
p730
tp731
a(g52
g52
tp732
a(g136
VNN
p733
tp734
a(g139
V''
p735
tp736
a(g52
g52
tp737
a(g139
V''
p738
tp739
a(g52
g52
tp740
a(g136
VNN
p741
tp742
a(g139
V''
p743
tp744
a(g175
VNN
p745
tp746
a(g167
VDT
p747
tp748
a(g215
VNN
p749
tp750
a(g197
VNN
p751
tp752
a(g151
VSYM
p753
tp754
a(g139
V''
p755
tp756
a(g52
g52
tp757
a(g136
VNN
p758
tp759
a(g139
V''
p760
tp761
a(V5
p762
VCD
p763
tp764
a(V0
p765
VCD
p766
tp767
a(g139
V''
p768
tp769
a(g52
g52
tp770
a(g136
VNN
p771
tp772
a(g139
VPOS
p773
tp774
a(g175
VNN
p775
tp776
a(g151
VSYM
p777
tp778
a(g172
VNN
p779
tp780
a(g153
VNN
p781
tp782
a(g151
VSYM
p783
tp784
a(g185
g128
tp785
a(g139
VPOS
p786
tp787
a(g52
g52
tp788
a(g136
VNN
p789
tp790
a(g139
VPOS
p791
tp792
a(VR
p793
VNN
p794
tp795
a(g136
VNN
p796
tp797
a(g180
VNN
p798
tp799
a(g382
VNN
p800
tp801
a(g146
VNN
p802
tp803
a(g151
VSYM
p804
tp805
a(g139
V''
p806
tp807
a(g52
g52
tp808
a(g136
VNN
p809
tp810
a(g139
V''
p811
tp812
a(g141
VNN
p813
tp814
a(g167
VDT
p815
tp816
a(g146
VNN
p817
tp818
a(g146
VNN
p819
tp820
a(g86
g86
tp821
a(g139
V''
p822
tp823
a(g52
g52
tp824
a(g136
VNN
p825
tp826
a(g139
VPOS
p827
tp828
a(g250
VNN
p829
tp830
a(g202
VNN
p831
tp832
a(g136
VNN
p833
tp834
a(g146
VNN
p835
tp836
a(g382
VNN
p837
tp838
a(g139
V''
p839
tp840
a(g52
g52
tp841
a(g136
VNN
p842
tp843
a(g139
VPOS
p844
tp845
a(g382
VNN
p846
tp847
a(g151
VSYM
p848
tp849
a(g321
VFW
p850
tp851
a(g143
VFW
p852
tp853
a(g180
VNN
p854
tp855
a(g143
VLS
p856
tp857
a(g172
VNN
p858
tp859
a(g151
VSYM
p860
tp861
a(g146
VNN
p862
tp863
a(g215
VNN
p864
tp865
a(g139
V''
p866
tp867
a(g52
g52
tp868
a(g136
VNN
p869
tp870
a(g139
VPOS
p871
tp872
a(g185
VNN
p873
tp874
a(g172
VNN
p875
tp876
a(g167
VDT
p877
tp878
a(g215
VNN
p879
tp880
a(g139
V''
p881
tp882
a(g52
g52
tp883
a(g136
VNN
p884
tp885
a(g139
VPOS
p886
tp887
a(g153
VNN
p888
tp889
a(g151
VSYM
p890
tp891
a(g289
VNN
p892
tp893
a(g202
VNN
p894
tp895
a(g175
VNN
p896
tp897
a(g175
VNN
p898
tp899
a(g151
VSYM
p900
tp901
a(g180
VNN
p902
tp903
a(g382
VNN
p904
tp905
a(g139
V''
p906
tp907
a(g52
g52
tp908
a(g136
VNN
p909
tp910
a(g139
V''
p911
tp912
a(g167
VDT
p913
tp914
a(g180
VNN
p915
tp916
a(g215
VNN
p917
tp918
a(g202
VNN
p919
tp920
a(g180
VNN
p921
tp922
a(g151
VLS
p923
tp924
a(g86
g86
tp925
a(g139
V''
p926
tp927
a(g52
g52
tp928
a(g136
VNN
p929
tp930
a(g139
VPOS
p931
tp932
a(VS
p933
VNN
p934
tp935
a(g172
VNN
p936
tp937
a(g167
VDT
p938
tp939
a(g321
VFW
p940
tp941
a(g321
VFW
p942
tp943
a(g139
V''
p944
tp945
a(g52
g52
tp946
a(g136
VNN
p947
tp948
a(g139
V''
p949
tp950
a(g167
VDT
p951
tp952
a(g146
VNN
p953
tp954
a(g185
VNN
p955
tp956
a(g202
VNN
p957
tp958
a(g139
V''
p959
tp960
a(g52
g52
tp961
a(g136
VNN
p962
tp963
a(g139
V''
p964
tp965
a(g321
VLS
p966
tp967
a(g153
VNN
p968
tp969
a(g143
VFW
p970
tp971
a(g151
VLS
p972
tp973
a(g180
VNN
p974
tp975
a(g382
VNN
p976
tp977
a(g146
VNN
p978
tp979
a(g215
VNN
p980
tp981
a(g139
V''
p982
tp983
a(g52
g52
tp984
a(g136
VNN
p985
tp986
a(g139
VPOS
p987
tp988
a(g721
VNN
p989
tp990
a(g151
VSYM
p991
tp992
a(g146
VNN
p993
tp994
a(g289
VNN
p995
tp996
a(g202
VNN
p997
tp998
a(g175
VNN
p999
tp1000
a(g143
VFW
p1001
tp1002
a(g180
VNN
p1003
tp1004
a(g274
VNN
p1005
tp1006
a(g139
V''
p1007
tp1008
a(g52
g52
tp1009
a(g136
VNN
p1010
tp1011
a(g139
V''
p1012
tp1013
a(g86
g86
tp1014
a(g139
V''
p1015
tp1016
a(V]
p1017
VNN
p1018
tp1019
asS'tagged_title'
p1020
(lp1021
(g134
VFW
p1022
tp1023
a(g136
VFW
p1024
tp1025
a(g139
VPOS
p1026
tp1027
a(g250
VNN
p1028
tp1029
a(g151
VSYM
p1030
tp1031
a(g151
VLS
p1032
tp1033
a(g444
VNN
p1034
tp1035
a(g151
VSYM
p1036
tp1037
a(g180
VNN
p1038
tp1039
a(g382
VNN
p1040
tp1041
a(g139
V''
p1042
tp1043
a(g52
g52
tp1044
a(g136
VNN
p1045
tp1046
a(g139
VPOS
p1047
tp1048
a(VH
p1049
VNN
p1050
tp1051
a(g202
VNN
p1052
tp1053
a(g146
VNN
p1054
tp1055
a(g143
VFW
p1056
tp1057
a(g382
VFW
p1058
tp1059
a(g167
VDT
p1060
tp1061
a(g215
VNN
p1062
tp1063
a(g139
VPOS
p1064
tp1065
a(g1017
VNN
p1066
tp1067
asVtotal_points
p1068
V101
p1069
sVdate
p1070
V7/28/2015
p1071
sVtaObjectUrl
p1072
Vhttp://www.tripadvisor.com/Hotel_Review-g255093-d650758-Reviews-Miller_Apartments_Adelaide-Adelaide_Greater_Adelaide_South_Australia.html
p1073
sVtype
p1074
VHotels
p1075
sS'pos_unigram'
p1076
(lp1077
g120
ag137
ag123
ag119
ag144
ag147
ag149
ag122
ag154
ag124
ag52
ag158
ag160
ag127
ag165
ag168
ag170
ag173
ag176
ag178
ag181
ag183
ag186
ag188
ag52
ag191
ag193
ag195
ag198
ag200
ag203
ag205
ag207
ag209
ag211
ag213
ag216
ag218
ag52
ag221
ag223
ag225
ag227
ag229
ag231
ag233
ag126
ag236
ag238
ag240
ag86
ag243
ag52
ag246
ag248
ag251
ag253
ag255
ag52
ag258
ag260
ag125
ag263
ag52
ag266
ag268
ag270
ag272
ag275
ag278
ag280
ag282
ag52
ag285
ag287
ag290
ag292
ag294
ag296
ag298
ag300
ag52
ag303
ag305
ag52
ag308
ag52
ag311
ag313
ag315
ag317
ag319
ag322
ag324
ag326
ag328
ag330
ag332
ag334
ag336
ag338
ag52
ag341
ag343
ag345
ag347
ag349
ag351
ag353
ag355
ag357
ag359
ag361
ag363
ag52
ag366
ag368
ag370
ag372
ag374
ag376
ag378
ag380
ag383
ag86
ag386
ag52
ag389
ag391
ag394
ag396
ag398
ag400
ag52
ag403
ag405
ag121
ag408
ag52
ag411
ag413
ag415
ag417
ag419
ag421
ag423
ag425
ag52
ag428
ag430
ag118
ag433
ag52
ag436
ag438
ag440
ag442
ag445
ag447
ag52
ag450
ag452
ag454
ag456
ag458
ag460
ag462
ag464
ag466
ag52
ag469
ag471
ag473
ag475
ag477
ag479
ag481
ag483
ag52
ag486
ag488
ag490
ag492
ag494
ag496
ag498
ag52
ag501
ag503
ag505
ag507
ag509
ag512
ag514
ag516
ag518
ag520
ag522
ag524
ag526
ag52
ag529
ag531
ag533
ag535
ag537
ag539
ag541
ag543
ag545
ag547
ag86
ag550
ag52
ag553
ag555
ag557
ag559
ag561
ag52
ag564
ag566
ag568
ag570
ag52
ag573
ag575
ag577
ag579
ag581
ag118
ag585
ag52
ag588
ag590
ag592
ag594
ag52
ag597
ag599
ag601
ag603
ag605
ag607
ag609
ag52
ag612
ag614
ag616
ag618
ag620
ag622
ag624
ag626
ag628
ag630
ag632
ag634
ag52
ag637
ag639
ag641
ag643
ag645
ag647
ag649
ag651
ag653
ag655
ag657
ag52
ag660
ag662
ag664
ag666
ag52
ag669
ag671
ag673
ag675
ag677
ag679
ag681
ag683
ag685
ag86
ag688
ag52
ag691
ag693
ag695
ag697
ag52
ag700
ag702
ag704
ag706
ag708
ag710
ag712
ag714
ag52
ag717
ag719
ag722
ag724
ag726
ag728
ag730
ag52
ag733
ag735
ag52
ag738
ag52
ag741
ag743
ag745
ag747
ag749
ag751
ag753
ag755
ag52
ag758
ag760
ag763
ag766
ag768
ag52
ag771
ag773
ag775
ag777
ag779
ag781
ag783
ag128
ag786
ag52
ag789
ag791
ag794
ag796
ag798
ag800
ag802
ag804
ag806
ag52
ag809
ag811
ag813
ag815
ag817
ag819
ag86
ag822
ag52
ag825
ag827
ag829
ag831
ag833
ag835
ag837
ag839
ag52
ag842
ag844
ag846
ag848
ag850
ag852
ag854
ag856
ag858
ag860
ag862
ag864
ag866
ag52
ag869
ag871
ag873
ag875
ag877
ag879
ag881
ag52
ag884
ag886
ag888
ag890
ag892
ag894
ag896
ag898
ag900
ag902
ag904
ag906
ag52
ag909
ag911
ag913
ag915
ag917
ag919
ag921
ag923
ag86
ag926
ag52
ag929
ag931
ag934
ag936
ag938
ag940
ag942
ag944
ag52
ag947
ag949
ag951
ag953
ag955
ag957
ag959
ag52
ag962
ag964
ag966
ag968
ag970
ag972
ag974
ag976
ag978
ag980
ag982
ag52
ag985
ag987
ag989
ag991
ag993
ag995
ag997
ag999
ag1001
ag1003
ag1005
ag1007
ag52
ag1010
ag1012
ag86
ag1015
ag1018
asVhelpfulness
p1078
V1
p1079
sVtaObjectCity
p1080
VAdelaide
p1081
s.(dp0
Vrating
p1
V5
p2
sVtext
p3
VMy husband and I spent the weekend in this beautiful relaxing tranquil retreat. Spotlessly clean and excellently presented chalet. We would thoroughly recommend it and will return. The hosts Bryan and Anne are extremely friendly and helpful. You won&acute;t be disappointed.
p4
sS'title_length'
p5
I274
sS'bigram_counts'
p6
ccollections
Counter
p7
((dp8
(Vwould
p9
Vthoroughly
p10
tp11
I1
s(V&
p12
Vacute
p13
tp14
I1
s(Vbryan
p15
Vanne
p16
tp17
I1
s(Vretreat.
p18
Vspotlessly
p19
tp20
I1
s(Vhosts
p21
g15
tp22
I1
s(Vclean
p23
Vexcellently
p24
tp25
I1
s(g16
Vextremely
p26
tp27
I1
s(Vdisappointed
p28
V.
p29
tp30
I1
s(g19
g23
tp31
I1
s(Vrelaxing
p32
Vtranquil
p33
tp34
I1
s(Vhusband
p35
Vspent
p36
tp37
I1
s(g26
Vfriendly
p38
tp39
I1
s(Vpresented
p40
Vchalet.
p41
tp42
I1
s(g41
g9
tp43
I1
s(g13
V;
p44
tp45
I1
s(g44
g28
tp46
I1
s(g38
Vhelpful.
p47
tp48
I1
s(g10
Vrecommend
p49
tp50
I1
s(Vreturn.
p51
g21
tp52
I1
s(Vbeautiful
p53
g32
tp54
I1
s(g36
Vweekend
p55
tp56
I1
s(g49
g51
tp57
I1
s(g55
g53
tp58
I1
s(g47
g12
tp59
I1
s(g33
g18
tp60
I1
s(g24
g40
tp61
I1
stp62
Rp63
sS'rev_unigrams'
p64
(lp65
g35
ag36
ag55
ag53
ag32
ag33
ag18
ag19
ag23
ag24
ag40
ag41
ag9
ag10
ag49
ag51
ag21
ag15
ag16
ag26
ag38
ag47
ag12
ag13
ag44
ag28
ag29
asVid
p66
V85
p67
sVtaObject
p68
VHidden Grove Retreat
p69
sVtitle
p70
VFabulous getaway
p71
sS'unigram_counts'
p72
g7
((dp73
g53
I1
sg47
I1
sg32
I1
sg15
I1
sg36
I1
sg24
I1
sg33
I1
sg51
I1
sg55
I1
sg44
I1
sg13
I1
sg19
I1
sg41
I1
sg9
I1
sg12
I1
sg10
I1
sg40
I1
sg26
I1
sg18
I1
sg29
I1
sg28
I1
sg23
I1
sg49
I1
sg21
I1
sg16
I1
sg38
I1
sg35
I1
stp74
Rp75
sS'rev_bigrams'
p76
(lp77
g37
ag56
ag58
ag54
ag34
ag60
ag20
ag31
ag25
ag61
ag42
ag43
ag11
ag50
ag57
ag52
ag22
ag17
ag27
ag39
ag48
ag59
ag14
ag45
ag46
ag30
asS'pos_count'
p78
ccollections
defaultdict
p79
(c__builtin__
int
p80
tp81
Rp82
V:
p83
I1
sVNN
p84
I159
sVFW
p85
I19
sVCC
p86
I1
sV,
p87
I31
sVSYM
p88
I25
sVPOS
p89
I22
sV''
p90
I42
sVPRP
p91
I1
sVVBZ
p92
I2
sVDT
p93
I10
sg29
I5
sVLS
p94
I6
ssS'rev_length'
p95
I274
sVusername
p96
V124_10
p97
sS'tagged_text'
p98
(lp99
(V[
p100
g85
tp101
a(Vu
p102
VFW
p103
tp104
a(V'
p105
g89
tp106
a(VM
p107
g84
tp108
a(Vy
p109
VNN
p110
tp111
a(g105
g90
tp112
a(g87
g87
tp113
a(g102
VNN
p114
tp115
a(g105
VPOS
p116
tp117
a(Vh
p118
VNN
p119
tp120
a(g102
VNN
p121
tp122
a(Vs
p123
VNN
p124
tp125
a(Vb
p126
VNN
p127
tp128
a(Va
p129
g93
tp130
a(Vn
p131
VNN
p132
tp133
a(Vd
p134
VNN
p135
tp136
a(g105
V''
p137
tp138
a(g87
g87
tp139
a(g102
VNN
p140
tp141
a(g105
V''
p142
tp143
a(VI
p144
g91
tp145
a(g105
V''
p146
tp147
a(g87
g87
tp148
a(g102
VNN
p149
tp150
a(g105
VPOS
p151
tp152
a(g123
VNN
p153
tp154
a(Vp
p155
VNN
p156
tp157
a(Ve
p158
g88
tp159
a(g131
VNN
p160
tp161
a(Vt
p162
VNN
p163
tp164
a(g105
V''
p165
tp166
a(g87
g87
tp167
a(g102
VNN
p168
tp169
a(g105
VPOS
p170
tp171
a(Vw
p172
VNN
p173
tp174
a(g158
VSYM
p175
tp176
a(g158
g94
tp177
a(Vk
p178
VNN
p179
tp180
a(g158
VSYM
p181
tp182
a(g131
VNN
p183
tp184
a(g134
VNN
p185
tp186
a(g105
V''
p187
tp188
a(g87
g87
tp189
a(g102
VNN
p190
tp191
a(g105
VPOS
p192
tp193
a(g126
VNN
p194
tp195
a(g158
VSYM
p196
tp197
a(g129
VFW
p198
tp199
a(g102
VFW
p200
tp201
a(g162
VNN
p202
tp203
a(Vi
p204
VFW
p205
tp206
a(Vf
p207
VFW
p208
tp209
a(g102
VFW
p210
tp211
a(Vl
p212
VNN
p213
tp214
a(g105
V''
p215
tp216
a(g87
g87
tp217
a(g102
VNN
p218
tp219
a(g105
VPOS
p220
tp221
a(Vr
p222
VNN
p223
tp224
a(g158
VSYM
p225
tp226
a(g212
VNN
p227
tp228
a(g129
VDT
p229
tp230
a(Vx
p231
VNN
p232
tp233
a(g204
VFW
p234
tp235
a(g131
VNN
p236
tp237
a(Vg
p238
VNN
p239
tp240
a(g105
V''
p241
tp242
a(g87
g87
tp243
a(g102
VNN
p244
tp245
a(g105
VPOS
p246
tp247
a(g162
VNN
p248
tp249
a(g222
VNN
p250
tp251
a(g129
VDT
p252
tp253
a(g131
VNN
p254
tp255
a(Vq
p256
VFW
p257
tp258
a(g102
VFW
p259
tp260
a(g204
VFW
p261
tp262
a(g212
VNN
p263
tp264
a(g105
V''
p265
tp266
a(g87
g87
tp267
a(g102
VNN
p268
tp269
a(g105
VPOS
p270
tp271
a(g222
VNN
p272
tp273
a(g158
VSYM
p274
tp275
a(g162
VNN
p276
tp277
a(g222
VNN
p278
tp279
a(g158
VSYM
p280
tp281
a(g129
VDT
p282
tp283
a(g162
VNN
p284
tp285
a(g29
g29
tp286
a(g105
V''
p287
tp288
a(g87
g87
tp289
a(g102
VNN
p290
tp291
a(g105
VPOS
p292
tp293
a(VS
p294
VNN
p295
tp296
a(g155
VNN
p297
tp298
a(Vo
p299
VNN
p300
tp301
a(g162
VNN
p302
tp303
a(g212
VNN
p304
tp305
a(g158
VSYM
p306
tp307
a(g123
VNN
p308
tp309
a(g123
VNN
p310
tp311
a(g212
VNN
p312
tp313
a(g109
VNN
p314
tp315
a(g105
V''
p316
tp317
a(g87
g87
tp318
a(g102
VNN
p319
tp320
a(g105
VPOS
p321
tp322
a(Vc
p323
VNN
p324
tp325
a(g212
VNN
p326
tp327
a(g158
VSYM
p328
tp329
a(g129
VDT
p330
tp331
a(g131
VNN
p332
tp333
a(g105
V''
p334
tp335
a(g87
g87
tp336
a(g102
VNN
p337
tp338
a(g105
V''
p339
tp340
a(g158
VLS
p341
tp342
a(g231
VNN
p343
tp344
a(g323
VNN
p345
tp346
a(g158
VSYM
p347
tp348
a(g212
VNN
p349
tp350
a(g212
VNN
p351
tp352
a(g158
VSYM
p353
tp354
a(g131
VNN
p355
tp356
a(g162
VNN
p357
tp358
a(g212
VNN
p359
tp360
a(g109
VNN
p361
tp362
a(g105
V''
p363
tp364
a(g87
g87
tp365
a(g102
VNN
p366
tp367
a(g105
VPOS
p368
tp369
a(g155
VNN
p370
tp371
a(g222
VNN
p372
tp373
a(g158
VSYM
p374
tp375
a(g123
g92
tp376
a(g158
VLS
p377
tp378
a(g131
VNN
p379
tp380
a(g162
VNN
p381
tp382
a(g158
VSYM
p383
tp384
a(g134
VFW
p385
tp386
a(g105
V''
p387
tp388
a(g87
g87
tp389
a(g102
VNN
p390
tp391
a(g105
VPOS
p392
tp393
a(g323
VNN
p394
tp395
a(g118
VNN
p396
tp397
a(g129
VDT
p398
tp399
a(g212
VNN
p400
tp401
a(g158
VSYM
p402
tp403
a(g162
VNN
p404
tp405
a(g29
g29
tp406
a(g105
V''
p407
tp408
a(g87
g87
tp409
a(g102
VNN
p410
tp411
a(g105
VPOS
p412
tp413
a(VW
p414
VNN
p415
tp416
a(g158
VSYM
p417
tp418
a(g105
V''
p419
tp420
a(g87
g87
tp421
a(g102
VNN
p422
tp423
a(g105
VPOS
p424
tp425
a(g172
VNN
p426
tp427
a(g299
VNN
p428
tp429
a(g102
VNN
p430
tp431
a(g212
VNN
p432
tp433
a(g134
VNN
p434
tp435
a(g105
V''
p436
tp437
a(g87
g87
tp438
a(g102
VNN
p439
tp440
a(g105
VPOS
p441
tp442
a(g162
VNN
p443
tp444
a(g118
VNN
p445
tp446
a(g299
VNN
p447
tp448
a(g222
VNN
p449
tp450
a(g299
VNN
p451
tp452
a(g102
VNN
p453
tp454
a(g238
VNN
p455
tp456
a(g118
VNN
p457
tp458
a(g212
VNN
p459
tp460
a(g109
VNN
p461
tp462
a(g105
V''
p463
tp464
a(g87
g87
tp465
a(g102
VNN
p466
tp467
a(g105
VPOS
p468
tp469
a(g222
VNN
p470
tp471
a(g158
VSYM
p472
tp473
a(g323
VNN
p474
tp475
a(g299
VNN
p476
tp477
a(Vm
p478
VNN
p479
tp480
a(g478
VNN
p481
tp482
a(g158
VSYM
p483
tp484
a(g131
VNN
p485
tp486
a(g134
VNN
p487
tp488
a(g105
V''
p489
tp490
a(g87
g87
tp491
a(g102
VNN
p492
tp493
a(g105
VPOS
p494
tp495
a(g222
VNN
p496
tp497
a(g158
VSYM
p498
tp499
a(g162
VNN
p500
tp501
a(g102
VNN
p502
tp503
a(g222
VNN
p504
tp505
a(g131
VNN
p506
tp507
a(g29
g29
tp508
a(g105
V''
p509
tp510
a(g87
g87
tp511
a(g102
VNN
p512
tp513
a(g105
VPOS
p514
tp515
a(VT
p516
VNN
p517
tp518
a(g118
VNN
p519
tp520
a(g158
VSYM
p521
tp522
a(g105
V''
p523
tp524
a(g87
g87
tp525
a(g102
VNN
p526
tp527
a(g105
VPOS
p528
tp529
a(g118
VNN
p530
tp531
a(g299
VNN
p532
tp533
a(g123
VNN
p534
tp535
a(g162
VNN
p536
tp537
a(g123
VNN
p538
tp539
a(g105
V''
p540
tp541
a(g87
g87
tp542
a(g102
VNN
p543
tp544
a(g105
VPOS
p545
tp546
a(VB
p547
VNN
p548
tp549
a(g222
VNN
p550
tp551
a(g109
VNN
p552
tp553
a(g129
VDT
p554
tp555
a(g131
VNN
p556
tp557
a(g105
V''
p558
tp559
a(g87
g87
tp560
a(g102
VNN
p561
tp562
a(g105
V''
p563
tp564
a(VA
p565
VDT
p566
tp567
a(g131
VNN
p568
tp569
a(g131
VNN
p570
tp571
a(g158
VSYM
p572
tp573
a(g105
V''
p574
tp575
a(g87
g87
tp576
a(g102
VNN
p577
tp578
a(g105
V''
p579
tp580
a(g158
VLS
p581
tp582
a(g231
VNN
p583
tp584
a(g162
VNN
p585
tp586
a(g222
VNN
p587
tp588
a(g158
VSYM
p589
tp590
a(g478
VNN
p591
tp592
a(g158
VSYM
p593
tp594
a(g212
VNN
p595
tp596
a(g109
VNN
p597
tp598
a(g105
V''
p599
tp600
a(g87
g87
tp601
a(g102
VNN
p602
tp603
a(g105
V''
p604
tp605
a(g207
VLS
p606
tp607
a(g222
VNN
p608
tp609
a(g204
VFW
p610
tp611
a(g158
VLS
p612
tp613
a(g131
VNN
p614
tp615
a(g134
VNN
p616
tp617
a(g212
VNN
p618
tp619
a(g109
VNN
p620
tp621
a(g105
V''
p622
tp623
a(g87
g87
tp624
a(g102
VNN
p625
tp626
a(g105
VPOS
p627
tp628
a(g118
VNN
p629
tp630
a(g158
VSYM
p631
tp632
a(g212
VNN
p633
tp634
a(g155
VNN
p635
tp636
a(g207
VFW
p637
tp638
a(g102
VFW
p639
tp640
a(g212
VNN
p641
tp642
a(g29
g29
tp643
a(g105
V''
p644
tp645
a(g87
g87
tp646
a(g102
VNN
p647
tp648
a(g105
VPOS
p649
tp650
a(VY
p651
VNN
p652
tp653
a(g299
VNN
p654
tp655
a(g102
VNN
p656
tp657
a(g105
V''
p658
tp659
a(g87
g87
tp660
a(g102
VNN
p661
tp662
a(g105
V''
p663
tp664
a(g12
g86
tp665
a(g105
V''
p666
tp667
a(g87
g87
tp668
a(g102
VNN
p669
tp670
a(g105
V''
p671
tp672
a(g129
VDT
p673
tp674
a(g323
VNN
p675
tp676
a(g102
VNN
p677
tp678
a(g162
VNN
p679
tp680
a(g158
VSYM
p681
tp682
a(g105
V''
p683
tp684
a(g87
g87
tp685
a(g102
VNN
p686
tp687
a(g105
V''
p688
tp689
a(g44
g83
tp690
a(g105
V''
p691
tp692
a(g87
g87
tp693
a(g102
VNN
p694
tp695
a(g105
V''
p696
tp697
a(g134
VFW
p698
tp699
a(g204
VFW
p700
tp701
a(g123
VVBZ
p702
tp703
a(g129
VDT
p704
tp705
a(g155
VNN
p706
tp707
a(g155
VNN
p708
tp709
a(g299
VNN
p710
tp711
a(g204
VFW
p712
tp713
a(g131
VNN
p714
tp715
a(g162
VNN
p716
tp717
a(g158
VSYM
p718
tp719
a(g134
VFW
p720
tp721
a(g105
V''
p722
tp723
a(g87
g87
tp724
a(g102
VNN
p725
tp726
a(g105
V''
p727
tp728
a(g29
g29
tp729
a(g105
V''
p730
tp731
a(V]
p732
VNN
p733
tp734
asS'tagged_title'
p735
(lp736
(g100
VFW
p737
tp738
a(g102
VFW
p739
tp740
a(g105
VPOS
p741
tp742
a(VF
p743
VNN
p744
tp745
a(g129
VDT
p746
tp747
a(g126
VNN
p748
tp749
a(g102
VNN
p750
tp751
a(g212
VNN
p752
tp753
a(g299
VNN
p754
tp755
a(g102
VNN
p756
tp757
a(g123
VNN
p758
tp759
a(g105
V''
p760
tp761
a(g87
g87
tp762
a(g102
VNN
p763
tp764
a(g105
VPOS
p765
tp766
a(g238
VNN
p767
tp768
a(g158
VSYM
p769
tp770
a(g162
VNN
p771
tp772
a(g129
VDT
p773
tp774
a(g172
VNN
p775
tp776
a(g129
VDT
p777
tp778
a(g109
VNN
p779
tp780
a(g105
VPOS
p781
tp782
a(g732
VNN
p783
tp784
asVtotal_points
p785
V101
p786
sVdate
p787
V4/14/2014
p788
sVtaObjectUrl
p789
Vhttp://www.tripadvisor.com/Hotel_Review-g488328-d1762091-Reviews-Hidden_Grove_Retreat-Boyup_Brook_Western_Australia.html
p790
sVtype
p791
VHotels
p792
sS'pos_unigram'
p793
(lp794
g85
ag103
ag89
ag84
ag110
ag90
ag87
ag114
ag116
ag119
ag121
ag124
ag127
ag93
ag132
ag135
ag137
ag87
ag140
ag142
ag91
ag146
ag87
ag149
ag151
ag153
ag156
ag88
ag160
ag163
ag165
ag87
ag168
ag170
ag173
ag175
ag94
ag179
ag181
ag183
ag185
ag187
ag87
ag190
ag192
ag194
ag196
ag198
ag200
ag202
ag205
ag208
ag210
ag213
ag215
ag87
ag218
ag220
ag223
ag225
ag227
ag229
ag232
ag234
ag236
ag239
ag241
ag87
ag244
ag246
ag248
ag250
ag252
ag254
ag257
ag259
ag261
ag263
ag265
ag87
ag268
ag270
ag272
ag274
ag276
ag278
ag280
ag282
ag284
ag29
ag287
ag87
ag290
ag292
ag295
ag297
ag300
ag302
ag304
ag306
ag308
ag310
ag312
ag314
ag316
ag87
ag319
ag321
ag324
ag326
ag328
ag330
ag332
ag334
ag87
ag337
ag339
ag341
ag343
ag345
ag347
ag349
ag351
ag353
ag355
ag357
ag359
ag361
ag363
ag87
ag366
ag368
ag370
ag372
ag374
ag92
ag377
ag379
ag381
ag383
ag385
ag387
ag87
ag390
ag392
ag394
ag396
ag398
ag400
ag402
ag404
ag29
ag407
ag87
ag410
ag412
ag415
ag417
ag419
ag87
ag422
ag424
ag426
ag428
ag430
ag432
ag434
ag436
ag87
ag439
ag441
ag443
ag445
ag447
ag449
ag451
ag453
ag455
ag457
ag459
ag461
ag463
ag87
ag466
ag468
ag470
ag472
ag474
ag476
ag479
ag481
ag483
ag485
ag487
ag489
ag87
ag492
ag494
ag496
ag498
ag500
ag502
ag504
ag506
ag29
ag509
ag87
ag512
ag514
ag517
ag519
ag521
ag523
ag87
ag526
ag528
ag530
ag532
ag534
ag536
ag538
ag540
ag87
ag543
ag545
ag548
ag550
ag552
ag554
ag556
ag558
ag87
ag561
ag563
ag566
ag568
ag570
ag572
ag574
ag87
ag577
ag579
ag581
ag583
ag585
ag587
ag589
ag591
ag593
ag595
ag597
ag599
ag87
ag602
ag604
ag606
ag608
ag610
ag612
ag614
ag616
ag618
ag620
ag622
ag87
ag625
ag627
ag629
ag631
ag633
ag635
ag637
ag639
ag641
ag29
ag644
ag87
ag647
ag649
ag652
ag654
ag656
ag658
ag87
ag661
ag663
ag86
ag666
ag87
ag669
ag671
ag673
ag675
ag677
ag679
ag681
ag683
ag87
ag686
ag688
ag83
ag691
ag87
ag694
ag696
ag698
ag700
ag702
ag704
ag706
ag708
ag710
ag712
ag714
ag716
ag718
ag720
ag722
ag87
ag725
ag727
ag29
ag730
ag733
asVhelpfulness
p795
V1
p796
sVtaObjectCity
p797
VBoyup Brook
p798
s.(dp0
Vrating
p1
V4
p2
sVtext
p3
VMy husband and I stayed here on route to Bath. We had trouble finding accommodation and when we arrived at Holiday Inn they had one room left which we took. The manager of reception was so nice and friendly, a very personable young man. The hotel was very clean, new, spacious and quiet. Located a good 7min drive from centre of town but close to the main motorways. A lovely place which I would recommend. One more plug for the reception manager who was extremely nice.
p4
sS'title_length'
p5
I470
sS'bigram_counts'
p6
ccollections
Counter
p7
((dp8
(Vquiet.
p9
Vlocated
p10
tp11
I1
s(Vplug
p12
Vreception
p13
tp14
I1
s(Vnice
p15
Vfriendly
p16
tp17
I1
s(Vroute
p18
Vbath.
p19
tp20
I1
s(Vinn
p21
Vone
p22
tp23
I1
s(Vholiday
p24
g21
tp25
I1
s(Vnice
p26
V.
p27
tp28
I1
s(Vstayed
p29
g18
tp30
I1
s(V,
p31
Vpersonable
p32
tp33
I1
s(g19
Vtrouble
p34
tp35
I1
s(Vyoung
p36
Vman.
p37
tp38
I1
s(Vfinding
p39
Vaccommodation
p40
tp41
I1
s(Vdrive
p42
Vcentre
p43
tp44
I1
s(g31
Vspacious
p45
tp46
I1
s(Varrived
p47
g24
tp48
I1
s(g34
g39
tp49
I1
s(Vmanager
p50
Vreception
p51
tp52
I1
s(Vlovely
p53
Vplace
p54
tp55
I1
s(Vnew
p56
g31
tp57
I1
s(Vtown
p58
Vclose
p59
tp60
I1
s(g31
g56
tp61
I1
s(Vhusband
p62
g29
tp63
I1
s(V7min
p64
g42
tp65
I1
s(g10
Vgood
p66
tp67
I1
s(g32
g36
tp68
I1
s(g45
g9
tp69
I1
s(g22
Vroom
p70
tp71
I1
s(g54
Vwould
p72
tp73
I1
s(g70
Vleft
p74
tp75
I1
s(g43
g58
tp76
I1
s(Vclean
p77
g31
tp78
I1
s(Vmotorways.
p79
g53
tp80
I1
s(Vone
p81
g12
tp82
I1
s(Vhotel
p83
g77
tp84
I1
s(g37
g83
tp85
I1
s(g13
Vmanager
p86
tp87
I1
s(g16
g31
tp88
I1
s(g51
g15
tp89
I1
s(Vtook.
p90
g50
tp91
I1
s(Vextremely
p92
g26
tp93
I1
s(g66
g64
tp94
I1
s(Vrecommend.
p95
g81
tp96
I1
s(g40
g47
tp97
I1
s(Vmain
p98
g79
tp99
I1
s(g74
g90
tp100
I1
s(g72
g95
tp101
I1
s(g59
g98
tp102
I1
s(g86
g92
tp103
I1
stp104
Rp105
sS'rev_unigrams'
p106
(lp107
g62
ag29
ag18
ag19
ag34
ag39
ag40
ag47
ag24
ag21
ag22
ag70
ag74
ag90
ag50
ag51
ag15
ag16
ag31
ag32
ag36
ag37
ag83
ag77
ag31
ag56
ag31
ag45
ag9
ag10
ag66
ag64
ag42
ag43
ag58
ag59
ag98
ag79
ag53
ag54
ag72
ag95
ag81
ag12
ag13
ag86
ag92
ag26
ag27
asVid
p108
V86
p109
sVtaObject
p110
VHoliday Inn Winchester
p111
sVtitle
p112
VVery nice clean hotel
p113
sS'unigram_counts'
p114
g7
((dp115
g22
I2
sg9
I1
sg50
I2
sg79
I1
sg59
I1
sg95
I1
sg72
I1
sg36
I1
sg29
I1
sg27
I1
sg90
I1
sg10
I1
sg45
I1
sg39
I1
sg56
I1
sg53
I1
sg16
I1
sg37
I1
sg15
I2
sg58
I1
sg40
I1
sg66
I1
sg51
I2
sg43
I1
sg19
I1
sg83
I1
sg47
I1
sg34
I1
sg92
I1
sg31
I3
sg21
I1
sg12
I1
sg24
I1
sg70
I1
sg18
I1
sg42
I1
sg32
I1
sg98
I1
sg54
I1
sg77
I1
sg64
I1
sg62
I1
sg74
I1
stp116
Rp117
sS'rev_bigrams'
p118
(lp119
g63
ag30
ag20
ag35
ag49
ag41
ag97
ag48
ag25
ag23
ag71
ag75
ag100
ag91
ag52
ag89
ag17
ag88
ag33
ag68
ag38
ag85
ag84
ag78
ag61
ag57
ag46
ag69
ag11
ag67
ag94
ag65
ag44
ag76
ag60
ag102
ag99
ag80
ag55
ag73
ag101
ag96
ag82
ag14
ag87
ag103
ag93
ag28
asS'pos_count'
p120
ccollections
defaultdict
p121
(c__builtin__
int
p122
tp123
Rp124
VNN
p125
I242
sVFW
p126
I25
sg31
I58
sVSYM
p127
I27
sVPOS
p128
I38
sV''
p129
I74
sVCD
p130
I1
sVPRP
p131
I2
sVVBZ
p132
I1
sVDT
p133
I17
sg27
I7
sVLS
p134
I18
ssS'rev_length'
p135
I470
sVusername
p136
V124_10
p137
sS'tagged_text'
p138
(lp139
(V[
p140
g126
tp141
a(Vu
p142
VFW
p143
tp144
a(V'
p145
g128
tp146
a(VM
p147
g125
tp148
a(Vy
p149
VNN
p150
tp151
a(g145
g129
tp152
a(g31
g31
tp153
a(g142
VNN
p154
tp155
a(g145
VPOS
p156
tp157
a(Vh
p158
VNN
p159
tp160
a(g142
VNN
p161
tp162
a(Vs
p163
VNN
p164
tp165
a(Vb
p166
VNN
p167
tp168
a(Va
p169
g133
tp170
a(Vn
p171
VNN
p172
tp173
a(Vd
p174
VNN
p175
tp176
a(g145
V''
p177
tp178
a(g31
g31
tp179
a(g142
VNN
p180
tp181
a(g145
V''
p182
tp183
a(VI
p184
g131
tp185
a(g145
V''
p186
tp187
a(g31
g31
tp188
a(g142
VNN
p189
tp190
a(g145
VPOS
p191
tp192
a(g163
VNN
p193
tp194
a(Vt
p195
VNN
p196
tp197
a(g169
VFW
p198
tp199
a(g149
VFW
p200
tp201
a(Ve
p202
g134
tp203
a(g174
VNN
p204
tp205
a(g145
V''
p206
tp207
a(g31
g31
tp208
a(g142
VNN
p209
tp210
a(g145
VPOS
p211
tp212
a(Vr
p213
VNN
p214
tp215
a(Vo
p216
VNN
p217
tp218
a(g142
VNN
p219
tp220
a(g195
VNN
p221
tp222
a(g202
g127
tp223
a(g145
V''
p224
tp225
a(g31
g31
tp226
a(g142
VNN
p227
tp228
a(g145
V''
p229
tp230
a(VB
p231
VNN
p232
tp233
a(g169
VDT
p234
tp235
a(g195
VNN
p236
tp237
a(g158
VNN
p238
tp239
a(g27
g27
tp240
a(g145
V''
p241
tp242
a(g31
g31
tp243
a(g142
VNN
p244
tp245
a(g145
VPOS
p246
tp247
a(VW
p248
VNN
p249
tp250
a(g202
VSYM
p251
tp252
a(g145
V''
p253
tp254
a(g31
g31
tp255
a(g142
VNN
p256
tp257
a(g145
VPOS
p258
tp259
a(g195
VNN
p260
tp261
a(g213
VNN
p262
tp263
a(g216
VNN
p264
tp265
a(g142
VNN
p266
tp267
a(g166
VNN
p268
tp269
a(Vl
p270
VNN
p271
tp272
a(g202
VSYM
p273
tp274
a(g145
V''
p275
tp276
a(g31
g31
tp277
a(g142
VNN
p278
tp279
a(g145
V''
p280
tp281
a(Vf
p282
VFW
p283
tp284
a(Vi
p285
VFW
p286
tp287
a(g171
VNN
p288
tp289
a(g174
VFW
p290
tp291
a(g285
VFW
p292
tp293
a(g171
VNN
p294
tp295
a(Vg
p296
VNN
p297
tp298
a(g145
V''
p299
tp300
a(g31
g31
tp301
a(g142
VNN
p302
tp303
a(g145
V''
p304
tp305
a(g169
VDT
p306
tp307
a(Vc
p308
VNN
p309
tp310
a(g308
VNN
p311
tp312
a(g216
VNN
p313
tp314
a(Vm
p315
VNN
p316
tp317
a(g315
VNN
p318
tp319
a(g216
VNN
p320
tp321
a(g174
VNN
p322
tp323
a(g169
VDT
p324
tp325
a(g195
VNN
p326
tp327
a(g285
VFW
p328
tp329
a(g216
VNN
p330
tp331
a(g171
VNN
p332
tp333
a(g145
V''
p334
tp335
a(g31
g31
tp336
a(g142
VNN
p337
tp338
a(g145
V''
p339
tp340
a(g169
VDT
p341
tp342
a(g213
VNN
p343
tp344
a(g213
VNN
p345
tp346
a(g285
VFW
p347
tp348
a(Vv
p349
VLS
p350
tp351
a(g202
VLS
p352
tp353
a(g174
VNN
p354
tp355
a(g145
V''
p356
tp357
a(g31
g31
tp358
a(g142
VNN
p359
tp360
a(g145
VPOS
p361
tp362
a(VH
p363
VNN
p364
tp365
a(g216
VNN
p366
tp367
a(g270
VNN
p368
tp369
a(g285
VFW
p370
tp371
a(g174
VFW
p372
tp373
a(g169
VDT
p374
tp375
a(g149
VNN
p376
tp377
a(g145
V''
p378
tp379
a(g31
g31
tp380
a(g142
VNN
p381
tp382
a(g145
VPOS
p383
tp384
a(g184
VNN
p385
tp386
a(g171
VNN
p387
tp388
a(g171
VNN
p389
tp390
a(g145
V''
p391
tp392
a(g31
g31
tp393
a(g142
VNN
p394
tp395
a(g145
VPOS
p396
tp397
a(g216
VNN
p398
tp399
a(g171
VNN
p400
tp401
a(g202
VSYM
p402
tp403
a(g145
V''
p404
tp405
a(g31
g31
tp406
a(g142
VNN
p407
tp408
a(g145
VPOS
p409
tp410
a(g213
VNN
p411
tp412
a(g216
VNN
p413
tp414
a(g216
VNN
p415
tp416
a(g315
VNN
p417
tp418
a(g145
V''
p419
tp420
a(g31
g31
tp421
a(g142
VNN
p422
tp423
a(g145
VPOS
p424
tp425
a(g270
VNN
p426
tp427
a(g202
VSYM
p428
tp429
a(g282
VFW
p430
tp431
a(g195
VNN
p432
tp433
a(g145
V''
p434
tp435
a(g31
g31
tp436
a(g142
VNN
p437
tp438
a(g145
VPOS
p439
tp440
a(g195
VNN
p441
tp442
a(g216
VNN
p443
tp444
a(g216
VNN
p445
tp446
a(Vk
p447
VNN
p448
tp449
a(g27
g27
tp450
a(g145
V''
p451
tp452
a(g31
g31
tp453
a(g142
VNN
p454
tp455
a(g145
VPOS
p456
tp457
a(VT
p458
VNN
p459
tp460
a(g158
VNN
p461
tp462
a(g202
VSYM
p463
tp464
a(g145
V''
p465
tp466
a(g31
g31
tp467
a(g142
VNN
p468
tp469
a(g145
V''
p470
tp471
a(g315
VNN
p472
tp473
a(g169
VDT
p474
tp475
a(g171
VNN
p476
tp477
a(g169
VDT
p478
tp479
a(g296
VNN
p480
tp481
a(g202
VSYM
p482
tp483
a(g213
VNN
p484
tp485
a(g145
V''
p486
tp487
a(g31
g31
tp488
a(g142
VNN
p489
tp490
a(g145
VPOS
p491
tp492
a(g213
VNN
p493
tp494
a(g202
VSYM
p495
tp496
a(g308
VLS
p497
tp498
a(g202
VLS
p499
tp500
a(Vp
p501
VNN
p502
tp503
a(g195
VNN
p504
tp505
a(g285
VFW
p506
tp507
a(g216
VNN
p508
tp509
a(g171
VNN
p510
tp511
a(g145
V''
p512
tp513
a(g31
g31
tp514
a(g142
VNN
p515
tp516
a(g145
VPOS
p517
tp518
a(g171
VNN
p519
tp520
a(g285
VLS
p521
tp522
a(g308
VNN
p523
tp524
a(g202
VSYM
p525
tp526
a(g145
V''
p527
tp528
a(g31
g31
tp529
a(g142
VNN
p530
tp531
a(g145
V''
p532
tp533
a(g282
VLS
p534
tp535
a(g213
VNN
p536
tp537
a(g285
VFW
p538
tp539
a(g202
VLS
p540
tp541
a(g171
VNN
p542
tp543
a(g174
VNN
p544
tp545
a(g270
VNN
p546
tp547
a(g149
VNN
p548
tp549
a(g145
V''
p550
tp551
a(g31
g31
tp552
a(g142
VNN
p553
tp554
a(g145
V''
p555
tp556
a(g31
g31
tp557
a(g145
V''
p558
tp559
a(g31
g31
tp560
a(g142
VNN
p561
tp562
a(g145
VPOS
p563
tp564
a(g501
VNN
p565
tp566
a(g202
VSYM
p567
tp568
a(g213
VNN
p569
tp570
a(g163
VNN
p571
tp572
a(g216
VNN
p573
tp574
a(g171
VNN
p575
tp576
a(g169
VDT
p577
tp578
a(g166
VNN
p579
tp580
a(g270
VNN
p581
tp582
a(g202
VSYM
p583
tp584
a(g145
V''
p585
tp586
a(g31
g31
tp587
a(g142
VNN
p588
tp589
a(g145
VPOS
p590
tp591
a(g149
VNN
p592
tp593
a(g216
VNN
p594
tp595
a(g142
VNN
p596
tp597
a(g171
VNN
p598
tp599
a(g296
VNN
p600
tp601
a(g145
V''
p602
tp603
a(g31
g31
tp604
a(g142
VNN
p605
tp606
a(g145
V''
p607
tp608
a(g315
VNN
p609
tp610
a(g169
VDT
p611
tp612
a(g171
VNN
p613
tp614
a(g27
g27
tp615
a(g145
V''
p616
tp617
a(g31
g31
tp618
a(g142
VNN
p619
tp620
a(g145
VPOS
p621
tp622
a(g458
VNN
p623
tp624
a(g158
VNN
p625
tp626
a(g202
VSYM
p627
tp628
a(g145
V''
p629
tp630
a(g31
g31
tp631
a(g142
VNN
p632
tp633
a(g145
VPOS
p634
tp635
a(g158
VNN
p636
tp637
a(g216
VNN
p638
tp639
a(g195
VNN
p640
tp641
a(g202
VSYM
p642
tp643
a(g270
VNN
p644
tp645
a(g145
V''
p646
tp647
a(g31
g31
tp648
a(g142
VNN
p649
tp650
a(g145
VPOS
p651
tp652
a(g308
VNN
p653
tp654
a(g270
VNN
p655
tp656
a(g202
VSYM
p657
tp658
a(g169
VDT
p659
tp660
a(g171
VNN
p661
tp662
a(g145
V''
p663
tp664
a(g31
g31
tp665
a(g142
VNN
p666
tp667
a(g145
V''
p668
tp669
a(g31
g31
tp670
a(g145
V''
p671
tp672
a(g31
g31
tp673
a(g142
VNN
p674
tp675
a(g145
VPOS
p676
tp677
a(g171
VNN
p678
tp679
a(g202
VSYM
p680
tp681
a(Vw
p682
VNN
p683
tp684
a(g145
V''
p685
tp686
a(g31
g31
tp687
a(g142
VNN
p688
tp689
a(g145
V''
p690
tp691
a(g31
g31
tp692
a(g145
V''
p693
tp694
a(g31
g31
tp695
a(g142
VNN
p696
tp697
a(g145
VPOS
p698
tp699
a(g163
VNN
p700
tp701
a(g501
VNN
p702
tp703
a(g169
VDT
p704
tp705
a(g308
VNN
p706
tp707
a(g285
VFW
p708
tp709
a(g216
VNN
p710
tp711
a(g142
VNN
p712
tp713
a(g163
VNN
p714
tp715
a(g145
V''
p716
tp717
a(g31
g31
tp718
a(g142
VNN
p719
tp720
a(g145
V''
p721
tp722
a(Vq
p723
VFW
p724
tp725
a(g142
VFW
p726
tp727
a(g285
VFW
p728
tp729
a(g202
VLS
p730
tp731
a(g195
VNN
p732
tp733
a(g27
g27
tp734
a(g145
V''
p735
tp736
a(g31
g31
tp737
a(g142
VNN
p738
tp739
a(g145
VPOS
p740
tp741
a(VL
p742
VNN
p743
tp744
a(g216
VNN
p745
tp746
a(g308
VNN
p747
tp748
a(g169
VDT
p749
tp750
a(g195
VNN
p751
tp752
a(g202
VSYM
p753
tp754
a(g174
VFW
p755
tp756
a(g145
V''
p757
tp758
a(g31
g31
tp759
a(g142
VNN
p760
tp761
a(g145
VPOS
p762
tp763
a(g296
VNN
p764
tp765
a(g216
VNN
p766
tp767
a(g216
VNN
p768
tp769
a(g174
VNN
p770
tp771
a(g145
V''
p772
tp773
a(g31
g31
tp774
a(g142
VNN
p775
tp776
a(g145
V''
p777
tp778
a(V7
p779
g130
tp780
a(g315
VNN
p781
tp782
a(g285
VFW
p783
tp784
a(g171
VNN
p785
tp786
a(g145
V''
p787
tp788
a(g31
g31
tp789
a(g142
VNN
p790
tp791
a(g145
VPOS
p792
tp793
a(g174
VNN
p794
tp795
a(g213
VNN
p796
tp797
a(g285
VFW
p798
tp799
a(g349
VLS
p800
tp801
a(g202
VLS
p802
tp803
a(g145
V''
p804
tp805
a(g31
g31
tp806
a(g142
VNN
p807
tp808
a(g145
VPOS
p809
tp810
a(g308
VNN
p811
tp812
a(g202
VSYM
p813
tp814
a(g171
VNN
p815
tp816
a(g195
VNN
p817
tp818
a(g213
VNN
p819
tp820
a(g202
VSYM
p821
tp822
a(g145
V''
p823
tp824
a(g31
g31
tp825
a(g142
VNN
p826
tp827
a(g145
VPOS
p828
tp829
a(g195
VNN
p830
tp831
a(g216
VNN
p832
tp833
a(g682
VNN
p834
tp835
a(g171
VNN
p836
tp837
a(g145
V''
p838
tp839
a(g31
g31
tp840
a(g142
VNN
p841
tp842
a(g145
VPOS
p843
tp844
a(g308
VNN
p845
tp846
a(g270
VNN
p847
tp848
a(g216
VNN
p849
tp850
a(g163
g132
tp851
a(g202
VLS
p852
tp853
a(g145
V''
p854
tp855
a(g31
g31
tp856
a(g142
VNN
p857
tp858
a(g145
V''
p859
tp860
a(g315
VNN
p861
tp862
a(g169
VFW
p863
tp864
a(g285
VFW
p865
tp866
a(g171
VNN
p867
tp868
a(g145
V''
p869
tp870
a(g31
g31
tp871
a(g142
VNN
p872
tp873
a(g145
VPOS
p874
tp875
a(g315
VNN
p876
tp877
a(g216
VNN
p878
tp879
a(g195
VNN
p880
tp881
a(g216
VNN
p882
tp883
a(g213
VNN
p884
tp885
a(g682
VNN
p886
tp887
a(g169
VDT
p888
tp889
a(g149
VNN
p890
tp891
a(g163
VNN
p892
tp893
a(g27
g27
tp894
a(g145
V''
p895
tp896
a(g31
g31
tp897
a(g142
VNN
p898
tp899
a(g145
VPOS
p900
tp901
a(VA
p902
VNN
p903
tp904
a(g145
V''
p905
tp906
a(g31
g31
tp907
a(g142
VNN
p908
tp909
a(g145
VPOS
p910
tp911
a(g270
VNN
p912
tp913
a(g216
VNN
p914
tp915
a(g349
VLS
p916
tp917
a(g202
VLS
p918
tp919
a(g270
VNN
p920
tp921
a(g149
VNN
p922
tp923
a(g145
V''
p924
tp925
a(g31
g31
tp926
a(g142
VNN
p927
tp928
a(g145
VPOS
p929
tp930
a(g501
VNN
p931
tp932
a(g270
VNN
p933
tp934
a(g169
VDT
p935
tp936
a(g308
VNN
p937
tp938
a(g202
VSYM
p939
tp940
a(g145
V''
p941
tp942
a(g31
g31
tp943
a(g142
VNN
p944
tp945
a(g145
V''
p946
tp947
a(g184
VPRP
p948
tp949
a(g145
V''
p950
tp951
a(g31
g31
tp952
a(g142
VNN
p953
tp954
a(g145
VPOS
p955
tp956
a(g682
VNN
p957
tp958
a(g216
VNN
p959
tp960
a(g142
VNN
p961
tp962
a(g270
VNN
p963
tp964
a(g174
VNN
p965
tp966
a(g145
V''
p967
tp968
a(g31
g31
tp969
a(g142
VNN
p970
tp971
a(g145
VPOS
p972
tp973
a(g213
VNN
p974
tp975
a(g202
VSYM
p976
tp977
a(g308
VNN
p978
tp979
a(g216
VNN
p980
tp981
a(g315
VNN
p982
tp983
a(g315
VNN
p984
tp985
a(g202
VSYM
p986
tp987
a(g171
VNN
p988
tp989
a(g174
VNN
p990
tp991
a(g27
g27
tp992
a(g145
V''
p993
tp994
a(g31
g31
tp995
a(g142
VNN
p996
tp997
a(g145
VPOS
p998
tp999
a(VO
p1000
VNN
p1001
tp1002
a(g171
VNN
p1003
tp1004
a(g202
VSYM
p1005
tp1006
a(g145
V''
p1007
tp1008
a(g31
g31
tp1009
a(g142
VNN
p1010
tp1011
a(g145
VPOS
p1012
tp1013
a(g501
VNN
p1014
tp1015
a(g270
VNN
p1016
tp1017
a(g142
VNN
p1018
tp1019
a(g296
VNN
p1020
tp1021
a(g145
V''
p1022
tp1023
a(g31
g31
tp1024
a(g142
VNN
p1025
tp1026
a(g145
VPOS
p1027
tp1028
a(g213
VNN
p1029
tp1030
a(g202
VSYM
p1031
tp1032
a(g308
VLS
p1033
tp1034
a(g202
VLS
p1035
tp1036
a(g501
VNN
p1037
tp1038
a(g195
VNN
p1039
tp1040
a(g285
VFW
p1041
tp1042
a(g216
VNN
p1043
tp1044
a(g171
VNN
p1045
tp1046
a(g145
V''
p1047
tp1048
a(g31
g31
tp1049
a(g142
VNN
p1050
tp1051
a(g145
V''
p1052
tp1053
a(g315
VNN
p1054
tp1055
a(g169
VDT
p1056
tp1057
a(g171
VNN
p1058
tp1059
a(g169
VDT
p1060
tp1061
a(g296
VNN
p1062
tp1063
a(g202
VSYM
p1064
tp1065
a(g213
VNN
p1066
tp1067
a(g145
V''
p1068
tp1069
a(g31
g31
tp1070
a(g142
VNN
p1071
tp1072
a(g145
V''
p1073
tp1074
a(g202
VLS
p1075
tp1076
a(Vx
p1077
VNN
p1078
tp1079
a(g195
VNN
p1080
tp1081
a(g213
VNN
p1082
tp1083
a(g202
VSYM
p1084
tp1085
a(g315
VNN
p1086
tp1087
a(g202
VSYM
p1088
tp1089
a(g270
VNN
p1090
tp1091
a(g149
VNN
p1092
tp1093
a(g145
V''
p1094
tp1095
a(g31
g31
tp1096
a(g142
VNN
p1097
tp1098
a(g145
VPOS
p1099
tp1100
a(g171
VNN
p1101
tp1102
a(g285
VLS
p1103
tp1104
a(g308
VNN
p1105
tp1106
a(g202
VSYM
p1107
tp1108
a(g145
V''
p1109
tp1110
a(g31
g31
tp1111
a(g142
VNN
p1112
tp1113
a(g145
V''
p1114
tp1115
a(g27
g27
tp1116
a(g145
V''
p1117
tp1118
a(V]
p1119
VNN
p1120
tp1121
asS'tagged_title'
p1122
(lp1123
(g140
VFW
p1124
tp1125
a(g142
VFW
p1126
tp1127
a(g145
VPOS
p1128
tp1129
a(VV
p1130
VNN
p1131
tp1132
a(g202
VSYM
p1133
tp1134
a(g213
VNN
p1135
tp1136
a(g149
VNN
p1137
tp1138
a(g145
V''
p1139
tp1140
a(g31
g31
tp1141
a(g142
VNN
p1142
tp1143
a(g145
VPOS
p1144
tp1145
a(g171
VNN
p1146
tp1147
a(g285
VLS
p1148
tp1149
a(g308
VNN
p1150
tp1151
a(g202
VSYM
p1152
tp1153
a(g145
V''
p1154
tp1155
a(g31
g31
tp1156
a(g142
VNN
p1157
tp1158
a(g145
VPOS
p1159
tp1160
a(g308
VNN
p1161
tp1162
a(g270
VNN
p1163
tp1164
a(g202
VSYM
p1165
tp1166
a(g169
VDT
p1167
tp1168
a(g171
VNN
p1169
tp1170
a(g145
V''
p1171
tp1172
a(g31
g31
tp1173
a(g142
VNN
p1174
tp1175
a(g145
VPOS
p1176
tp1177
a(g158
VNN
p1178
tp1179
a(g216
VNN
p1180
tp1181
a(g195
VNN
p1182
tp1183
a(g202
VSYM
p1184
tp1185
a(g270
VNN
p1186
tp1187
a(g145
V''
p1188
tp1189
a(g1119
VNN
p1190
tp1191
asVtotal_points
p1192
V100
p1193
sVdate
p1194
V10/11/2012
p1195
sVtaObjectUrl
p1196
Vhttp://www.tripadvisor.com/Hotel_Review-g186300-d1675382-Reviews-Holiday_Inn_Winchester-Winchester_Hampshire_England.html
p1197
sVtype
p1198
VHotels
p1199
sS'pos_unigram'
p1200
(lp1201
g126
ag143
ag128
ag125
ag150
ag129
ag31
ag154
ag156
ag159
ag161
ag164
ag167
ag133
ag172
ag175
ag177
ag31
ag180
ag182
ag131
ag186
ag31
ag189
ag191
ag193
ag196
ag198
ag200
ag134
ag204
ag206
ag31
ag209
ag211
ag214
ag217
ag219
ag221
ag127
ag224
ag31
ag227
ag229
ag232
ag234
ag236
ag238
ag27
ag241
ag31
ag244
ag246
ag249
ag251
ag253
ag31
ag256
ag258
ag260
ag262
ag264
ag266
ag268
ag271
ag273
ag275
ag31
ag278
ag280
ag283
ag286
ag288
ag290
ag292
ag294
ag297
ag299
ag31
ag302
ag304
ag306
ag309
ag311
ag313
ag316
ag318
ag320
ag322
ag324
ag326
ag328
ag330
ag332
ag334
ag31
ag337
ag339
ag341
ag343
ag345
ag347
ag350
ag352
ag354
ag356
ag31
ag359
ag361
ag364
ag366
ag368
ag370
ag372
ag374
ag376
ag378
ag31
ag381
ag383
ag385
ag387
ag389
ag391
ag31
ag394
ag396
ag398
ag400
ag402
ag404
ag31
ag407
ag409
ag411
ag413
ag415
ag417
ag419
ag31
ag422
ag424
ag426
ag428
ag430
ag432
ag434
ag31
ag437
ag439
ag441
ag443
ag445
ag448
ag27
ag451
ag31
ag454
ag456
ag459
ag461
ag463
ag465
ag31
ag468
ag470
ag472
ag474
ag476
ag478
ag480
ag482
ag484
ag486
ag31
ag489
ag491
ag493
ag495
ag497
ag499
ag502
ag504
ag506
ag508
ag510
ag512
ag31
ag515
ag517
ag519
ag521
ag523
ag525
ag527
ag31
ag530
ag532
ag534
ag536
ag538
ag540
ag542
ag544
ag546
ag548
ag550
ag31
ag553
ag555
ag31
ag558
ag31
ag561
ag563
ag565
ag567
ag569
ag571
ag573
ag575
ag577
ag579
ag581
ag583
ag585
ag31
ag588
ag590
ag592
ag594
ag596
ag598
ag600
ag602
ag31
ag605
ag607
ag609
ag611
ag613
ag27
ag616
ag31
ag619
ag621
ag623
ag625
ag627
ag629
ag31
ag632
ag634
ag636
ag638
ag640
ag642
ag644
ag646
ag31
ag649
ag651
ag653
ag655
ag657
ag659
ag661
ag663
ag31
ag666
ag668
ag31
ag671
ag31
ag674
ag676
ag678
ag680
ag683
ag685
ag31
ag688
ag690
ag31
ag693
ag31
ag696
ag698
ag700
ag702
ag704
ag706
ag708
ag710
ag712
ag714
ag716
ag31
ag719
ag721
ag724
ag726
ag728
ag730
ag732
ag27
ag735
ag31
ag738
ag740
ag743
ag745
ag747
ag749
ag751
ag753
ag755
ag757
ag31
ag760
ag762
ag764
ag766
ag768
ag770
ag772
ag31
ag775
ag777
ag130
ag781
ag783
ag785
ag787
ag31
ag790
ag792
ag794
ag796
ag798
ag800
ag802
ag804
ag31
ag807
ag809
ag811
ag813
ag815
ag817
ag819
ag821
ag823
ag31
ag826
ag828
ag830
ag832
ag834
ag836
ag838
ag31
ag841
ag843
ag845
ag847
ag849
ag132
ag852
ag854
ag31
ag857
ag859
ag861
ag863
ag865
ag867
ag869
ag31
ag872
ag874
ag876
ag878
ag880
ag882
ag884
ag886
ag888
ag890
ag892
ag27
ag895
ag31
ag898
ag900
ag903
ag905
ag31
ag908
ag910
ag912
ag914
ag916
ag918
ag920
ag922
ag924
ag31
ag927
ag929
ag931
ag933
ag935
ag937
ag939
ag941
ag31
ag944
ag946
ag948
ag950
ag31
ag953
ag955
ag957
ag959
ag961
ag963
ag965
ag967
ag31
ag970
ag972
ag974
ag976
ag978
ag980
ag982
ag984
ag986
ag988
ag990
ag27
ag993
ag31
ag996
ag998
ag1001
ag1003
ag1005
ag1007
ag31
ag1010
ag1012
ag1014
ag1016
ag1018
ag1020
ag1022
ag31
ag1025
ag1027
ag1029
ag1031
ag1033
ag1035
ag1037
ag1039
ag1041
ag1043
ag1045
ag1047
ag31
ag1050
ag1052
ag1054
ag1056
ag1058
ag1060
ag1062
ag1064
ag1066
ag1068
ag31
ag1071
ag1073
ag1075
ag1078
ag1080
ag1082
ag1084
ag1086
ag1088
ag1090
ag1092
ag1094
ag31
ag1097
ag1099
ag1101
ag1103
ag1105
ag1107
ag1109
ag31
ag1112
ag1114
ag27
ag1117
ag1120
asVhelpfulness
p1202
V0
p1203
sVtaObjectCity
p1204
VWinchester
p1205
s.(dp0
Vrating
p1
V4
p2
sVtext
p3
VWe picked this hotel because of its location and we were very happy. However upon arrival our room was so small we couldn&acute;t fit in with 2adults, 2 suitcases and 2 carry on bags. It was tiny and not a very nice view. Not a problem though, the staff moved us straight away to a beautiful top floor room with plenty of space. I feel sorry for anyone who gets stuck in the first room!!! The Mornington is close to tube station, Hyde Park, lovely shopping centre and little quirky pubs. Would recommend as the staff truly were very nice and the decor etc is lovely.
p4
sS'title_length'
p5
I566
sS'bigram_counts'
p6
ccollections
Counter
p7
((dp8
(Vus
p9
Vstraight
p10
tp11
I1
s(Vroom
p12
V!
p13
tp14
I1
s(Vacute
p15
V;
p16
tp17
I1
s(V2
p18
Vsuitcases
p19
tp20
I1
s(Vstaff
p21
Vtruly
p22
tp23
I1
s(V2adults
p24
V,
p25
tp26
I1
s(Vcarry
p27
Vbags.
p28
tp29
I1
s(Vproblem
p30
Vthough
p31
tp32
I1
s(Vwould
p33
Vrecommend
p34
tp35
I1
s(Vaway
p36
Vbeautiful
p37
tp38
I1
s(Vfit
p39
g24
tp40
I1
s(Vhowever
p41
Vupon
p42
tp43
I1
s(Vetc
p44
Vlovely
p45
tp46
I1
s(Vmoved
p47
g9
tp48
I1
s(g10
g36
tp49
I1
s(Vtop
p50
Vfloor
p51
tp52
I1
s(g28
Vtiny
p53
tp54
I1
s(Vnice
p55
Vview.
p56
tp57
I1
s(Vplenty
p58
Vspace.
p59
tp60
I1
s(Vstaff
p61
g47
tp62
I1
s(Vmornington
p63
Vclose
p64
tp65
I1
s(Varrival
p66
Vroom
p67
tp68
I1
s(Vnice
p69
Vdecor
p70
tp71
I1
s(Vhotel
p72
Vlocation
p73
tp74
I1
s(g73
Vhappy.
p75
tp76
I1
s(Vlittle
p77
Vquirky
p78
tp79
I1
s(V&
p80
g15
tp81
I1
s(g51
Vroom
p82
tp83
I1
s(g25
g18
tp84
I1
s(Vsorry
p85
Vanyone
p86
tp87
I1
s(g16
g39
tp88
I1
s(g70
g44
tp89
I1
s(Vhyde
p90
Vpark
p91
tp92
I1
s(g53
g55
tp93
I1
s(g56
g30
tp94
I1
s(g25
Vlovely
p95
tp96
I1
s(g18
g27
tp97
I1
s(g13
g63
tp98
I1
s(g78
Vpubs.
p99
tp100
I1
s(Vshopping
p101
Vcentre
p102
tp103
I1
s(g13
g13
tp104
I2
s(g91
g25
tp105
I1
s(g31
g25
tp106
I1
s(g67
Vsmall
p107
tp108
I1
s(Vfirst
p109
g12
tp110
I1
s(Vpicked
p111
g72
tp112
I1
s(g99
g33
tp113
I1
s(g25
g61
tp114
I1
s(g22
g69
tp115
I1
s(g86
Vgets
p116
tp117
I1
s(g95
g101
tp118
I1
s(g75
g41
tp119
I1
s(g59
Vfeel
p120
tp121
I1
s(g102
g77
tp122
I1
s(g64
Vtube
p123
tp124
I1
s(g45
V.
p125
tp126
I1
s(g123
Vstation
p127
tp128
I1
s(Vstuck
p129
g109
tp130
I1
s(g19
g18
tp131
I1
s(g127
g25
tp132
I1
s(g82
g58
tp133
I1
s(g25
g90
tp134
I1
s(g34
g21
tp135
I1
s(g107
g80
tp136
I1
s(g42
g66
tp137
I1
s(g116
g129
tp138
I1
s(g37
g50
tp139
I1
s(g120
g85
tp140
I1
stp141
Rp142
sS'rev_unigrams'
p143
(lp144
g111
ag72
ag73
ag75
ag41
ag42
ag66
ag67
ag107
ag80
ag15
ag16
ag39
ag24
ag25
ag18
ag19
ag18
ag27
ag28
ag53
ag55
ag56
ag30
ag31
ag25
ag61
ag47
ag9
ag10
ag36
ag37
ag50
ag51
ag82
ag58
ag59
ag120
ag85
ag86
ag116
ag129
ag109
ag12
ag13
ag13
ag13
ag63
ag64
ag123
ag127
ag25
ag90
ag91
ag25
ag95
ag101
ag102
ag77
ag78
ag99
ag33
ag34
ag21
ag22
ag69
ag70
ag44
ag45
ag125
asVid
p145
V87
p146
sVtaObject
p147
VBEST WESTERN Mornington Hotel
p148
sVtitle
p149
VVery nice hotel
p150
sS'unigram_counts'
p151
g7
((dp152
g37
I1
sg28
I1
sg63
I1
sg75
I1
sg120
I1
sg50
I1
sg47
I1
sg90
I1
sg24
I1
sg111
I1
sg27
I1
sg64
I1
sg56
I1
sg61
I2
sg13
I3
sg77
I1
sg33
I1
sg80
I1
sg36
I1
sg102
I1
sg25
I4
sg53
I1
sg125
I1
sg86
I1
sg129
I1
sg127
I1
sg73
I1
sg34
I1
sg78
I1
sg16
I1
sg116
I1
sg55
I2
sg66
I1
sg101
I1
sg31
I1
sg42
I1
sg72
I1
sg91
I1
sg70
I1
sg59
I1
sg41
I1
sg58
I1
sg99
I1
sg18
I2
sg22
I1
sg85
I1
sg67
I3
sg15
I1
sg95
I2
sg39
I1
sg10
I1
sg51
I1
sg9
I1
sg44
I1
sg19
I1
sg107
I1
sg30
I1
sg123
I1
sg109
I1
stp153
Rp154
sS'rev_bigrams'
p155
(lp156
g112
ag74
ag76
ag119
ag43
ag137
ag68
ag108
ag136
ag81
ag17
ag88
ag40
ag26
ag84
ag20
ag131
ag97
ag29
ag54
ag93
ag57
ag94
ag32
ag106
ag114
ag62
ag48
ag11
ag49
ag38
ag139
ag52
ag83
ag133
ag60
ag121
ag140
ag87
ag117
ag138
ag130
ag110
ag14
ag104
a(g13
g13
tp157
ag98
ag65
ag124
ag128
ag132
ag134
ag92
ag105
ag96
ag118
ag103
ag122
ag79
ag100
ag113
ag35
ag135
ag23
ag115
ag71
ag89
ag46
ag126
asS'pos_count'
p158
ccollections
defaultdict
p159
(c__builtin__
int
p160
tp161
Rp162
V:
p163
I1
sVNN
p164
I300
sVFW
p165
I33
sVCC
p166
I1
sg25
I78
sVSYM
p167
I21
sVPOS
p168
I49
sV''
p169
I101
sVCD
p170
I3
sVLS
p171
I22
sVVBZ
p172
I1
sVDT
p173
I18
sg125
I9
sVNNS
p174
I1
sVPRP
p175
I1
ssS'rev_length'
p176
I566
sVusername
p177
V124_10
p178
sS'tagged_text'
p179
(lp180
(V[
p181
g165
tp182
a(Vu
p183
VFW
p184
tp185
a(V'
p186
g168
tp187
a(VW
p188
g164
tp189
a(Ve
p190
g167
tp191
a(g186
g169
tp192
a(g25
g25
tp193
a(g183
VNN
p194
tp195
a(g186
VPOS
p196
tp197
a(Vp
p198
VNN
p199
tp200
a(Vi
p201
VFW
p202
tp203
a(Vc
p204
VNN
p205
tp206
a(Vk
p207
VNN
p208
tp209
a(g190
VSYM
p210
tp211
a(Vd
p212
VFW
p213
tp214
a(g186
V''
p215
tp216
a(g25
g25
tp217
a(g183
VNN
p218
tp219
a(g186
VPOS
p220
tp221
a(Vh
p222
VNN
p223
tp224
a(Vo
p225
VNN
p226
tp227
a(Vt
p228
VNN
p229
tp230
a(g190
VSYM
p231
tp232
a(Vl
p233
VNN
p234
tp235
a(g186
V''
p236
tp237
a(g25
g25
tp238
a(g183
VNN
p239
tp240
a(g186
VPOS
p241
tp242
a(g233
VNN
p243
tp244
a(g225
VNN
p245
tp246
a(g204
VNN
p247
tp248
a(Va
p249
g173
tp250
a(g228
VNN
p251
tp252
a(g201
VFW
p253
tp254
a(g225
VNN
p255
tp256
a(Vn
p257
VNN
p258
tp259
a(g186
V''
p260
tp261
a(g25
g25
tp262
a(g183
VNN
p263
tp264
a(g186
V''
p265
tp266
a(g222
VNN
p267
tp268
a(g249
VDT
p269
tp270
a(g198
VNN
p271
tp272
a(g198
VNN
p273
tp274
a(Vy
p275
VNN
p276
tp277
a(g125
g125
tp278
a(g186
V''
p279
tp280
a(g25
g25
tp281
a(g183
VNN
p282
tp283
a(g186
VPOS
p284
tp285
a(VH
p286
VNN
p287
tp288
a(g225
VNN
p289
tp290
a(Vw
p291
VNN
p292
tp293
a(g190
VSYM
p294
tp295
a(Vv
p296
g171
tp297
a(g190
VLS
p298
tp299
a(Vr
p300
VNN
p301
tp302
a(g186
V''
p303
tp304
a(g25
g25
tp305
a(g183
VNN
p306
tp307
a(g186
VPOS
p308
tp309
a(g183
VNN
p310
tp311
a(g198
VNN
p312
tp313
a(g225
VNN
p314
tp315
a(g257
VNN
p316
tp317
a(g186
V''
p318
tp319
a(g25
g25
tp320
a(g183
VNN
p321
tp322
a(g186
V''
p323
tp324
a(g249
VDT
p325
tp326
a(g300
VNN
p327
tp328
a(g300
VNN
p329
tp330
a(g201
VFW
p331
tp332
a(g296
VLS
p333
tp334
a(g249
VDT
p335
tp336
a(g233
VNN
p337
tp338
a(g186
V''
p339
tp340
a(g25
g25
tp341
a(g183
VNN
p342
tp343
a(g186
VPOS
p344
tp345
a(g300
VNN
p346
tp347
a(g225
VNN
p348
tp349
a(g225
VNN
p350
tp351
a(Vm
p352
VNN
p353
tp354
a(g186
V''
p355
tp356
a(g25
g25
tp357
a(g183
VNN
p358
tp359
a(g186
VPOS
p360
tp361
a(Vs
p362
VNN
p363
tp364
a(g352
VNN
p365
tp366
a(g249
VDT
p367
tp368
a(g233
VNN
p369
tp370
a(g233
VNN
p371
tp372
a(g186
V''
p373
tp374
a(g25
g25
tp375
a(g183
VNN
p376
tp377
a(g186
V''
p378
tp379
a(g80
g166
tp380
a(g186
V''
p381
tp382
a(g25
g25
tp383
a(g183
VNN
p384
tp385
a(g186
V''
p386
tp387
a(g249
VDT
p388
tp389
a(g204
VNN
p390
tp391
a(g183
VNN
p392
tp393
a(g228
VNN
p394
tp395
a(g190
VSYM
p396
tp397
a(g186
V''
p398
tp399
a(g25
g25
tp400
a(g183
VNN
p401
tp402
a(g186
V''
p403
tp404
a(g16
g163
tp405
a(g186
V''
p406
tp407
a(g25
g25
tp408
a(g183
VNN
p409
tp410
a(g186
V''
p411
tp412
a(Vf
p413
VFW
p414
tp415
a(g201
VFW
p416
tp417
a(g228
VNN
p418
tp419
a(g186
V''
p420
tp421
a(g25
g25
tp422
a(g183
VNN
p423
tp424
a(g186
V''
p425
tp426
a(g18
g170
tp427
a(g249
VDT
p428
tp429
a(g212
VNN
p430
tp431
a(g183
VNN
p432
tp433
a(g233
VNN
p434
tp435
a(g228
VNN
p436
tp437
a(g362
VNN
p438
tp439
a(g186
V''
p440
tp441
a(g25
g25
tp442
a(g183
VNN
p443
tp444
a(g186
V''
p445
tp446
a(g25
g25
tp447
a(g186
V''
p448
tp449
a(g25
g25
tp450
a(g183
VNN
p451
tp452
a(g186
V''
p453
tp454
a(g18
VCD
p455
tp456
a(g186
V''
p457
tp458
a(g25
g25
tp459
a(g183
VNN
p460
tp461
a(g186
VPOS
p462
tp463
a(g362
VNN
p464
tp465
a(g183
VFW
p466
tp467
a(g201
VFW
p468
tp469
a(g228
VNN
p470
tp471
a(g204
VNN
p472
tp473
a(g249
VDT
p474
tp475
a(g362
VNN
p476
tp477
a(g190
VSYM
p478
tp479
a(g362
g174
tp480
a(g186
VPOS
p481
tp482
a(g25
g25
tp483
a(g183
VNN
p484
tp485
a(g186
V''
p486
tp487
a(g18
VCD
p488
tp489
a(g186
V''
p490
tp491
a(g25
g25
tp492
a(g183
VNN
p493
tp494
a(g186
VPOS
p495
tp496
a(g204
VNN
p497
tp498
a(g249
VDT
p499
tp500
a(g300
VNN
p501
tp502
a(g300
VNN
p503
tp504
a(g275
VNN
p505
tp506
a(g186
V''
p507
tp508
a(g25
g25
tp509
a(g183
VNN
p510
tp511
a(g186
VPOS
p512
tp513
a(Vb
p514
VNN
p515
tp516
a(g249
VDT
p517
tp518
a(Vg
p519
VNN
p520
tp521
a(g362
VNN
p522
tp523
a(g125
g125
tp524
a(g186
V''
p525
tp526
a(g25
g25
tp527
a(g183
VNN
p528
tp529
a(g186
VPOS
p530
tp531
a(VI
p532
VNN
p533
tp534
a(g228
VNN
p535
tp536
a(g186
V''
p537
tp538
a(g25
g25
tp539
a(g183
VNN
p540
tp541
a(g186
VPOS
p542
tp543
a(g228
VNN
p544
tp545
a(g201
VFW
p546
tp547
a(g257
VNN
p548
tp549
a(g275
VNN
p550
tp551
a(g186
V''
p552
tp553
a(g25
g25
tp554
a(g183
VNN
p555
tp556
a(g186
VPOS
p557
tp558
a(g257
VNN
p559
tp560
a(g201
VLS
p561
tp562
a(g204
VNN
p563
tp564
a(g190
VSYM
p565
tp566
a(g186
V''
p567
tp568
a(g25
g25
tp569
a(g183
VNN
p570
tp571
a(g186
V''
p572
tp573
a(g296
VLS
p574
tp575
a(g201
VLS
p576
tp577
a(g190
VLS
p578
tp579
a(g291
VNN
p580
tp581
a(g125
g125
tp582
a(g186
V''
p583
tp584
a(g25
g25
tp585
a(g183
VNN
p586
tp587
a(g186
VPOS
p588
tp589
a(VN
p590
VNN
p591
tp592
a(g225
VNN
p593
tp594
a(g228
VNN
p595
tp596
a(g186
V''
p597
tp598
a(g25
g25
tp599
a(g183
VNN
p600
tp601
a(g186
VPOS
p602
tp603
a(g198
VNN
p604
tp605
a(g300
VNN
p606
tp607
a(g225
VNN
p608
tp609
a(g514
VNN
p610
tp611
a(g233
VNN
p612
tp613
a(g190
VSYM
p614
tp615
a(g352
VNN
p616
tp617
a(g186
V''
p618
tp619
a(g25
g25
tp620
a(g183
VNN
p621
tp622
a(g186
VPOS
p623
tp624
a(g228
VNN
p625
tp626
a(g222
VNN
p627
tp628
a(g225
VNN
p629
tp630
a(g183
VNN
p631
tp632
a(g519
VNN
p633
tp634
a(g222
VNN
p635
tp636
a(g186
V''
p637
tp638
a(g25
g25
tp639
a(g183
VNN
p640
tp641
a(g186
V''
p642
tp643
a(g25
g25
tp644
a(g186
V''
p645
tp646
a(g25
g25
tp647
a(g183
VNN
p648
tp649
a(g186
VPOS
p650
tp651
a(g362
VNN
p652
tp653
a(g228
VNN
p654
tp655
a(g249
VDT
p656
tp657
a(g413
VFW
p658
tp659
a(g413
VFW
p660
tp661
a(g186
V''
p662
tp663
a(g25
g25
tp664
a(g183
VNN
p665
tp666
a(g186
VPOS
p667
tp668
a(g352
VNN
p669
tp670
a(g225
VNN
p671
tp672
a(g296
VLS
p673
tp674
a(g190
VLS
p675
tp676
a(g212
VNN
p677
tp678
a(g186
V''
p679
tp680
a(g25
g25
tp681
a(g183
VNN
p682
tp683
a(g186
VPOS
p684
tp685
a(g183
VNN
p686
tp687
a(g362
VNN
p688
tp689
a(g186
V''
p690
tp691
a(g25
g25
tp692
a(g183
VNN
p693
tp694
a(g186
VPOS
p695
tp696
a(g362
VNN
p697
tp698
a(g228
VNN
p699
tp700
a(g300
VNN
p701
tp702
a(g249
VFW
p703
tp704
a(g201
VFW
p705
tp706
a(g519
VNN
p707
tp708
a(g222
VNN
p709
tp710
a(g228
VNN
p711
tp712
a(g186
V''
p713
tp714
a(g25
g25
tp715
a(g183
VNN
p716
tp717
a(g186
V''
p718
tp719
a(g249
VDT
p720
tp721
a(g291
VNN
p722
tp723
a(g249
VDT
p724
tp725
a(g275
VNN
p726
tp727
a(g186
V''
p728
tp729
a(g25
g25
tp730
a(g183
VNN
p731
tp732
a(g186
VPOS
p733
tp734
a(g514
VNN
p735
tp736
a(g190
VSYM
p737
tp738
a(g249
VFW
p739
tp740
a(g183
VFW
p741
tp742
a(g228
VNN
p743
tp744
a(g201
VFW
p745
tp746
a(g413
VFW
p747
tp748
a(g183
VFW
p749
tp750
a(g233
VNN
p751
tp752
a(g186
V''
p753
tp754
a(g25
g25
tp755
a(g183
VNN
p756
tp757
a(g186
VPOS
p758
tp759
a(g228
VNN
p760
tp761
a(g225
VNN
p762
tp763
a(g198
VNN
p764
tp765
a(g186
V''
p766
tp767
a(g25
g25
tp768
a(g183
VNN
p769
tp770
a(g186
V''
p771
tp772
a(g413
VLS
p773
tp774
a(g233
VNN
p775
tp776
a(g225
VNN
p777
tp778
a(g225
VNN
p779
tp780
a(g300
VNN
p781
tp782
a(g186
V''
p783
tp784
a(g25
g25
tp785
a(g183
VNN
p786
tp787
a(g186
VPOS
p788
tp789
a(g300
VNN
p790
tp791
a(g225
VNN
p792
tp793
a(g225
VNN
p794
tp795
a(g352
VNN
p796
tp797
a(g186
V''
p798
tp799
a(g25
g25
tp800
a(g183
VNN
p801
tp802
a(g186
VPOS
p803
tp804
a(g198
VNN
p805
tp806
a(g233
VNN
p807
tp808
a(g190
VSYM
p809
tp810
a(g257
VNN
p811
tp812
a(g228
VNN
p813
tp814
a(g275
VNN
p815
tp816
a(g186
V''
p817
tp818
a(g25
g25
tp819
a(g183
VNN
p820
tp821
a(g186
VPOS
p822
tp823
a(g362
VNN
p824
tp825
a(g198
VNN
p826
tp827
a(g249
VDT
p828
tp829
a(g204
VNN
p830
tp831
a(g190
VLS
p832
tp833
a(g125
g125
tp834
a(g186
V''
p835
tp836
a(g25
g25
tp837
a(g183
VNN
p838
tp839
a(g186
V''
p840
tp841
a(g532
g175
tp842
a(g186
V''
p843
tp844
a(g25
g25
tp845
a(g183
VNN
p846
tp847
a(g186
V''
p848
tp849
a(g413
VLS
p850
tp851
a(g190
VLS
p852
tp853
a(g190
VLS
p854
tp855
a(g233
VNN
p856
tp857
a(g186
V''
p858
tp859
a(g25
g25
tp860
a(g183
VNN
p861
tp862
a(g186
VPOS
p863
tp864
a(g362
VNN
p865
tp866
a(g225
VNN
p867
tp868
a(g300
VNN
p869
tp870
a(g300
VNN
p871
tp872
a(g275
VNN
p873
tp874
a(g186
V''
p875
tp876
a(g25
g25
tp877
a(g183
VNN
p878
tp879
a(g186
V''
p880
tp881
a(g249
VDT
p882
tp883
a(g257
VNN
p884
tp885
a(g275
VNN
p886
tp887
a(g225
VNN
p888
tp889
a(g257
VNN
p890
tp891
a(g190
VSYM
p892
tp893
a(g186
V''
p894
tp895
a(g25
g25
tp896
a(g183
VNN
p897
tp898
a(g186
VPOS
p899
tp900
a(g519
VNN
p901
tp902
a(g190
VSYM
p903
tp904
a(g228
VNN
p905
tp906
a(g362
VNN
p907
tp908
a(g186
V''
p909
tp910
a(g25
g25
tp911
a(g183
VNN
p912
tp913
a(g186
VPOS
p914
tp915
a(g362
VNN
p916
tp917
a(g228
VNN
p918
tp919
a(g183
VNN
p920
tp921
a(g204
VNN
p922
tp923
a(g207
VNN
p924
tp925
a(g186
V''
p926
tp927
a(g25
g25
tp928
a(g183
VNN
p929
tp930
a(g186
V''
p931
tp932
a(g413
VFW
p933
tp934
a(g201
VFW
p935
tp936
a(g300
VNN
p937
tp938
a(g362
VNN
p939
tp940
a(g228
VNN
p941
tp942
a(g186
V''
p943
tp944
a(g25
g25
tp945
a(g183
VNN
p946
tp947
a(g186
VPOS
p948
tp949
a(g300
VNN
p950
tp951
a(g225
VNN
p952
tp953
a(g225
VNN
p954
tp955
a(g352
VNN
p956
tp957
a(g186
V''
p958
tp959
a(g25
g25
tp960
a(g183
VNN
p961
tp962
a(g186
V''
p963
tp964
a(g13
g125
tp965
a(g186
V''
p966
tp967
a(g25
g25
tp968
a(g183
VNN
p969
tp970
a(g186
V''
p971
tp972
a(g13
g125
tp973
a(g186
V''
p974
tp975
a(g25
g25
tp976
a(g183
VNN
p977
tp978
a(g186
V''
p979
tp980
a(g13
g125
tp981
a(g186
V''
p982
tp983
a(g25
g25
tp984
a(g183
VNN
p985
tp986
a(g186
VPOS
p987
tp988
a(VT
p989
VNN
p990
tp991
a(g222
VNN
p992
tp993
a(g190
VSYM
p994
tp995
a(g186
V''
p996
tp997
a(g25
g25
tp998
a(g183
VNN
p999
tp1000
a(g186
VPOS
p1001
tp1002
a(VM
p1003
VNN
p1004
tp1005
a(g225
VNN
p1006
tp1007
a(g300
VNN
p1008
tp1009
a(g257
VNN
p1010
tp1011
a(g201
VFW
p1012
tp1013
a(g257
VNN
p1014
tp1015
a(g519
VNN
p1016
tp1017
a(g228
VNN
p1018
tp1019
a(g225
VNN
p1020
tp1021
a(g257
VNN
p1022
tp1023
a(g186
V''
p1024
tp1025
a(g25
g25
tp1026
a(g183
VNN
p1027
tp1028
a(g186
VPOS
p1029
tp1030
a(g204
VNN
p1031
tp1032
a(g233
VNN
p1033
tp1034
a(g225
VNN
p1035
tp1036
a(g362
g172
tp1037
a(g190
VLS
p1038
tp1039
a(g186
V''
p1040
tp1041
a(g25
g25
tp1042
a(g183
VNN
p1043
tp1044
a(g186
VPOS
p1045
tp1046
a(g228
VNN
p1047
tp1048
a(g183
VNN
p1049
tp1050
a(g514
VNN
p1051
tp1052
a(g190
VSYM
p1053
tp1054
a(g186
V''
p1055
tp1056
a(g25
g25
tp1057
a(g183
VNN
p1058
tp1059
a(g186
VPOS
p1060
tp1061
a(g362
VNN
p1062
tp1063
a(g228
VNN
p1064
tp1065
a(g249
VDT
p1066
tp1067
a(g228
VNN
p1068
tp1069
a(g201
VFW
p1070
tp1071
a(g225
VNN
p1072
tp1073
a(g257
VNN
p1074
tp1075
a(g186
V''
p1076
tp1077
a(g25
g25
tp1078
a(g183
VNN
p1079
tp1080
a(g186
V''
p1081
tp1082
a(g25
g25
tp1083
a(g186
V''
p1084
tp1085
a(g25
g25
tp1086
a(g183
VNN
p1087
tp1088
a(g186
VPOS
p1089
tp1090
a(g286
VNN
p1091
tp1092
a(g275
VFW
p1093
tp1094
a(g212
VFW
p1095
tp1096
a(g190
VLS
p1097
tp1098
a(g186
V''
p1099
tp1100
a(g25
g25
tp1101
a(g183
VNN
p1102
tp1103
a(g186
V''
p1104
tp1105
a(VP
p1106
VNN
p1107
tp1108
a(g249
VDT
p1109
tp1110
a(g300
VNN
p1111
tp1112
a(g207
VNN
p1113
tp1114
a(g186
V''
p1115
tp1116
a(g25
g25
tp1117
a(g183
VNN
p1118
tp1119
a(g186
V''
p1120
tp1121
a(g25
g25
tp1122
a(g186
V''
p1123
tp1124
a(g25
g25
tp1125
a(g183
VNN
p1126
tp1127
a(g186
VPOS
p1128
tp1129
a(g233
VNN
p1130
tp1131
a(g225
VNN
p1132
tp1133
a(g296
VLS
p1134
tp1135
a(g190
VLS
p1136
tp1137
a(g233
VNN
p1138
tp1139
a(g275
VNN
p1140
tp1141
a(g186
V''
p1142
tp1143
a(g25
g25
tp1144
a(g183
VNN
p1145
tp1146
a(g186
VPOS
p1147
tp1148
a(g362
VNN
p1149
tp1150
a(g222
VNN
p1151
tp1152
a(g225
VNN
p1153
tp1154
a(g198
VNN
p1155
tp1156
a(g198
VNN
p1157
tp1158
a(g201
VFW
p1159
tp1160
a(g257
VNN
p1161
tp1162
a(g519
VNN
p1163
tp1164
a(g186
V''
p1165
tp1166
a(g25
g25
tp1167
a(g183
VNN
p1168
tp1169
a(g186
VPOS
p1170
tp1171
a(g204
VNN
p1172
tp1173
a(g190
VSYM
p1174
tp1175
a(g257
VNN
p1176
tp1177
a(g228
VNN
p1178
tp1179
a(g300
VNN
p1180
tp1181
a(g190
VSYM
p1182
tp1183
a(g186
V''
p1184
tp1185
a(g25
g25
tp1186
a(g183
VNN
p1187
tp1188
a(g186
VPOS
p1189
tp1190
a(g233
VNN
p1191
tp1192
a(g201
VFW
p1193
tp1194
a(g228
VNN
p1195
tp1196
a(g228
VNN
p1197
tp1198
a(g233
VNN
p1199
tp1200
a(g190
VSYM
p1201
tp1202
a(g186
V''
p1203
tp1204
a(g25
g25
tp1205
a(g183
VNN
p1206
tp1207
a(g186
V''
p1208
tp1209
a(Vq
p1210
VFW
p1211
tp1212
a(g183
VFW
p1213
tp1214
a(g201
VFW
p1215
tp1216
a(g300
VNN
p1217
tp1218
a(g207
VNN
p1219
tp1220
a(g275
VNN
p1221
tp1222
a(g186
V''
p1223
tp1224
a(g25
g25
tp1225
a(g183
VNN
p1226
tp1227
a(g186
VPOS
p1228
tp1229
a(g198
VNN
p1230
tp1231
a(g183
VNN
p1232
tp1233
a(g514
VNN
p1234
tp1235
a(g362
VNN
p1236
tp1237
a(g125
g125
tp1238
a(g186
V''
p1239
tp1240
a(g25
g25
tp1241
a(g183
VNN
p1242
tp1243
a(g186
VPOS
p1244
tp1245
a(g188
VNN
p1246
tp1247
a(g225
VNN
p1248
tp1249
a(g183
VNN
p1250
tp1251
a(g233
VNN
p1252
tp1253
a(g212
VNN
p1254
tp1255
a(g186
V''
p1256
tp1257
a(g25
g25
tp1258
a(g183
VNN
p1259
tp1260
a(g186
VPOS
p1261
tp1262
a(g300
VNN
p1263
tp1264
a(g190
VSYM
p1265
tp1266
a(g204
VNN
p1267
tp1268
a(g225
VNN
p1269
tp1270
a(g352
VNN
p1271
tp1272
a(g352
VNN
p1273
tp1274
a(g190
VSYM
p1275
tp1276
a(g257
VNN
p1277
tp1278
a(g212
VNN
p1279
tp1280
a(g186
V''
p1281
tp1282
a(g25
g25
tp1283
a(g183
VNN
p1284
tp1285
a(g186
VPOS
p1286
tp1287
a(g362
VNN
p1288
tp1289
a(g228
VNN
p1290
tp1291
a(g249
VDT
p1292
tp1293
a(g413
VFW
p1294
tp1295
a(g413
VFW
p1296
tp1297
a(g186
V''
p1298
tp1299
a(g25
g25
tp1300
a(g183
VNN
p1301
tp1302
a(g186
VPOS
p1303
tp1304
a(g228
VNN
p1305
tp1306
a(g300
VNN
p1307
tp1308
a(g183
VNN
p1309
tp1310
a(g233
VNN
p1311
tp1312
a(g275
VNN
p1313
tp1314
a(g186
V''
p1315
tp1316
a(g25
g25
tp1317
a(g183
VNN
p1318
tp1319
a(g186
VPOS
p1320
tp1321
a(g257
VNN
p1322
tp1323
a(g201
VLS
p1324
tp1325
a(g204
VNN
p1326
tp1327
a(g190
VSYM
p1328
tp1329
a(g186
V''
p1330
tp1331
a(g25
g25
tp1332
a(g183
VNN
p1333
tp1334
a(g186
VPOS
p1335
tp1336
a(g212
VNN
p1337
tp1338
a(g190
VSYM
p1339
tp1340
a(g204
VNN
p1341
tp1342
a(g225
VNN
p1343
tp1344
a(g300
VNN
p1345
tp1346
a(g186
V''
p1347
tp1348
a(g25
g25
tp1349
a(g183
VNN
p1350
tp1351
a(g186
V''
p1352
tp1353
a(g190
VLS
p1354
tp1355
a(g228
VNN
p1356
tp1357
a(g204
VNN
p1358
tp1359
a(g186
V''
p1360
tp1361
a(g25
g25
tp1362
a(g183
VNN
p1363
tp1364
a(g186
VPOS
p1365
tp1366
a(g233
VNN
p1367
tp1368
a(g225
VNN
p1369
tp1370
a(g296
VLS
p1371
tp1372
a(g190
VLS
p1373
tp1374
a(g233
VNN
p1375
tp1376
a(g275
VNN
p1377
tp1378
a(g186
V''
p1379
tp1380
a(g25
g25
tp1381
a(g183
VNN
p1382
tp1383
a(g186
V''
p1384
tp1385
a(g125
g125
tp1386
a(g186
V''
p1387
tp1388
a(V]
p1389
VNN
p1390
tp1391
asS'tagged_title'
p1392
(lp1393
(g181
VFW
p1394
tp1395
a(g183
VFW
p1396
tp1397
a(g186
VPOS
p1398
tp1399
a(VV
p1400
VNN
p1401
tp1402
a(g190
VSYM
p1403
tp1404
a(g300
VNN
p1405
tp1406
a(g275
VNN
p1407
tp1408
a(g186
V''
p1409
tp1410
a(g25
g25
tp1411
a(g183
VNN
p1412
tp1413
a(g186
VPOS
p1414
tp1415
a(g257
VNN
p1416
tp1417
a(g201
VLS
p1418
tp1419
a(g204
VNN
p1420
tp1421
a(g190
VSYM
p1422
tp1423
a(g186
V''
p1424
tp1425
a(g25
g25
tp1426
a(g183
VNN
p1427
tp1428
a(g186
VPOS
p1429
tp1430
a(g222
VNN
p1431
tp1432
a(g225
VNN
p1433
tp1434
a(g228
VNN
p1435
tp1436
a(g190
VSYM
p1437
tp1438
a(g233
VNN
p1439
tp1440
a(g186
V''
p1441
tp1442
a(g1389
VNN
p1443
tp1444
asVtotal_points
p1445
V100
p1446
sVdate
p1447
V9/18/2012
p1448
sVtaObjectUrl
p1449
Vhttp://www.tripadvisor.com/Hotel_Review-g186338-d193063-Reviews-BEST_WESTERN_Mornington_Hotel-London_England.html
p1450
sVtype
p1451
VHotels
p1452
sS'pos_unigram'
p1453
(lp1454
g165
ag184
ag168
ag164
ag167
ag169
ag25
ag194
ag196
ag199
ag202
ag205
ag208
ag210
ag213
ag215
ag25
ag218
ag220
ag223
ag226
ag229
ag231
ag234
ag236
ag25
ag239
ag241
ag243
ag245
ag247
ag173
ag251
ag253
ag255
ag258
ag260
ag25
ag263
ag265
ag267
ag269
ag271
ag273
ag276
ag125
ag279
ag25
ag282
ag284
ag287
ag289
ag292
ag294
ag171
ag298
ag301
ag303
ag25
ag306
ag308
ag310
ag312
ag314
ag316
ag318
ag25
ag321
ag323
ag325
ag327
ag329
ag331
ag333
ag335
ag337
ag339
ag25
ag342
ag344
ag346
ag348
ag350
ag353
ag355
ag25
ag358
ag360
ag363
ag365
ag367
ag369
ag371
ag373
ag25
ag376
ag378
ag166
ag381
ag25
ag384
ag386
ag388
ag390
ag392
ag394
ag396
ag398
ag25
ag401
ag403
ag163
ag406
ag25
ag409
ag411
ag414
ag416
ag418
ag420
ag25
ag423
ag425
ag170
ag428
ag430
ag432
ag434
ag436
ag438
ag440
ag25
ag443
ag445
ag25
ag448
ag25
ag451
ag453
ag455
ag457
ag25
ag460
ag462
ag464
ag466
ag468
ag470
ag472
ag474
ag476
ag478
ag174
ag481
ag25
ag484
ag486
ag488
ag490
ag25
ag493
ag495
ag497
ag499
ag501
ag503
ag505
ag507
ag25
ag510
ag512
ag515
ag517
ag520
ag522
ag125
ag525
ag25
ag528
ag530
ag533
ag535
ag537
ag25
ag540
ag542
ag544
ag546
ag548
ag550
ag552
ag25
ag555
ag557
ag559
ag561
ag563
ag565
ag567
ag25
ag570
ag572
ag574
ag576
ag578
ag580
ag125
ag583
ag25
ag586
ag588
ag591
ag593
ag595
ag597
ag25
ag600
ag602
ag604
ag606
ag608
ag610
ag612
ag614
ag616
ag618
ag25
ag621
ag623
ag625
ag627
ag629
ag631
ag633
ag635
ag637
ag25
ag640
ag642
ag25
ag645
ag25
ag648
ag650
ag652
ag654
ag656
ag658
ag660
ag662
ag25
ag665
ag667
ag669
ag671
ag673
ag675
ag677
ag679
ag25
ag682
ag684
ag686
ag688
ag690
ag25
ag693
ag695
ag697
ag699
ag701
ag703
ag705
ag707
ag709
ag711
ag713
ag25
ag716
ag718
ag720
ag722
ag724
ag726
ag728
ag25
ag731
ag733
ag735
ag737
ag739
ag741
ag743
ag745
ag747
ag749
ag751
ag753
ag25
ag756
ag758
ag760
ag762
ag764
ag766
ag25
ag769
ag771
ag773
ag775
ag777
ag779
ag781
ag783
ag25
ag786
ag788
ag790
ag792
ag794
ag796
ag798
ag25
ag801
ag803
ag805
ag807
ag809
ag811
ag813
ag815
ag817
ag25
ag820
ag822
ag824
ag826
ag828
ag830
ag832
ag125
ag835
ag25
ag838
ag840
ag175
ag843
ag25
ag846
ag848
ag850
ag852
ag854
ag856
ag858
ag25
ag861
ag863
ag865
ag867
ag869
ag871
ag873
ag875
ag25
ag878
ag880
ag882
ag884
ag886
ag888
ag890
ag892
ag894
ag25
ag897
ag899
ag901
ag903
ag905
ag907
ag909
ag25
ag912
ag914
ag916
ag918
ag920
ag922
ag924
ag926
ag25
ag929
ag931
ag933
ag935
ag937
ag939
ag941
ag943
ag25
ag946
ag948
ag950
ag952
ag954
ag956
ag958
ag25
ag961
ag963
ag125
ag966
ag25
ag969
ag971
ag125
ag974
ag25
ag977
ag979
ag125
ag982
ag25
ag985
ag987
ag990
ag992
ag994
ag996
ag25
ag999
ag1001
ag1004
ag1006
ag1008
ag1010
ag1012
ag1014
ag1016
ag1018
ag1020
ag1022
ag1024
ag25
ag1027
ag1029
ag1031
ag1033
ag1035
ag172
ag1038
ag1040
ag25
ag1043
ag1045
ag1047
ag1049
ag1051
ag1053
ag1055
ag25
ag1058
ag1060
ag1062
ag1064
ag1066
ag1068
ag1070
ag1072
ag1074
ag1076
ag25
ag1079
ag1081
ag25
ag1084
ag25
ag1087
ag1089
ag1091
ag1093
ag1095
ag1097
ag1099
ag25
ag1102
ag1104
ag1107
ag1109
ag1111
ag1113
ag1115
ag25
ag1118
ag1120
ag25
ag1123
ag25
ag1126
ag1128
ag1130
ag1132
ag1134
ag1136
ag1138
ag1140
ag1142
ag25
ag1145
ag1147
ag1149
ag1151
ag1153
ag1155
ag1157
ag1159
ag1161
ag1163
ag1165
ag25
ag1168
ag1170
ag1172
ag1174
ag1176
ag1178
ag1180
ag1182
ag1184
ag25
ag1187
ag1189
ag1191
ag1193
ag1195
ag1197
ag1199
ag1201
ag1203
ag25
ag1206
ag1208
ag1211
ag1213
ag1215
ag1217
ag1219
ag1221
ag1223
ag25
ag1226
ag1228
ag1230
ag1232
ag1234
ag1236
ag125
ag1239
ag25
ag1242
ag1244
ag1246
ag1248
ag1250
ag1252
ag1254
ag1256
ag25
ag1259
ag1261
ag1263
ag1265
ag1267
ag1269
ag1271
ag1273
ag1275
ag1277
ag1279
ag1281
ag25
ag1284
ag1286
ag1288
ag1290
ag1292
ag1294
ag1296
ag1298
ag25
ag1301
ag1303
ag1305
ag1307
ag1309
ag1311
ag1313
ag1315
ag25
ag1318
ag1320
ag1322
ag1324
ag1326
ag1328
ag1330
ag25
ag1333
ag1335
ag1337
ag1339
ag1341
ag1343
ag1345
ag1347
ag25
ag1350
ag1352
ag1354
ag1356
ag1358
ag1360
ag25
ag1363
ag1365
ag1367
ag1369
ag1371
ag1373
ag1375
ag1377
ag1379
ag25
ag1382
ag1384
ag125
ag1387
ag1390
asVhelpfulness
p1455
V0
p1456
sVtaObjectCity
p1457
VLondon
p1458
s.(dp0
Vrating
p1
V5
p2
sVtext
p3
VNoting to dislike about this village. It has everything, including a laundromat with a lovely gentlemen who is a wealth of knowledge. Restaurants/markets/hairdressers/sightseeing and more.
p4
sS'title_length'
p5
I188
sS'bigram_counts'
p6
ccollections
Counter
p7
((dp8
(Vgentlemen
p9
Vwealth
p10
tp11
I1
s(Vlaundromat
p12
Vlovely
p13
tp14
I1
s(Vknowledge.
p15
Vrestaurants/markets/hairdressers/sightseeing
p16
tp17
I1
s(Vnoting
p18
Vdislike
p19
tp20
I1
s(g19
Vvillage.
p21
tp22
I1
s(g13
g9
tp23
I1
s(g10
g15
tp24
I1
s(Veverything
p25
V,
p26
tp27
I1
s(g26
Vincluding
p28
tp29
I1
s(g21
g25
tp30
I1
s(g16
V.
p31
tp32
I1
s(g28
g12
tp33
I1
stp34
Rp35
sS'rev_unigrams'
p36
(lp37
g18
ag19
ag21
ag25
ag26
ag28
ag12
ag13
ag9
ag10
ag15
ag16
ag31
asVid
p38
V88
p39
sVtaObject
p40
VCorsham Village
p41
sVtitle
p42
VHad everything
p43
sS'unigram_counts'
p44
g7
((dp45
g15
I1
sg12
I1
sg10
I1
sg26
I1
sg16
I1
sg9
I1
sg25
I1
sg18
I1
sg28
I1
sg21
I1
sg31
I1
sg19
I1
sg13
I1
stp46
Rp47
sS'rev_bigrams'
p48
(lp49
g20
ag22
ag30
ag27
ag29
ag33
ag14
ag23
ag11
ag24
ag17
ag32
asS'pos_count'
p50
ccollections
defaultdict
p51
(c__builtin__
int
p52
tp53
Rp54
V:
p55
I3
sVNN
p56
I92
sVFW
p57
I15
sg26
I14
sVSYM
p58
I11
sVPOS
p59
I7
sV''
p60
I21
sVLS
p61
I12
sVVBZ
p62
I2
sVDT
p63
I6
sg31
I3
ssS'rev_length'
p64
I188
sVusername
p65
V124_10
p66
sS'tagged_text'
p67
(lp68
(V[
p69
g57
tp70
a(Vu
p71
VFW
p72
tp73
a(V'
p74
g59
tp75
a(VN
p76
g56
tp77
a(Vo
p78
VNN
p79
tp80
a(Vt
p81
VNN
p82
tp83
a(Vi
p84
VFW
p85
tp86
a(Vn
p87
VNN
p88
tp89
a(Vg
p90
VNN
p91
tp92
a(g74
g60
tp93
a(g26
g26
tp94
a(g71
VNN
p95
tp96
a(g74
V''
p97
tp98
a(Vd
p99
VFW
p100
tp101
a(g84
VFW
p102
tp103
a(Vs
p104
VNN
p105
tp106
a(Vl
p107
VNN
p108
tp109
a(g84
VFW
p110
tp111
a(Vk
p112
VNN
p113
tp114
a(Ve
p115
g58
tp116
a(g74
V''
p117
tp118
a(g26
g26
tp119
a(g71
VNN
p120
tp121
a(g74
V''
p122
tp123
a(Vv
p124
g61
tp125
a(g84
VLS
p126
tp127
a(g107
VNN
p128
tp129
a(g107
VNN
p130
tp131
a(Va
p132
g63
tp133
a(g90
VNN
p134
tp135
a(g115
VLS
p136
tp137
a(g31
g31
tp138
a(g74
V''
p139
tp140
a(g26
g26
tp141
a(g71
VNN
p142
tp143
a(g74
VPOS
p144
tp145
a(VI
p146
VNN
p147
tp148
a(g81
VNN
p149
tp150
a(g74
V''
p151
tp152
a(g26
g26
tp153
a(g71
VNN
p154
tp155
a(g74
V''
p156
tp157
a(g115
VLS
p158
tp159
a(g124
VLS
p160
tp161
a(g115
VLS
p162
tp163
a(Vr
p164
VNN
p165
tp166
a(Vy
p167
VNN
p168
tp169
a(g81
VNN
p170
tp171
a(Vh
p172
VNN
p173
tp174
a(g84
VFW
p175
tp176
a(g87
VNN
p177
tp178
a(g90
VNN
p179
tp180
a(g74
V''
p181
tp182
a(g26
g26
tp183
a(g71
VNN
p184
tp185
a(g74
V''
p186
tp187
a(g26
g26
tp188
a(g74
V''
p189
tp190
a(g26
g26
tp191
a(g71
VNN
p192
tp193
a(g74
V''
p194
tp195
a(g84
VLS
p196
tp197
a(g87
VNN
p198
tp199
a(Vc
p200
VNN
p201
tp202
a(g107
VNN
p203
tp204
a(g71
VFW
p205
tp206
a(g99
VFW
p207
tp208
a(g84
VFW
p209
tp210
a(g87
VNN
p211
tp212
a(g90
VNN
p213
tp214
a(g74
V''
p215
tp216
a(g26
g26
tp217
a(g71
VNN
p218
tp219
a(g74
V''
p220
tp221
a(g107
VNN
p222
tp223
a(g132
VDT
p224
tp225
a(g71
VNN
p226
tp227
a(g87
VNN
p228
tp229
a(g99
VNN
p230
tp231
a(g164
VNN
p232
tp233
a(g78
VNN
p234
tp235
a(Vm
p236
VNN
p237
tp238
a(g132
VDT
p239
tp240
a(g81
VNN
p241
tp242
a(g74
V''
p243
tp244
a(g26
g26
tp245
a(g71
VNN
p246
tp247
a(g74
VPOS
p248
tp249
a(g107
VNN
p250
tp251
a(g78
VNN
p252
tp253
a(g124
VLS
p254
tp255
a(g115
VLS
p256
tp257
a(g107
VNN
p258
tp259
a(g167
VNN
p260
tp261
a(g74
V''
p262
tp263
a(g26
g26
tp264
a(g71
VNN
p265
tp266
a(g74
VPOS
p267
tp268
a(g90
VNN
p269
tp270
a(g115
VSYM
p271
tp272
a(g87
VNN
p273
tp274
a(g81
VNN
p275
tp276
a(g107
VNN
p277
tp278
a(g115
VSYM
p279
tp280
a(g236
VNN
p281
tp282
a(g115
VSYM
p283
tp284
a(g87
VNN
p285
tp286
a(g74
V''
p287
tp288
a(g26
g26
tp289
a(g71
VNN
p290
tp291
a(g74
VPOS
p292
tp293
a(Vw
p294
VNN
p295
tp296
a(g115
VSYM
p297
tp298
a(g132
VDT
p299
tp300
a(g107
VNN
p301
tp302
a(g81
VNN
p303
tp304
a(g172
VNN
p305
tp306
a(g74
V''
p307
tp308
a(g26
g26
tp309
a(g71
VNN
p310
tp311
a(g74
VPOS
p312
tp313
a(g112
VNN
p314
tp315
a(g87
VNN
p316
tp317
a(g78
VNN
p318
tp319
a(g294
VNN
p320
tp321
a(g107
VNN
p322
tp323
a(g115
VSYM
p324
tp325
a(g99
VNN
p326
tp327
a(g90
VNN
p328
tp329
a(g115
VLS
p330
tp331
a(g31
g31
tp332
a(g74
V''
p333
tp334
a(g26
g26
tp335
a(g71
VNN
p336
tp337
a(g74
VPOS
p338
tp339
a(VR
p340
VNN
p341
tp342
a(g115
VSYM
p343
tp344
a(g104
VNN
p345
tp346
a(g81
VNN
p347
tp348
a(g132
VFW
p349
tp350
a(g71
VFW
p351
tp352
a(g164
VNN
p353
tp354
a(g132
VDT
p355
tp356
a(g87
VNN
p357
tp358
a(g81
VNN
p359
tp360
a(g104
VNN
p361
tp362
a(V/
p363
g55
tp364
a(g236
VNN
p365
tp366
a(g132
VDT
p367
tp368
a(g164
VNN
p369
tp370
a(g112
VNN
p371
tp372
a(g115
VSYM
p373
tp374
a(g81
VNN
p375
tp376
a(g104
VNN
p377
tp378
a(g363
g55
tp379
a(g172
VNN
p380
tp381
a(g132
VFW
p382
tp383
a(g84
VFW
p384
tp385
a(g164
VNN
p386
tp387
a(g99
VNN
p388
tp389
a(g164
VNN
p390
tp391
a(g115
VSYM
p392
tp393
a(g104
VNN
p394
tp395
a(g104
VNN
p396
tp397
a(g115
VSYM
p398
tp399
a(g164
VNN
p400
tp401
a(g104
VNN
p402
tp403
a(g363
g55
tp404
a(g104
g62
tp405
a(g84
VLS
p406
tp407
a(g90
VNN
p408
tp409
a(g172
VNN
p410
tp411
a(g81
VNN
p412
tp413
a(g104
VVBZ
p414
tp415
a(g115
VLS
p416
tp417
a(g115
VSYM
p418
tp419
a(g84
VFW
p420
tp421
a(g87
VNN
p422
tp423
a(g90
VNN
p424
tp425
a(g74
V''
p426
tp427
a(g26
g26
tp428
a(g71
VNN
p429
tp430
a(g74
V''
p431
tp432
a(g31
g31
tp433
a(g74
V''
p434
tp435
a(V]
p436
VNN
p437
tp438
asS'tagged_title'
p439
(lp440
(g69
VFW
p441
tp442
a(g71
VFW
p443
tp444
a(g74
VPOS
p445
tp446
a(VH
p447
VNN
p448
tp449
a(g132
VDT
p450
tp451
a(g99
VNN
p452
tp453
a(g74
V''
p454
tp455
a(g26
g26
tp456
a(g71
VNN
p457
tp458
a(g74
V''
p459
tp460
a(g115
VLS
p461
tp462
a(g124
VLS
p463
tp464
a(g115
VLS
p465
tp466
a(g164
VNN
p467
tp468
a(g167
VNN
p469
tp470
a(g81
VNN
p471
tp472
a(g172
VNN
p473
tp474
a(g84
VFW
p475
tp476
a(g87
VNN
p477
tp478
a(g90
VNN
p479
tp480
a(g74
V''
p481
tp482
a(g436
VNN
p483
tp484
asVtotal_points
p485
V100
p486
sVdate
p487
V9/18/2012
p488
sVtaObjectUrl
p489
Vhttp://www.tripadvisor.com/Attraction_Review-g209966-d212043-Reviews-Corsham_Village-Corsham_Wiltshire_England.html
p490
sVtype
p491
VAttractions
p492
sS'pos_unigram'
p493
(lp494
g57
ag72
ag59
ag56
ag79
ag82
ag85
ag88
ag91
ag60
ag26
ag95
ag97
ag100
ag102
ag105
ag108
ag110
ag113
ag58
ag117
ag26
ag120
ag122
ag61
ag126
ag128
ag130
ag63
ag134
ag136
ag31
ag139
ag26
ag142
ag144
ag147
ag149
ag151
ag26
ag154
ag156
ag158
ag160
ag162
ag165
ag168
ag170
ag173
ag175
ag177
ag179
ag181
ag26
ag184
ag186
ag26
ag189
ag26
ag192
ag194
ag196
ag198
ag201
ag203
ag205
ag207
ag209
ag211
ag213
ag215
ag26
ag218
ag220
ag222
ag224
ag226
ag228
ag230
ag232
ag234
ag237
ag239
ag241
ag243
ag26
ag246
ag248
ag250
ag252
ag254
ag256
ag258
ag260
ag262
ag26
ag265
ag267
ag269
ag271
ag273
ag275
ag277
ag279
ag281
ag283
ag285
ag287
ag26
ag290
ag292
ag295
ag297
ag299
ag301
ag303
ag305
ag307
ag26
ag310
ag312
ag314
ag316
ag318
ag320
ag322
ag324
ag326
ag328
ag330
ag31
ag333
ag26
ag336
ag338
ag341
ag343
ag345
ag347
ag349
ag351
ag353
ag355
ag357
ag359
ag361
ag55
ag365
ag367
ag369
ag371
ag373
ag375
ag377
ag55
ag380
ag382
ag384
ag386
ag388
ag390
ag392
ag394
ag396
ag398
ag400
ag402
ag55
ag62
ag406
ag408
ag410
ag412
ag414
ag416
ag418
ag420
ag422
ag424
ag426
ag26
ag429
ag431
ag31
ag434
ag437
asVhelpfulness
p495
V0
p496
sVtaObjectCity
p497
VCorsham
p498
s.(dp0
Vrating
p1
V5
p2
sVtext
p3
VThis hotel and village of Corsham is the best I&acute;ve ever been too. You will not be disappointed. We stayed 3 nites. The staff, room, food (both breakfast and dinner) were excellent. The rooms are so clean and well furbished. Very comfortable, we felt like we were at home. The staff from management to chef and bar/wait staff were all very friendly, helpful and an asset the hotel. Plenty of on site parking and close to Bath, Lacock and other sightseeing places. We will definitely stay here again. Thoroughly recommend this hotel.
p4
sS'title_length'
p5
I537
sS'bigram_counts'
p6
ccollections
Counter
p7
((dp8
(Vwell
p9
Vfurbished.
p10
tp11
I1
s(Vexcellent.
p12
Vrooms
p13
tp14
I1
s(Vbar/wait
p15
Vstaff
p16
tp17
I1
s(Vacute
p18
V;
p19
tp20
I1
s(Vlacock
p21
Vsightseeing
p22
tp23
I1
s(Vroom
p24
V,
p25
tp26
I1
s(Vdisappointed.
p27
Vstayed
p28
tp29
I1
s(g25
g24
tp30
I1
s(Vhotel.
p31
Vplenty
p32
tp33
I1
s(Vnites.
p34
Vstaff
p35
tp36
I1
s(Vdinner
p37
V)
p38
tp39
I1
s(g38
g12
tp40
I1
s(g25
Vfelt
p41
tp42
I1
s(V(
p43
Vbreakfast
p44
tp45
I1
s(V&
p46
g18
tp47
I1
s(g16
Vfriendly
p48
tp49
I1
s(Vcorsham
p50
Vbest
p51
tp52
I1
s(g22
Vplaces.
p53
tp54
I1
s(g25
Vhelpful
p55
tp56
I1
s(Vever
p57
Vtoo.
p58
tp59
I1
s(Vdefinitely
p60
Vstay
p61
tp62
I1
s(Vclose
p63
Vbath
p64
tp65
I1
s(g61
Vagain.
p66
tp67
I1
s(Vstaff
p68
Vmanagement
p69
tp70
I1
s(Vparking
p71
g63
tp72
I1
s(g66
Vthoroughly
p73
tp74
I1
s(g32
Vsite
p75
tp76
I1
s(g41
Vlike
p77
tp78
I1
s(g13
Vclean
p79
tp80
I1
s(g19
g57
tp81
I1
s(V3
p82
g34
tp83
I1
s(Vchef
p84
g15
tp85
I1
s(g58
g27
tp86
I1
s(g75
g71
tp87
I1
s(g48
g25
tp88
I1
s(g69
g84
tp89
I1
s(Vhotel
p90
V.
p91
tp92
I1
s(g77
Vhome.
p93
tp94
I1
s(g53
g60
tp95
I1
s(g51
g46
tp96
I1
s(g44
g37
tp97
I1
s(g93
g68
tp98
I1
s(g64
g25
tp99
I1
s(Vhotel
p100
Vvillage
p101
tp102
I1
s(g101
g50
tp103
I1
s(g79
g9
tp104
I1
s(g28
g82
tp105
I1
s(Vasset
p106
g31
tp107
I1
s(g73
Vrecommend
p108
tp109
I1
s(Vfood
p110
g43
tp111
I1
s(g35
g25
tp112
I1
s(g25
g110
tp113
I1
s(g10
Vcomfortable
p114
tp115
I1
s(g108
g90
tp116
I1
s(g114
g25
tp117
I1
s(g55
g106
tp118
I1
s(g25
g21
tp119
I1
stp120
Rp121
sS'rev_unigrams'
p122
(lp123
g100
ag101
ag50
ag51
ag46
ag18
ag19
ag57
ag58
ag27
ag28
ag82
ag34
ag35
ag25
ag24
ag25
ag110
ag43
ag44
ag37
ag38
ag12
ag13
ag79
ag9
ag10
ag114
ag25
ag41
ag77
ag93
ag68
ag69
ag84
ag15
ag16
ag48
ag25
ag55
ag106
ag31
ag32
ag75
ag71
ag63
ag64
ag25
ag21
ag22
ag53
ag60
ag61
ag66
ag73
ag108
ag90
ag91
asVid
p124
V89
p125
sVtaObject
p126
VMethuen Arms Hotel
p127
sVtitle
p128
VYou won&acute;t be disappointed
p129
sS'unigram_counts'
p130
g7
((dp131
g15
I1
sg10
I1
sg58
I1
sg53
I1
sg101
I1
sg75
I1
sg114
I1
sg84
I1
sg13
I1
sg71
I1
sg63
I1
sg44
I1
sg50
I1
sg51
I1
sg35
I3
sg69
I1
sg46
I1
sg38
I1
sg43
I1
sg25
I5
sg28
I1
sg91
I1
sg82
I1
sg106
I1
sg108
I1
sg19
I1
sg22
I1
sg57
I1
sg48
I1
sg12
I1
sg31
I1
sg100
I2
sg66
I1
sg34
I1
sg110
I1
sg41
I1
sg61
I1
sg27
I1
sg32
I1
sg64
I1
sg77
I1
sg18
I1
sg55
I1
sg24
I1
sg93
I1
sg21
I1
sg9
I1
sg37
I1
sg60
I1
sg79
I1
sg73
I1
stp132
Rp133
sS'rev_bigrams'
p134
(lp135
g102
ag103
ag52
ag96
ag47
ag20
ag81
ag59
ag86
ag29
ag105
ag83
ag36
ag112
ag30
ag26
ag113
ag111
ag45
ag97
ag39
ag40
ag14
ag80
ag104
ag11
ag115
ag117
ag42
ag78
ag94
ag98
ag70
ag89
ag85
ag17
ag49
ag88
ag56
ag118
ag107
ag33
ag76
ag87
ag72
ag65
ag99
ag119
ag23
ag54
ag95
ag62
ag67
ag74
ag109
ag116
ag92
asS'pos_count'
p136
ccollections
defaultdict
p137
(c__builtin__
int
p138
tp139
Rp140
VNN
p141
I269
sVFW
p142
I35
sVCC
p143
I1
sg25
I71
sVSYM
p144
I37
sVPOS
p145
I42
sV''
p146
I92
sg91
I10
sVCD
p147
I1
sVLS
p148
I18
sVVBZ
p149
I3
sVDT
p150
I21
sV:
p151
I2
sVNNS
p152
I1
sVPRP
p153
I1
ssS'rev_length'
p154
I537
sVusername
p155
V124_10
p156
sS'tagged_text'
p157
(lp158
(V[
p159
g142
tp160
a(Vu
p161
VFW
p162
tp163
a(V'
p164
g145
tp165
a(VT
p166
g141
tp167
a(Vh
p168
VNN
p169
tp170
a(Vi
p171
g148
tp172
a(Vs
p173
g152
tp174
a(g164
VPOS
p175
tp176
a(g25
g25
tp177
a(g161
VNN
p178
tp179
a(g164
VPOS
p180
tp181
a(g168
VNN
p182
tp183
a(Vo
p184
VNN
p185
tp186
a(Vt
p187
VNN
p188
tp189
a(Ve
p190
g144
tp191
a(Vl
p192
VNN
p193
tp194
a(g164
g146
tp195
a(g25
g25
tp196
a(g161
VNN
p197
tp198
a(g164
V''
p199
tp200
a(Vv
p201
VLS
p202
tp203
a(g171
VLS
p204
tp205
a(g192
VNN
p206
tp207
a(g192
VNN
p208
tp209
a(Va
p210
g150
tp211
a(Vg
p212
VNN
p213
tp214
a(g190
VSYM
p215
tp216
a(g164
V''
p217
tp218
a(g25
g25
tp219
a(g161
VNN
p220
tp221
a(g164
VPOS
p222
tp223
a(VC
p224
VNN
p225
tp226
a(g184
VNN
p227
tp228
a(Vr
p229
VNN
p230
tp231
a(g173
VNN
p232
tp233
a(g168
VNN
p234
tp235
a(g210
VDT
p236
tp237
a(Vm
p238
VNN
p239
tp240
a(g164
V''
p241
tp242
a(g25
g25
tp243
a(g161
VNN
p244
tp245
a(g164
VPOS
p246
tp247
a(Vb
p248
VNN
p249
tp250
a(g190
VSYM
p251
tp252
a(g173
VNN
p253
tp254
a(g187
VNN
p255
tp256
a(g164
V''
p257
tp258
a(g25
g25
tp259
a(g161
VNN
p260
tp261
a(g164
V''
p262
tp263
a(VI
p264
g153
tp265
a(g164
V''
p266
tp267
a(g25
g25
tp268
a(g161
VNN
p269
tp270
a(g164
V''
p271
tp272
a(g46
g143
tp273
a(g164
V''
p274
tp275
a(g25
g25
tp276
a(g161
VNN
p277
tp278
a(g164
V''
p279
tp280
a(g210
VDT
p281
tp282
a(Vc
p283
VNN
p284
tp285
a(g161
VNN
p286
tp287
a(g187
VNN
p288
tp289
a(g190
VSYM
p290
tp291
a(g164
V''
p292
tp293
a(g25
g25
tp294
a(g161
VNN
p295
tp296
a(g164
V''
p297
tp298
a(g19
g151
tp299
a(g164
V''
p300
tp301
a(g25
g25
tp302
a(g161
VNN
p303
tp304
a(g164
V''
p305
tp306
a(g190
VLS
p307
tp308
a(g201
VLS
p309
tp310
a(g190
VLS
p311
tp312
a(g229
VNN
p313
tp314
a(g164
V''
p315
tp316
a(g25
g25
tp317
a(g161
VNN
p318
tp319
a(g164
VPOS
p320
tp321
a(g187
VNN
p322
tp323
a(g184
VNN
p324
tp325
a(g184
VNN
p326
tp327
a(g91
g91
tp328
a(g164
V''
p329
tp330
a(g25
g25
tp331
a(g161
VNN
p332
tp333
a(g164
VPOS
p334
tp335
a(VY
p336
VNN
p337
tp338
a(g184
VNN
p339
tp340
a(g161
VNN
p341
tp342
a(g164
V''
p343
tp344
a(g25
g25
tp345
a(g161
VNN
p346
tp347
a(g164
V''
p348
tp349
a(Vd
p350
VFW
p351
tp352
a(g171
VFW
p353
tp354
a(g173
g149
tp355
a(g210
VDT
p356
tp357
a(Vp
p358
VNN
p359
tp360
a(g358
VNN
p361
tp362
a(g184
VNN
p363
tp364
a(g171
VFW
p365
tp366
a(Vn
p367
VNN
p368
tp369
a(g187
VNN
p370
tp371
a(g190
VSYM
p372
tp373
a(g350
VNN
p374
tp375
a(g91
g91
tp376
a(g164
V''
p377
tp378
a(g25
g25
tp379
a(g161
VNN
p380
tp381
a(g164
VPOS
p382
tp383
a(VW
p384
VNN
p385
tp386
a(g190
VSYM
p387
tp388
a(g164
V''
p389
tp390
a(g25
g25
tp391
a(g161
VNN
p392
tp393
a(g164
VPOS
p394
tp395
a(g173
VNN
p396
tp397
a(g187
VNN
p398
tp399
a(g210
VFW
p400
tp401
a(Vy
p402
VFW
p403
tp404
a(g190
VLS
p405
tp406
a(g350
VNN
p407
tp408
a(g164
V''
p409
tp410
a(g25
g25
tp411
a(g161
VNN
p412
tp413
a(g164
V''
p414
tp415
a(g82
g147
tp416
a(g164
V''
p417
tp418
a(g25
g25
tp419
a(g161
VNN
p420
tp421
a(g164
VPOS
p422
tp423
a(g367
VNN
p424
tp425
a(g171
VFW
p426
tp427
a(g187
VNN
p428
tp429
a(g190
VSYM
p430
tp431
a(g173
VNN
p432
tp433
a(g91
g91
tp434
a(g164
V''
p435
tp436
a(g25
g25
tp437
a(g161
VNN
p438
tp439
a(g164
VPOS
p440
tp441
a(g166
VNN
p442
tp443
a(g168
VNN
p444
tp445
a(g190
VSYM
p446
tp447
a(g164
V''
p448
tp449
a(g25
g25
tp450
a(g161
VNN
p451
tp452
a(g164
VPOS
p453
tp454
a(g173
VNN
p455
tp456
a(g187
VNN
p457
tp458
a(g210
VDT
p459
tp460
a(Vf
p461
VFW
p462
tp463
a(g461
VFW
p464
tp465
a(g164
V''
p466
tp467
a(g25
g25
tp468
a(g161
VNN
p469
tp470
a(g164
V''
p471
tp472
a(g25
g25
tp473
a(g164
V''
p474
tp475
a(g25
g25
tp476
a(g161
VNN
p477
tp478
a(g164
VPOS
p479
tp480
a(g229
VNN
p481
tp482
a(g184
VNN
p483
tp484
a(g184
VNN
p485
tp486
a(g238
VNN
p487
tp488
a(g164
V''
p489
tp490
a(g25
g25
tp491
a(g161
VNN
p492
tp493
a(g164
V''
p494
tp495
a(g25
g25
tp496
a(g164
V''
p497
tp498
a(g25
g25
tp499
a(g161
VNN
p500
tp501
a(g164
V''
p502
tp503
a(g461
VLS
p504
tp505
a(g184
VNN
p506
tp507
a(g184
VNN
p508
tp509
a(g350
VNN
p510
tp511
a(g164
V''
p512
tp513
a(g25
g25
tp514
a(g161
VNN
p515
tp516
a(g164
VPOS
p517
tp518
a(g43
VNN
p519
tp520
a(g164
V''
p521
tp522
a(g25
g25
tp523
a(g161
VNN
p524
tp525
a(g164
VPOS
p526
tp527
a(g248
VNN
p528
tp529
a(g229
VNN
p530
tp531
a(g190
VSYM
p532
tp533
a(g210
VDT
p534
tp535
a(Vk
p536
VNN
p537
tp538
a(g461
VSYM
p539
tp540
a(g210
VDT
p541
tp542
a(g173
VNN
p543
tp544
a(g187
VNN
p545
tp546
a(g164
V''
p547
tp548
a(g25
g25
tp549
a(g161
VNN
p550
tp551
a(g164
V''
p552
tp553
a(g350
VFW
p554
tp555
a(g171
VFW
p556
tp557
a(g367
VNN
p558
tp559
a(g367
VNN
p560
tp561
a(g190
VSYM
p562
tp563
a(g229
VNN
p564
tp565
a(g164
V''
p566
tp567
a(g25
g25
tp568
a(g161
VNN
p569
tp570
a(g164
VPOS
p571
tp572
a(g38
VNN
p573
tp574
a(g164
V''
p575
tp576
a(g25
g25
tp577
a(g161
VNN
p578
tp579
a(g164
V''
p580
tp581
a(g190
VLS
p582
tp583
a(Vx
p584
VNN
p585
tp586
a(g283
VNN
p587
tp588
a(g190
VSYM
p589
tp590
a(g192
VNN
p591
tp592
a(g192
VNN
p593
tp594
a(g190
VSYM
p595
tp596
a(g367
VNN
p597
tp598
a(g187
VNN
p599
tp600
a(g91
g91
tp601
a(g164
V''
p602
tp603
a(g25
g25
tp604
a(g161
VNN
p605
tp606
a(g164
VPOS
p607
tp608
a(g166
VNN
p609
tp610
a(g168
VNN
p611
tp612
a(g190
VSYM
p613
tp614
a(g164
V''
p615
tp616
a(g25
g25
tp617
a(g161
VNN
p618
tp619
a(g164
VPOS
p620
tp621
a(g229
VNN
p622
tp623
a(g184
VNN
p624
tp625
a(g184
VNN
p626
tp627
a(g238
VNN
p628
tp629
a(g173
VNN
p630
tp631
a(g164
V''
p632
tp633
a(g25
g25
tp634
a(g161
VNN
p635
tp636
a(g164
VPOS
p637
tp638
a(g283
VNN
p639
tp640
a(g192
VNN
p641
tp642
a(g190
VSYM
p643
tp644
a(g210
VDT
p645
tp646
a(g367
VNN
p647
tp648
a(g164
V''
p649
tp650
a(g25
g25
tp651
a(g161
VNN
p652
tp653
a(g164
VPOS
p654
tp655
a(Vw
p656
VNN
p657
tp658
a(g190
VSYM
p659
tp660
a(g192
VNN
p661
tp662
a(g192
VNN
p663
tp664
a(g164
V''
p665
tp666
a(g25
g25
tp667
a(g161
VNN
p668
tp669
a(g164
V''
p670
tp671
a(g461
VFW
p672
tp673
a(g161
VFW
p674
tp675
a(g229
VNN
p676
tp677
a(g248
VNN
p678
tp679
a(g171
VFW
p680
tp681
a(g173
VNN
p682
tp683
a(g168
VNN
p684
tp685
a(g190
VSYM
p686
tp687
a(g350
VNN
p688
tp689
a(g91
g91
tp690
a(g164
V''
p691
tp692
a(g25
g25
tp693
a(g161
VNN
p694
tp695
a(g164
VPOS
p696
tp697
a(VV
p698
VNN
p699
tp700
a(g190
VSYM
p701
tp702
a(g229
VNN
p703
tp704
a(g402
VNN
p705
tp706
a(g164
V''
p707
tp708
a(g25
g25
tp709
a(g161
VNN
p710
tp711
a(g164
VPOS
p712
tp713
a(g283
VNN
p714
tp715
a(g184
VNN
p716
tp717
a(g238
VNN
p718
tp719
a(g461
VFW
p720
tp721
a(g184
VNN
p722
tp723
a(g229
VNN
p724
tp725
a(g187
VNN
p726
tp727
a(g210
VDT
p728
tp729
a(g248
VNN
p730
tp731
a(g192
VNN
p732
tp733
a(g190
VSYM
p734
tp735
a(g164
V''
p736
tp737
a(g25
g25
tp738
a(g161
VNN
p739
tp740
a(g164
V''
p741
tp742
a(g25
g25
tp743
a(g164
V''
p744
tp745
a(g25
g25
tp746
a(g161
VNN
p747
tp748
a(g164
V''
p749
tp750
a(g461
VLS
p751
tp752
a(g190
VLS
p753
tp754
a(g192
VNN
p755
tp756
a(g187
VNN
p757
tp758
a(g164
V''
p759
tp760
a(g25
g25
tp761
a(g161
VNN
p762
tp763
a(g164
VPOS
p764
tp765
a(g192
VNN
p766
tp767
a(g171
VFW
p768
tp769
a(g536
VNN
p770
tp771
a(g190
VSYM
p772
tp773
a(g164
V''
p774
tp775
a(g25
g25
tp776
a(g161
VNN
p777
tp778
a(g164
VPOS
p779
tp780
a(g168
VNN
p781
tp782
a(g184
VNN
p783
tp784
a(g238
VNN
p785
tp786
a(g190
VLS
p787
tp788
a(g91
g91
tp789
a(g164
V''
p790
tp791
a(g25
g25
tp792
a(g161
VNN
p793
tp794
a(g164
VPOS
p795
tp796
a(g166
VNN
p797
tp798
a(g168
VNN
p799
tp800
a(g190
VSYM
p801
tp802
a(g164
V''
p803
tp804
a(g25
g25
tp805
a(g161
VNN
p806
tp807
a(g164
VPOS
p808
tp809
a(g173
VNN
p810
tp811
a(g187
VNN
p812
tp813
a(g210
VDT
p814
tp815
a(g461
VFW
p816
tp817
a(g461
VFW
p818
tp819
a(g164
V''
p820
tp821
a(g25
g25
tp822
a(g161
VNN
p823
tp824
a(g164
V''
p825
tp826
a(g238
VNN
p827
tp828
a(g210
VDT
p829
tp830
a(g367
VNN
p831
tp832
a(g210
VDT
p833
tp834
a(g212
VNN
p835
tp836
a(g190
VSYM
p837
tp838
a(g238
VNN
p839
tp840
a(g190
VSYM
p841
tp842
a(g367
VNN
p843
tp844
a(g187
VNN
p845
tp846
a(g164
V''
p847
tp848
a(g25
g25
tp849
a(g161
VNN
p850
tp851
a(g164
VPOS
p852
tp853
a(g283
VNN
p854
tp855
a(g168
VNN
p856
tp857
a(g190
VSYM
p858
tp859
a(g461
VFW
p860
tp861
a(g164
V''
p862
tp863
a(g25
g25
tp864
a(g161
VNN
p865
tp866
a(g164
VPOS
p867
tp868
a(g248
VNN
p869
tp870
a(g210
VDT
p871
tp872
a(g229
VNN
p873
tp874
a(V/
p875
g151
tp876
a(g656
VFW
p877
tp878
a(g210
VFW
p879
tp880
a(g171
VFW
p881
tp882
a(g187
VNN
p883
tp884
a(g164
V''
p885
tp886
a(g25
g25
tp887
a(g161
VNN
p888
tp889
a(g164
VPOS
p890
tp891
a(g173
VNN
p892
tp893
a(g187
VNN
p894
tp895
a(g210
VDT
p896
tp897
a(g461
VFW
p898
tp899
a(g461
VFW
p900
tp901
a(g164
V''
p902
tp903
a(g25
g25
tp904
a(g161
VNN
p905
tp906
a(g164
V''
p907
tp908
a(g461
VLS
p909
tp910
a(g229
VNN
p911
tp912
a(g171
VFW
p913
tp914
a(g190
VLS
p915
tp916
a(g367
VNN
p917
tp918
a(g350
VNN
p919
tp920
a(g192
VNN
p921
tp922
a(g402
VNN
p923
tp924
a(g164
V''
p925
tp926
a(g25
g25
tp927
a(g161
VNN
p928
tp929
a(g164
V''
p930
tp931
a(g25
g25
tp932
a(g164
V''
p933
tp934
a(g25
g25
tp935
a(g161
VNN
p936
tp937
a(g164
VPOS
p938
tp939
a(g168
VNN
p940
tp941
a(g190
VSYM
p942
tp943
a(g192
VNN
p944
tp945
a(g358
VNN
p946
tp947
a(g461
VFW
p948
tp949
a(g161
VFW
p950
tp951
a(g192
VNN
p952
tp953
a(g164
V''
p954
tp955
a(g25
g25
tp956
a(g161
VNN
p957
tp958
a(g164
V''
p959
tp960
a(g210
VDT
p961
tp962
a(g173
VNN
p963
tp964
a(g173
VNN
p965
tp966
a(g190
VSYM
p967
tp968
a(g187
VNN
p969
tp970
a(g164
V''
p971
tp972
a(g25
g25
tp973
a(g161
VNN
p974
tp975
a(g164
VPOS
p976
tp977
a(g168
VNN
p978
tp979
a(g184
VNN
p980
tp981
a(g187
VNN
p982
tp983
a(g190
VSYM
p984
tp985
a(g192
VNN
p986
tp987
a(g91
g91
tp988
a(g164
V''
p989
tp990
a(g25
g25
tp991
a(g161
VNN
p992
tp993
a(g164
VPOS
p994
tp995
a(VP
p996
VNN
p997
tp998
a(g192
VNN
p999
tp1000
a(g190
VSYM
p1001
tp1002
a(g367
VNN
p1003
tp1004
a(g187
VNN
p1005
tp1006
a(g402
VNN
p1007
tp1008
a(g164
V''
p1009
tp1010
a(g25
g25
tp1011
a(g161
VNN
p1012
tp1013
a(g164
VPOS
p1014
tp1015
a(g173
VNN
p1016
tp1017
a(g171
VLS
p1018
tp1019
a(g187
VNN
p1020
tp1021
a(g190
VSYM
p1022
tp1023
a(g164
V''
p1024
tp1025
a(g25
g25
tp1026
a(g161
VNN
p1027
tp1028
a(g164
V''
p1029
tp1030
a(g358
VNN
p1031
tp1032
a(g210
VDT
p1033
tp1034
a(g229
VNN
p1035
tp1036
a(g536
VNN
p1037
tp1038
a(g171
VFW
p1039
tp1040
a(g367
VNN
p1041
tp1042
a(g212
VNN
p1043
tp1044
a(g164
V''
p1045
tp1046
a(g25
g25
tp1047
a(g161
VNN
p1048
tp1049
a(g164
VPOS
p1050
tp1051
a(g283
VNN
p1052
tp1053
a(g192
VNN
p1054
tp1055
a(g184
VNN
p1056
tp1057
a(g173
VVBZ
p1058
tp1059
a(g190
VLS
p1060
tp1061
a(g164
V''
p1062
tp1063
a(g25
g25
tp1064
a(g161
VNN
p1065
tp1066
a(g164
V''
p1067
tp1068
a(VB
p1069
VNN
p1070
tp1071
a(g210
VDT
p1072
tp1073
a(g187
VNN
p1074
tp1075
a(g168
VNN
p1076
tp1077
a(g164
V''
p1078
tp1079
a(g25
g25
tp1080
a(g161
VNN
p1081
tp1082
a(g164
V''
p1083
tp1084
a(g25
g25
tp1085
a(g164
V''
p1086
tp1087
a(g25
g25
tp1088
a(g161
VNN
p1089
tp1090
a(g164
V''
p1091
tp1092
a(VL
p1093
VNN
p1094
tp1095
a(g210
VDT
p1096
tp1097
a(g283
VNN
p1098
tp1099
a(g184
VNN
p1100
tp1101
a(g283
VNN
p1102
tp1103
a(g536
VNN
p1104
tp1105
a(g164
V''
p1106
tp1107
a(g25
g25
tp1108
a(g161
VNN
p1109
tp1110
a(g164
VPOS
p1111
tp1112
a(g173
VNN
p1113
tp1114
a(g171
VFW
p1115
tp1116
a(g212
VNN
p1117
tp1118
a(g168
VNN
p1119
tp1120
a(g187
VNN
p1121
tp1122
a(g173
VVBZ
p1123
tp1124
a(g190
VLS
p1125
tp1126
a(g190
VSYM
p1127
tp1128
a(g171
VFW
p1129
tp1130
a(g367
VNN
p1131
tp1132
a(g212
VNN
p1133
tp1134
a(g164
V''
p1135
tp1136
a(g25
g25
tp1137
a(g161
VNN
p1138
tp1139
a(g164
VPOS
p1140
tp1141
a(g358
VNN
p1142
tp1143
a(g192
VNN
p1144
tp1145
a(g210
VDT
p1146
tp1147
a(g283
VNN
p1148
tp1149
a(g190
VSYM
p1150
tp1151
a(g173
VNN
p1152
tp1153
a(g91
g91
tp1154
a(g164
V''
p1155
tp1156
a(g25
g25
tp1157
a(g161
VNN
p1158
tp1159
a(g164
VPOS
p1160
tp1161
a(g384
VNN
p1162
tp1163
a(g190
VSYM
p1164
tp1165
a(g164
V''
p1166
tp1167
a(g25
g25
tp1168
a(g161
VNN
p1169
tp1170
a(g164
VPOS
p1171
tp1172
a(g350
VNN
p1173
tp1174
a(g190
VSYM
p1175
tp1176
a(g461
VFW
p1177
tp1178
a(g171
VFW
p1179
tp1180
a(g367
VNN
p1181
tp1182
a(g171
VLS
p1183
tp1184
a(g187
VNN
p1185
tp1186
a(g190
VSYM
p1187
tp1188
a(g192
VNN
p1189
tp1190
a(g402
VNN
p1191
tp1192
a(g164
V''
p1193
tp1194
a(g25
g25
tp1195
a(g161
VNN
p1196
tp1197
a(g164
VPOS
p1198
tp1199
a(g173
VNN
p1200
tp1201
a(g187
VNN
p1202
tp1203
a(g210
VDT
p1204
tp1205
a(g402
VNN
p1206
tp1207
a(g164
V''
p1208
tp1209
a(g25
g25
tp1210
a(g161
VNN
p1211
tp1212
a(g164
V''
p1213
tp1214
a(g210
VDT
p1215
tp1216
a(g212
VNN
p1217
tp1218
a(g210
VFW
p1219
tp1220
a(g171
VFW
p1221
tp1222
a(g367
VNN
p1223
tp1224
a(g91
g91
tp1225
a(g164
V''
p1226
tp1227
a(g25
g25
tp1228
a(g161
VNN
p1229
tp1230
a(g164
VPOS
p1231
tp1232
a(g166
VNN
p1233
tp1234
a(g168
VNN
p1235
tp1236
a(g184
VNN
p1237
tp1238
a(g229
VNN
p1239
tp1240
a(g184
VNN
p1241
tp1242
a(g161
VNN
p1243
tp1244
a(g212
VNN
p1245
tp1246
a(g168
VNN
p1247
tp1248
a(g192
VNN
p1249
tp1250
a(g402
VNN
p1251
tp1252
a(g164
V''
p1253
tp1254
a(g25
g25
tp1255
a(g161
VNN
p1256
tp1257
a(g164
VPOS
p1258
tp1259
a(g229
VNN
p1260
tp1261
a(g190
VSYM
p1262
tp1263
a(g283
VNN
p1264
tp1265
a(g184
VNN
p1266
tp1267
a(g238
VNN
p1268
tp1269
a(g238
VNN
p1270
tp1271
a(g190
VSYM
p1272
tp1273
a(g367
VNN
p1274
tp1275
a(g350
VNN
p1276
tp1277
a(g164
V''
p1278
tp1279
a(g25
g25
tp1280
a(g161
VNN
p1281
tp1282
a(g164
VPOS
p1283
tp1284
a(g168
VNN
p1285
tp1286
a(g184
VNN
p1287
tp1288
a(g187
VNN
p1289
tp1290
a(g190
VSYM
p1291
tp1292
a(g192
VNN
p1293
tp1294
a(g164
V''
p1295
tp1296
a(g25
g25
tp1297
a(g161
VNN
p1298
tp1299
a(g164
V''
p1300
tp1301
a(g91
g91
tp1302
a(g164
V''
p1303
tp1304
a(V]
p1305
VNN
p1306
tp1307
asS'tagged_title'
p1308
(lp1309
(g159
VFW
p1310
tp1311
a(g161
VFW
p1312
tp1313
a(g164
VPOS
p1314
tp1315
a(g336
VNN
p1316
tp1317
a(g184
VNN
p1318
tp1319
a(g161
VNN
p1320
tp1321
a(g164
V''
p1322
tp1323
a(g25
g25
tp1324
a(g161
VNN
p1325
tp1326
a(g164
VPOS
p1327
tp1328
a(g656
VNN
p1329
tp1330
a(g184
VNN
p1331
tp1332
a(g367
VNN
p1333
tp1334
a(g164
V''
p1335
tp1336
a(g25
g25
tp1337
a(g161
VNN
p1338
tp1339
a(g164
V''
p1340
tp1341
a(g46
VCC
p1342
tp1343
a(g164
V''
p1344
tp1345
a(g25
g25
tp1346
a(g161
VNN
p1347
tp1348
a(g164
V''
p1349
tp1350
a(g210
VDT
p1351
tp1352
a(g283
VNN
p1353
tp1354
a(g161
VNN
p1355
tp1356
a(g187
VNN
p1357
tp1358
a(g190
VSYM
p1359
tp1360
a(g164
V''
p1361
tp1362
a(g25
g25
tp1363
a(g161
VNN
p1364
tp1365
a(g164
V''
p1366
tp1367
a(g19
g151
tp1368
a(g164
V''
p1369
tp1370
a(g25
g25
tp1371
a(g161
VNN
p1372
tp1373
a(g164
VPOS
p1374
tp1375
a(g187
VNN
p1376
tp1377
a(g164
V''
p1378
tp1379
a(g25
g25
tp1380
a(g161
VNN
p1381
tp1382
a(g164
VPOS
p1383
tp1384
a(g248
VNN
p1385
tp1386
a(g190
VSYM
p1387
tp1388
a(g164
V''
p1389
tp1390
a(g25
g25
tp1391
a(g161
VNN
p1392
tp1393
a(g164
V''
p1394
tp1395
a(g350
VFW
p1396
tp1397
a(g171
VFW
p1398
tp1399
a(g173
VVBZ
p1400
tp1401
a(g210
VDT
p1402
tp1403
a(g358
VNN
p1404
tp1405
a(g358
VNN
p1406
tp1407
a(g184
VNN
p1408
tp1409
a(g171
VFW
p1410
tp1411
a(g367
VNN
p1412
tp1413
a(g187
VNN
p1414
tp1415
a(g190
VSYM
p1416
tp1417
a(g350
VNN
p1418
tp1419
a(g164
V''
p1420
tp1421
a(g1305
VNN
p1422
tp1423
asVtotal_points
p1424
V101
p1425
sVdate
p1426
V9/18/2012
p1427
sVtaObjectUrl
p1428
Vhttp://www.tripadvisor.com/Hotel_Review-g209966-d571670-Reviews-Methuen_Arms_Hotel-Corsham_Wiltshire_England.html
p1429
sVtype
p1430
VHotels
p1431
sS'pos_unigram'
p1432
(lp1433
g142
ag162
ag145
ag141
ag169
ag148
ag152
ag175
ag25
ag178
ag180
ag182
ag185
ag188
ag144
ag193
ag146
ag25
ag197
ag199
ag202
ag204
ag206
ag208
ag150
ag213
ag215
ag217
ag25
ag220
ag222
ag225
ag227
ag230
ag232
ag234
ag236
ag239
ag241
ag25
ag244
ag246
ag249
ag251
ag253
ag255
ag257
ag25
ag260
ag262
ag153
ag266
ag25
ag269
ag271
ag143
ag274
ag25
ag277
ag279
ag281
ag284
ag286
ag288
ag290
ag292
ag25
ag295
ag297
ag151
ag300
ag25
ag303
ag305
ag307
ag309
ag311
ag313
ag315
ag25
ag318
ag320
ag322
ag324
ag326
ag91
ag329
ag25
ag332
ag334
ag337
ag339
ag341
ag343
ag25
ag346
ag348
ag351
ag353
ag149
ag356
ag359
ag361
ag363
ag365
ag368
ag370
ag372
ag374
ag91
ag377
ag25
ag380
ag382
ag385
ag387
ag389
ag25
ag392
ag394
ag396
ag398
ag400
ag403
ag405
ag407
ag409
ag25
ag412
ag414
ag147
ag417
ag25
ag420
ag422
ag424
ag426
ag428
ag430
ag432
ag91
ag435
ag25
ag438
ag440
ag442
ag444
ag446
ag448
ag25
ag451
ag453
ag455
ag457
ag459
ag462
ag464
ag466
ag25
ag469
ag471
ag25
ag474
ag25
ag477
ag479
ag481
ag483
ag485
ag487
ag489
ag25
ag492
ag494
ag25
ag497
ag25
ag500
ag502
ag504
ag506
ag508
ag510
ag512
ag25
ag515
ag517
ag519
ag521
ag25
ag524
ag526
ag528
ag530
ag532
ag534
ag537
ag539
ag541
ag543
ag545
ag547
ag25
ag550
ag552
ag554
ag556
ag558
ag560
ag562
ag564
ag566
ag25
ag569
ag571
ag573
ag575
ag25
ag578
ag580
ag582
ag585
ag587
ag589
ag591
ag593
ag595
ag597
ag599
ag91
ag602
ag25
ag605
ag607
ag609
ag611
ag613
ag615
ag25
ag618
ag620
ag622
ag624
ag626
ag628
ag630
ag632
ag25
ag635
ag637
ag639
ag641
ag643
ag645
ag647
ag649
ag25
ag652
ag654
ag657
ag659
ag661
ag663
ag665
ag25
ag668
ag670
ag672
ag674
ag676
ag678
ag680
ag682
ag684
ag686
ag688
ag91
ag691
ag25
ag694
ag696
ag699
ag701
ag703
ag705
ag707
ag25
ag710
ag712
ag714
ag716
ag718
ag720
ag722
ag724
ag726
ag728
ag730
ag732
ag734
ag736
ag25
ag739
ag741
ag25
ag744
ag25
ag747
ag749
ag751
ag753
ag755
ag757
ag759
ag25
ag762
ag764
ag766
ag768
ag770
ag772
ag774
ag25
ag777
ag779
ag781
ag783
ag785
ag787
ag91
ag790
ag25
ag793
ag795
ag797
ag799
ag801
ag803
ag25
ag806
ag808
ag810
ag812
ag814
ag816
ag818
ag820
ag25
ag823
ag825
ag827
ag829
ag831
ag833
ag835
ag837
ag839
ag841
ag843
ag845
ag847
ag25
ag850
ag852
ag854
ag856
ag858
ag860
ag862
ag25
ag865
ag867
ag869
ag871
ag873
ag151
ag877
ag879
ag881
ag883
ag885
ag25
ag888
ag890
ag892
ag894
ag896
ag898
ag900
ag902
ag25
ag905
ag907
ag909
ag911
ag913
ag915
ag917
ag919
ag921
ag923
ag925
ag25
ag928
ag930
ag25
ag933
ag25
ag936
ag938
ag940
ag942
ag944
ag946
ag948
ag950
ag952
ag954
ag25
ag957
ag959
ag961
ag963
ag965
ag967
ag969
ag971
ag25
ag974
ag976
ag978
ag980
ag982
ag984
ag986
ag91
ag989
ag25
ag992
ag994
ag997
ag999
ag1001
ag1003
ag1005
ag1007
ag1009
ag25
ag1012
ag1014
ag1016
ag1018
ag1020
ag1022
ag1024
ag25
ag1027
ag1029
ag1031
ag1033
ag1035
ag1037
ag1039
ag1041
ag1043
ag1045
ag25
ag1048
ag1050
ag1052
ag1054
ag1056
ag1058
ag1060
ag1062
ag25
ag1065
ag1067
ag1070
ag1072
ag1074
ag1076
ag1078
ag25
ag1081
ag1083
ag25
ag1086
ag25
ag1089
ag1091
ag1094
ag1096
ag1098
ag1100
ag1102
ag1104
ag1106
ag25
ag1109
ag1111
ag1113
ag1115
ag1117
ag1119
ag1121
ag1123
ag1125
ag1127
ag1129
ag1131
ag1133
ag1135
ag25
ag1138
ag1140
ag1142
ag1144
ag1146
ag1148
ag1150
ag1152
ag91
ag1155
ag25
ag1158
ag1160
ag1162
ag1164
ag1166
ag25
ag1169
ag1171
ag1173
ag1175
ag1177
ag1179
ag1181
ag1183
ag1185
ag1187
ag1189
ag1191
ag1193
ag25
ag1196
ag1198
ag1200
ag1202
ag1204
ag1206
ag1208
ag25
ag1211
ag1213
ag1215
ag1217
ag1219
ag1221
ag1223
ag91
ag1226
ag25
ag1229
ag1231
ag1233
ag1235
ag1237
ag1239
ag1241
ag1243
ag1245
ag1247
ag1249
ag1251
ag1253
ag25
ag1256
ag1258
ag1260
ag1262
ag1264
ag1266
ag1268
ag1270
ag1272
ag1274
ag1276
ag1278
ag25
ag1281
ag1283
ag1285
ag1287
ag1289
ag1291
ag1293
ag1295
ag25
ag1298
ag1300
ag91
ag1303
ag1306
asVhelpfulness
p1434
V1
p1435
sVtaObjectCity
p1436
VCorsham
p1437
s.(dp0
Vrating
p1
V5
p2
sVtext
p3
VThis hotel was excellent. We stayed 3 nites in a beautiful very clean upstairs king size room with balcony and view of the Eiffel Tower. The staff were very helpful and friendly. The location was excellent, close to everything, sights, restaurants, trains/bus. Very safe area, able to walk anywhere with no concerns. Don&acute;t have one complaint about this hotel and would definitely stay there again.
p4
sS'title_length'
p5
I403
sS'bigram_counts'
p6
ccollections
Counter
p7
((dp8
(V3
p9
Vnites
p10
tp11
I1
s(Vable
p12
Vwalk
p13
tp14
I1
s(Vlocation
p15
Vexcellent
p16
tp17
I1
s(Vexcellent.
p18
Vstayed
p19
tp20
I1
s(Vacute
p21
V;
p22
tp23
I1
s(Vhelpful
p24
Vfriendly.
p25
tp26
I1
s(Vbeautiful
p27
Vclean
p28
tp29
I1
s(Vrestaurants
p30
V,
p31
tp32
I1
s(Vconcerns.
p33
V&
p34
tp35
I1
s(Veiffel
p36
Vtower.
p37
tp38
I1
s(Veverything
p39
g31
tp40
I1
s(Vbalcony
p41
Vview
p42
tp43
I1
s(g31
g12
tp44
I1
s(g10
g27
tp45
I1
s(Vhotel
p46
g18
tp47
I1
s(Varea
p48
g31
tp49
I1
s(Vdefinitely
p50
Vstay
p51
tp52
I1
s(g37
Vstaff
p53
tp54
I1
s(Vanywhere
p55
g33
tp56
I1
s(Vupstairs
p57
Vking
p58
tp59
I1
s(g31
Vtrains/bus.
p60
tp61
I1
s(g31
g30
tp62
I1
s(g58
Vsize
p63
tp64
I1
s(g22
Vone
p65
tp66
I1
s(Vsafe
p67
g48
tp68
I1
s(g31
Vsights
p69
tp70
I1
s(g63
Vroom
p71
tp72
I1
s(Vclose
p73
g39
tp74
I1
s(g34
g21
tp75
I1
s(g69
g31
tp76
I1
s(g31
g73
tp77
I1
s(g53
g24
tp78
I1
s(g28
g57
tp79
I1
s(g13
g55
tp80
I1
s(g16
g31
tp81
I1
s(g51
V.
p82
tp83
I1
s(Vhotel
p84
Vwould
p85
tp86
I1
s(g85
g50
tp87
I1
s(g42
g36
tp88
I1
s(g71
g41
tp89
I1
s(g65
Vcomplaint
p90
tp91
I1
s(g19
g9
tp92
I1
s(g90
g84
tp93
I1
s(g60
g67
tp94
I1
s(g25
g15
tp95
I1
stp96
Rp97
sS'rev_unigrams'
p98
(lp99
g46
ag18
ag19
ag9
ag10
ag27
ag28
ag57
ag58
ag63
ag71
ag41
ag42
ag36
ag37
ag53
ag24
ag25
ag15
ag16
ag31
ag73
ag39
ag31
ag69
ag31
ag30
ag31
ag60
ag67
ag48
ag31
ag12
ag13
ag55
ag33
ag34
ag21
ag22
ag65
ag90
ag84
ag85
ag50
ag51
ag82
asVid
p100
V90
p101
sVtaObject
p102
VBedford Hotel
p103
sVtitle
p104
VFantastic
p105
sS'unigram_counts'
p106
g7
((dp107
g27
I1
sg57
I1
sg69
I1
sg13
I1
sg48
I1
sg37
I1
sg73
I1
sg53
I1
sg41
I1
sg85
I1
sg34
I1
sg12
I1
sg31
I5
sg19
I1
sg82
I1
sg39
I1
sg9
I1
sg55
I1
sg15
I1
sg22
I1
sg63
I1
sg18
I1
sg90
I1
sg36
I1
sg58
I1
sg46
I2
sg51
I1
sg33
I1
sg16
I1
sg65
I1
sg24
I1
sg10
I1
sg21
I1
sg67
I1
sg71
I1
sg60
I1
sg50
I1
sg28
I1
sg25
I1
sg42
I1
sg30
I1
stp108
Rp109
sS'rev_bigrams'
p110
(lp111
g47
ag20
ag92
ag11
ag45
ag29
ag79
ag59
ag64
ag72
ag89
ag43
ag88
ag38
ag54
ag78
ag26
ag95
ag17
ag81
ag77
ag74
ag40
ag70
ag76
ag62
ag32
ag61
ag94
ag68
ag49
ag44
ag14
ag80
ag56
ag35
ag75
ag23
ag66
ag91
ag93
ag86
ag87
ag52
ag83
asS'pos_count'
p112
ccollections
defaultdict
p113
(c__builtin__
int
p114
tp115
Rp116
V:
p117
I2
sVNN
p118
I212
sVFW
p119
I35
sVCC
p120
I1
sg31
I56
sVSYM
p121
I26
sVPOS
p122
I35
sV''
p123
I69
sVCD
p124
I1
sVLS
p125
I17
sVVBZ
p126
I1
sVDT
p127
I12
sg82
I6
sVNNS
p128
I2
ssS'rev_length'
p129
I403
sVusername
p130
V124_10
p131
sS'tagged_text'
p132
(lp133
(V[
p134
g119
tp135
a(Vu
p136
VFW
p137
tp138
a(V'
p139
g122
tp140
a(VT
p141
g118
tp142
a(Vh
p143
VNN
p144
tp145
a(Vi
p146
g125
tp147
a(Vs
p148
g128
tp149
a(g139
VPOS
p150
tp151
a(g31
g31
tp152
a(g136
VNN
p153
tp154
a(g139
VPOS
p155
tp156
a(g143
VNN
p157
tp158
a(Vo
p159
VNN
p160
tp161
a(Vt
p162
VNN
p163
tp164
a(Ve
p165
g121
tp166
a(Vl
p167
VNN
p168
tp169
a(g139
g123
tp170
a(g31
g31
tp171
a(g136
VNN
p172
tp173
a(g139
V''
p174
tp175
a(g165
VLS
p176
tp177
a(Vx
p178
VNN
p179
tp180
a(Vc
p181
VNN
p182
tp183
a(g165
VSYM
p184
tp185
a(g167
VNN
p186
tp187
a(g167
VNN
p188
tp189
a(g165
VSYM
p190
tp191
a(Vn
p192
VNN
p193
tp194
a(g162
VNN
p195
tp196
a(g82
g82
tp197
a(g139
V''
p198
tp199
a(g31
g31
tp200
a(g136
VNN
p201
tp202
a(g139
VPOS
p203
tp204
a(VW
p205
VNN
p206
tp207
a(g165
VSYM
p208
tp209
a(g139
V''
p210
tp211
a(g31
g31
tp212
a(g136
VNN
p213
tp214
a(g139
VPOS
p215
tp216
a(g148
VNN
p217
tp218
a(g162
VNN
p219
tp220
a(Va
p221
VFW
p222
tp223
a(Vy
p224
VFW
p225
tp226
a(g165
VLS
p227
tp228
a(Vd
p229
VNN
p230
tp231
a(g139
V''
p232
tp233
a(g31
g31
tp234
a(g136
VNN
p235
tp236
a(g139
V''
p237
tp238
a(g9
g124
tp239
a(g139
V''
p240
tp241
a(g31
g31
tp242
a(g136
VNN
p243
tp244
a(g139
VPOS
p245
tp246
a(g192
VNN
p247
tp248
a(g146
VFW
p249
tp250
a(g162
VNN
p251
tp252
a(g165
VSYM
p253
tp254
a(g148
VNNS
p255
tp256
a(g139
VPOS
p257
tp258
a(g31
g31
tp259
a(g136
VNN
p260
tp261
a(g139
VPOS
p262
tp263
a(Vb
p264
VNN
p265
tp266
a(g165
VSYM
p267
tp268
a(g221
VFW
p269
tp270
a(g136
VFW
p271
tp272
a(g162
VNN
p273
tp274
a(g146
VFW
p275
tp276
a(Vf
p277
VFW
p278
tp279
a(g136
VFW
p280
tp281
a(g167
VNN
p282
tp283
a(g139
V''
p284
tp285
a(g31
g31
tp286
a(g136
VNN
p287
tp288
a(g139
VPOS
p289
tp290
a(g181
VNN
p291
tp292
a(g167
VNN
p293
tp294
a(g165
VSYM
p295
tp296
a(g221
g127
tp297
a(g192
VNN
p298
tp299
a(g139
V''
p300
tp301
a(g31
g31
tp302
a(g136
VNN
p303
tp304
a(g139
VPOS
p305
tp306
a(g136
VNN
p307
tp308
a(Vp
p309
VNN
p310
tp311
a(g148
VNN
p312
tp313
a(g162
VNN
p314
tp315
a(g221
VFW
p316
tp317
a(g146
VFW
p318
tp319
a(Vr
p320
VNN
p321
tp322
a(g148
VNN
p323
tp324
a(g139
V''
p325
tp326
a(g31
g31
tp327
a(g136
VNN
p328
tp329
a(g139
VPOS
p330
tp331
a(Vk
p332
VNN
p333
tp334
a(g146
VFW
p335
tp336
a(g192
VNN
p337
tp338
a(Vg
p339
VNN
p340
tp341
a(g139
V''
p342
tp343
a(g31
g31
tp344
a(g136
VNN
p345
tp346
a(g139
VPOS
p347
tp348
a(g148
VNN
p349
tp350
a(g146
VFW
p351
tp352
a(Vz
p353
VSYM
p354
tp355
a(g165
VLS
p356
tp357
a(g139
V''
p358
tp359
a(g31
g31
tp360
a(g136
VNN
p361
tp362
a(g139
VPOS
p363
tp364
a(g320
VNN
p365
tp366
a(g159
VNN
p367
tp368
a(g159
VNN
p369
tp370
a(Vm
p371
VNN
p372
tp373
a(g139
V''
p374
tp375
a(g31
g31
tp376
a(g136
VNN
p377
tp378
a(g139
VPOS
p379
tp380
a(g264
VNN
p381
tp382
a(g221
VDT
p383
tp384
a(g167
VNN
p385
tp386
a(g181
VNN
p387
tp388
a(g159
VNN
p389
tp390
a(g192
VNN
p391
tp392
a(g224
VNN
p393
tp394
a(g139
V''
p395
tp396
a(g31
g31
tp397
a(g136
VNN
p398
tp399
a(g139
V''
p400
tp401
a(Vv
p402
VLS
p403
tp404
a(g146
VLS
p405
tp406
a(g165
VLS
p407
tp408
a(Vw
p409
VNN
p410
tp411
a(g139
V''
p412
tp413
a(g31
g31
tp414
a(g136
VNN
p415
tp416
a(g139
VPOS
p417
tp418
a(VE
p419
VNN
p420
tp421
a(g146
VFW
p422
tp423
a(g277
VFW
p424
tp425
a(g277
VFW
p426
tp427
a(g165
VLS
p428
tp429
a(g167
VNN
p430
tp431
a(g139
V''
p432
tp433
a(g31
g31
tp434
a(g136
VNN
p435
tp436
a(g139
VPOS
p437
tp438
a(g141
VNN
p439
tp440
a(g159
VNN
p441
tp442
a(g409
VNN
p443
tp444
a(g165
VSYM
p445
tp446
a(g320
VNN
p447
tp448
a(g82
g82
tp449
a(g139
V''
p450
tp451
a(g31
g31
tp452
a(g136
VNN
p453
tp454
a(g139
VPOS
p455
tp456
a(g141
VNN
p457
tp458
a(g143
VNN
p459
tp460
a(g165
VSYM
p461
tp462
a(g139
V''
p463
tp464
a(g31
g31
tp465
a(g136
VNN
p466
tp467
a(g139
VPOS
p468
tp469
a(g148
VNN
p470
tp471
a(g162
VNN
p472
tp473
a(g221
VDT
p474
tp475
a(g277
VFW
p476
tp477
a(g277
VFW
p478
tp479
a(g139
V''
p480
tp481
a(g31
g31
tp482
a(g136
VNN
p483
tp484
a(g139
VPOS
p485
tp486
a(g143
VNN
p487
tp488
a(g165
VSYM
p489
tp490
a(g167
VNN
p491
tp492
a(g309
VNN
p493
tp494
a(g277
VFW
p495
tp496
a(g136
VFW
p497
tp498
a(g167
VNN
p499
tp500
a(g139
V''
p501
tp502
a(g31
g31
tp503
a(g136
VNN
p504
tp505
a(g139
V''
p506
tp507
a(g277
VLS
p508
tp509
a(g320
VNN
p510
tp511
a(g146
VFW
p512
tp513
a(g165
VLS
p514
tp515
a(g192
VNN
p516
tp517
a(g229
VNN
p518
tp519
a(g167
VNN
p520
tp521
a(g224
VNN
p522
tp523
a(g82
g82
tp524
a(g139
V''
p525
tp526
a(g31
g31
tp527
a(g136
VNN
p528
tp529
a(g139
VPOS
p530
tp531
a(g141
VNN
p532
tp533
a(g143
VNN
p534
tp535
a(g165
VSYM
p536
tp537
a(g139
V''
p538
tp539
a(g31
g31
tp540
a(g136
VNN
p541
tp542
a(g139
VPOS
p543
tp544
a(g167
VNN
p545
tp546
a(g159
VNN
p547
tp548
a(g181
VNN
p549
tp550
a(g221
VDT
p551
tp552
a(g162
VNN
p553
tp554
a(g146
VFW
p555
tp556
a(g159
VNN
p557
tp558
a(g192
VNN
p559
tp560
a(g139
V''
p561
tp562
a(g31
g31
tp563
a(g136
VNN
p564
tp565
a(g139
V''
p566
tp567
a(g165
VLS
p568
tp569
a(g178
VNN
p570
tp571
a(g181
VNN
p572
tp573
a(g165
VSYM
p574
tp575
a(g167
VNN
p576
tp577
a(g167
VNN
p578
tp579
a(g165
VSYM
p580
tp581
a(g192
VNN
p582
tp583
a(g162
VNN
p584
tp585
a(g139
V''
p586
tp587
a(g31
g31
tp588
a(g136
VNN
p589
tp590
a(g139
V''
p591
tp592
a(g31
g31
tp593
a(g139
V''
p594
tp595
a(g31
g31
tp596
a(g136
VNN
p597
tp598
a(g139
VPOS
p599
tp600
a(g181
VNN
p601
tp602
a(g167
VNN
p603
tp604
a(g159
VNN
p605
tp606
a(g148
g126
tp607
a(g165
VLS
p608
tp609
a(g139
V''
p610
tp611
a(g31
g31
tp612
a(g136
VNN
p613
tp614
a(g139
V''
p615
tp616
a(g165
VLS
p617
tp618
a(g402
VLS
p619
tp620
a(g165
VLS
p621
tp622
a(g320
VNN
p623
tp624
a(g224
VNN
p625
tp626
a(g162
VNN
p627
tp628
a(g143
VNN
p629
tp630
a(g146
VFW
p631
tp632
a(g192
VNN
p633
tp634
a(g339
VNN
p635
tp636
a(g139
V''
p637
tp638
a(g31
g31
tp639
a(g136
VNN
p640
tp641
a(g139
V''
p642
tp643
a(g31
g31
tp644
a(g139
V''
p645
tp646
a(g31
g31
tp647
a(g136
VNN
p648
tp649
a(g139
VPOS
p650
tp651
a(g148
VNN
p652
tp653
a(g146
VFW
p654
tp655
a(g339
VNN
p656
tp657
a(g143
VNN
p658
tp659
a(g162
VNN
p660
tp661
a(g148
VNN
p662
tp663
a(g139
V''
p664
tp665
a(g31
g31
tp666
a(g136
VNN
p667
tp668
a(g139
V''
p669
tp670
a(g31
g31
tp671
a(g139
V''
p672
tp673
a(g31
g31
tp674
a(g136
VNN
p675
tp676
a(g139
VPOS
p677
tp678
a(g320
VNN
p679
tp680
a(g165
VSYM
p681
tp682
a(g148
VNN
p683
tp684
a(g162
VNN
p685
tp686
a(g221
VFW
p687
tp688
a(g136
VFW
p689
tp690
a(g320
VNN
p691
tp692
a(g221
VDT
p693
tp694
a(g192
VNN
p695
tp696
a(g162
VNN
p697
tp698
a(g148
VNN
p699
tp700
a(g139
V''
p701
tp702
a(g31
g31
tp703
a(g136
VNN
p704
tp705
a(g139
V''
p706
tp707
a(g31
g31
tp708
a(g139
V''
p709
tp710
a(g31
g31
tp711
a(g136
VNN
p712
tp713
a(g139
VPOS
p714
tp715
a(g162
VNN
p716
tp717
a(g320
VNN
p718
tp719
a(g221
VFW
p720
tp721
a(g146
VFW
p722
tp723
a(g192
VNN
p724
tp725
a(g148
VNN
p726
tp727
a(V/
p728
g117
tp729
a(g264
VNN
p730
tp731
a(g136
VNN
p732
tp733
a(g148
VNN
p734
tp735
a(g82
g82
tp736
a(g139
V''
p737
tp738
a(g31
g31
tp739
a(g136
VNN
p740
tp741
a(g139
VPOS
p742
tp743
a(VV
p744
VNN
p745
tp746
a(g165
VSYM
p747
tp748
a(g320
VNN
p749
tp750
a(g224
VNN
p751
tp752
a(g139
V''
p753
tp754
a(g31
g31
tp755
a(g136
VNN
p756
tp757
a(g139
VPOS
p758
tp759
a(g148
VNN
p760
tp761
a(g221
VFW
p762
tp763
a(g277
VFW
p764
tp765
a(g165
VLS
p766
tp767
a(g139
V''
p768
tp769
a(g31
g31
tp770
a(g136
VNN
p771
tp772
a(g139
V''
p773
tp774
a(g221
VDT
p775
tp776
a(g320
VNN
p777
tp778
a(g165
VSYM
p779
tp780
a(g221
VDT
p781
tp782
a(g139
V''
p783
tp784
a(g31
g31
tp785
a(g136
VNN
p786
tp787
a(g139
V''
p788
tp789
a(g31
g31
tp790
a(g139
V''
p791
tp792
a(g31
g31
tp793
a(g136
VNN
p794
tp795
a(g139
V''
p796
tp797
a(g221
VDT
p798
tp799
a(g264
VNN
p800
tp801
a(g167
VNN
p802
tp803
a(g165
VSYM
p804
tp805
a(g139
V''
p806
tp807
a(g31
g31
tp808
a(g136
VNN
p809
tp810
a(g139
V''
p811
tp812
a(g409
VNN
p813
tp814
a(g221
VDT
p815
tp816
a(g167
VNN
p817
tp818
a(g332
VNN
p819
tp820
a(g139
V''
p821
tp822
a(g31
g31
tp823
a(g136
VNN
p824
tp825
a(g139
V''
p826
tp827
a(g221
VDT
p828
tp829
a(g192
VNN
p830
tp831
a(g224
VNN
p832
tp833
a(g409
VNN
p834
tp835
a(g143
VNN
p836
tp837
a(g165
VSYM
p838
tp839
a(g320
VNN
p840
tp841
a(g165
VSYM
p842
tp843
a(g139
V''
p844
tp845
a(g31
g31
tp846
a(g136
VNN
p847
tp848
a(g139
VPOS
p849
tp850
a(g181
VNN
p851
tp852
a(g159
VNN
p853
tp854
a(g192
VNN
p855
tp856
a(g181
VNN
p857
tp858
a(g165
VSYM
p859
tp860
a(g320
VNN
p861
tp862
a(g192
VNN
p863
tp864
a(g148
VNN
p865
tp866
a(g82
g82
tp867
a(g139
V''
p868
tp869
a(g31
g31
tp870
a(g136
VNN
p871
tp872
a(g139
VPOS
p873
tp874
a(VD
p875
VNN
p876
tp877
a(g159
VNN
p878
tp879
a(g192
VNN
p880
tp881
a(g139
V''
p882
tp883
a(g31
g31
tp884
a(g136
VNN
p885
tp886
a(g139
V''
p887
tp888
a(g34
g120
tp889
a(g139
V''
p890
tp891
a(g31
g31
tp892
a(g136
VNN
p893
tp894
a(g139
V''
p895
tp896
a(g221
VDT
p897
tp898
a(g181
VNN
p899
tp900
a(g136
VNN
p901
tp902
a(g162
VNN
p903
tp904
a(g165
VSYM
p905
tp906
a(g139
V''
p907
tp908
a(g31
g31
tp909
a(g136
VNN
p910
tp911
a(g139
V''
p912
tp913
a(g22
g117
tp914
a(g139
V''
p915
tp916
a(g31
g31
tp917
a(g136
VNN
p918
tp919
a(g139
VPOS
p920
tp921
a(g159
VNN
p922
tp923
a(g192
VNN
p924
tp925
a(g165
VSYM
p926
tp927
a(g139
V''
p928
tp929
a(g31
g31
tp930
a(g136
VNN
p931
tp932
a(g139
VPOS
p933
tp934
a(g181
VNN
p935
tp936
a(g159
VNN
p937
tp938
a(g371
VNN
p939
tp940
a(g309
VNN
p941
tp942
a(g167
VNN
p943
tp944
a(g221
VFW
p945
tp946
a(g146
VFW
p947
tp948
a(g192
VNN
p949
tp950
a(g162
VNN
p951
tp952
a(g139
V''
p953
tp954
a(g31
g31
tp955
a(g136
VNN
p956
tp957
a(g139
VPOS
p958
tp959
a(g143
VNN
p960
tp961
a(g159
VNN
p962
tp963
a(g162
VNN
p964
tp965
a(g165
VSYM
p966
tp967
a(g167
VNN
p968
tp969
a(g139
V''
p970
tp971
a(g31
g31
tp972
a(g136
VNN
p973
tp974
a(g139
VPOS
p975
tp976
a(g409
VNN
p977
tp978
a(g159
VNN
p979
tp980
a(g136
VNN
p981
tp982
a(g167
VNN
p983
tp984
a(g229
VNN
p985
tp986
a(g139
V''
p987
tp988
a(g31
g31
tp989
a(g136
VNN
p990
tp991
a(g139
VPOS
p992
tp993
a(g229
VNN
p994
tp995
a(g165
VSYM
p996
tp997
a(g277
VFW
p998
tp999
a(g146
VFW
p1000
tp1001
a(g192
VNN
p1002
tp1003
a(g146
VLS
p1004
tp1005
a(g162
VNN
p1006
tp1007
a(g165
VSYM
p1008
tp1009
a(g167
VNN
p1010
tp1011
a(g224
VNN
p1012
tp1013
a(g139
V''
p1014
tp1015
a(g31
g31
tp1016
a(g136
VNN
p1017
tp1018
a(g139
VPOS
p1019
tp1020
a(g148
VNN
p1021
tp1022
a(g162
VNN
p1023
tp1024
a(g221
VDT
p1025
tp1026
a(g224
VNN
p1027
tp1028
a(g139
V''
p1029
tp1030
a(g31
g31
tp1031
a(g136
VNN
p1032
tp1033
a(g139
V''
p1034
tp1035
a(g82
g82
tp1036
a(g139
V''
p1037
tp1038
a(V]
p1039
VNN
p1040
tp1041
asS'tagged_title'
p1042
(lp1043
(g134
VFW
p1044
tp1045
a(g136
VFW
p1046
tp1047
a(g139
VPOS
p1048
tp1049
a(VF
p1050
VNN
p1051
tp1052
a(g221
VDT
p1053
tp1054
a(g192
VNN
p1055
tp1056
a(g162
VNN
p1057
tp1058
a(g221
VDT
p1059
tp1060
a(g148
VNN
p1061
tp1062
a(g162
VNN
p1063
tp1064
a(g146
VFW
p1065
tp1066
a(g181
VNN
p1067
tp1068
a(g139
V''
p1069
tp1070
a(g1039
VNN
p1071
tp1072
asVtotal_points
p1073
V101
p1074
sVdate
p1075
V9/18/2012
p1076
sVtaObjectUrl
p1077
Vhttp://www.tripadvisor.com/Hotel_Review-g187147-d188981-Reviews-Bedford_Hotel-Paris_Ile_de_France.html
p1078
sVtype
p1079
VHotels
p1080
sS'pos_unigram'
p1081
(lp1082
g119
ag137
ag122
ag118
ag144
ag125
ag128
ag150
ag31
ag153
ag155
ag157
ag160
ag163
ag121
ag168
ag123
ag31
ag172
ag174
ag176
ag179
ag182
ag184
ag186
ag188
ag190
ag193
ag195
ag82
ag198
ag31
ag201
ag203
ag206
ag208
ag210
ag31
ag213
ag215
ag217
ag219
ag222
ag225
ag227
ag230
ag232
ag31
ag235
ag237
ag124
ag240
ag31
ag243
ag245
ag247
ag249
ag251
ag253
ag255
ag257
ag31
ag260
ag262
ag265
ag267
ag269
ag271
ag273
ag275
ag278
ag280
ag282
ag284
ag31
ag287
ag289
ag291
ag293
ag295
ag127
ag298
ag300
ag31
ag303
ag305
ag307
ag310
ag312
ag314
ag316
ag318
ag321
ag323
ag325
ag31
ag328
ag330
ag333
ag335
ag337
ag340
ag342
ag31
ag345
ag347
ag349
ag351
ag354
ag356
ag358
ag31
ag361
ag363
ag365
ag367
ag369
ag372
ag374
ag31
ag377
ag379
ag381
ag383
ag385
ag387
ag389
ag391
ag393
ag395
ag31
ag398
ag400
ag403
ag405
ag407
ag410
ag412
ag31
ag415
ag417
ag420
ag422
ag424
ag426
ag428
ag430
ag432
ag31
ag435
ag437
ag439
ag441
ag443
ag445
ag447
ag82
ag450
ag31
ag453
ag455
ag457
ag459
ag461
ag463
ag31
ag466
ag468
ag470
ag472
ag474
ag476
ag478
ag480
ag31
ag483
ag485
ag487
ag489
ag491
ag493
ag495
ag497
ag499
ag501
ag31
ag504
ag506
ag508
ag510
ag512
ag514
ag516
ag518
ag520
ag522
ag82
ag525
ag31
ag528
ag530
ag532
ag534
ag536
ag538
ag31
ag541
ag543
ag545
ag547
ag549
ag551
ag553
ag555
ag557
ag559
ag561
ag31
ag564
ag566
ag568
ag570
ag572
ag574
ag576
ag578
ag580
ag582
ag584
ag586
ag31
ag589
ag591
ag31
ag594
ag31
ag597
ag599
ag601
ag603
ag605
ag126
ag608
ag610
ag31
ag613
ag615
ag617
ag619
ag621
ag623
ag625
ag627
ag629
ag631
ag633
ag635
ag637
ag31
ag640
ag642
ag31
ag645
ag31
ag648
ag650
ag652
ag654
ag656
ag658
ag660
ag662
ag664
ag31
ag667
ag669
ag31
ag672
ag31
ag675
ag677
ag679
ag681
ag683
ag685
ag687
ag689
ag691
ag693
ag695
ag697
ag699
ag701
ag31
ag704
ag706
ag31
ag709
ag31
ag712
ag714
ag716
ag718
ag720
ag722
ag724
ag726
ag117
ag730
ag732
ag734
ag82
ag737
ag31
ag740
ag742
ag745
ag747
ag749
ag751
ag753
ag31
ag756
ag758
ag760
ag762
ag764
ag766
ag768
ag31
ag771
ag773
ag775
ag777
ag779
ag781
ag783
ag31
ag786
ag788
ag31
ag791
ag31
ag794
ag796
ag798
ag800
ag802
ag804
ag806
ag31
ag809
ag811
ag813
ag815
ag817
ag819
ag821
ag31
ag824
ag826
ag828
ag830
ag832
ag834
ag836
ag838
ag840
ag842
ag844
ag31
ag847
ag849
ag851
ag853
ag855
ag857
ag859
ag861
ag863
ag865
ag82
ag868
ag31
ag871
ag873
ag876
ag878
ag880
ag882
ag31
ag885
ag887
ag120
ag890
ag31
ag893
ag895
ag897
ag899
ag901
ag903
ag905
ag907
ag31
ag910
ag912
ag117
ag915
ag31
ag918
ag920
ag922
ag924
ag926
ag928
ag31
ag931
ag933
ag935
ag937
ag939
ag941
ag943
ag945
ag947
ag949
ag951
ag953
ag31
ag956
ag958
ag960
ag962
ag964
ag966
ag968
ag970
ag31
ag973
ag975
ag977
ag979
ag981
ag983
ag985
ag987
ag31
ag990
ag992
ag994
ag996
ag998
ag1000
ag1002
ag1004
ag1006
ag1008
ag1010
ag1012
ag1014
ag31
ag1017
ag1019
ag1021
ag1023
ag1025
ag1027
ag1029
ag31
ag1032
ag1034
ag82
ag1037
ag1040
asVhelpfulness
p1083
V1
p1084
sVtaObjectCity
p1085
VParis
p1086
s.(dp0
Vrating
p1
V3
p2
sVtext
p3
VMy husband and I stayed in this hotel in early Sept 2012. While the location is excellent, only minutes to heart of old town over the bridge, we felt it was overpriced for our room. Clean and comfortable but small and very old fashioned. Even though there is a NON Smoking policy somone on our top floor was smoking and stunk our room out. Not sure how they monitor this policy!!. We mentioned it next day and got an apology but I think we shoulld have had a discount on our overpriced room for the uncomforable night we experienced.. Also parking is a bit of a walk up a hill, exhausting with 2 large suitcases. We had a lovely breakfast the next morning, however overall I would not stay here again.
p4
sS'title_length'
p5
I701
sS'bigram_counts'
p6
ccollections
Counter
p7
((dp8
(Vdiscount
p9
Voverpriced
p10
tp11
I1
s(Vroom
p12
Vuncomforable
p13
tp14
I1
s(Vsmoking
p15
Vpolicy
p16
tp17
I1
s(Voverall
p18
Vwould
p19
tp20
I1
s(Vmonitor
p21
Vpolicy
p22
tp23
I1
s(V,
p24
Vminutes
p25
tp26
I1
s(Vmorning
p27
g24
tp28
I1
s(Vmentioned
p29
Vnext
p30
tp31
I1
s(V.
p32
g29
tp33
I1
s(g19
Vstay
p34
tp35
I1
s(Vthough
p36
Vnon
p37
tp38
I1
s(Vout.
p39
Vsure
p40
tp41
I1
s(Vexcellent
p42
g24
tp43
I1
s(V2
p44
Vlarge
p45
tp46
I1
s(Vclean
p47
Vcomfortable
p48
tp49
I1
s(Vthink
p50
Vshoulld
p51
tp52
I1
s(g30
Vday
p53
tp54
I1
s(Vold
p55
Vfashioned.
p56
tp57
I1
s(Vsept
p58
V2012.
p59
tp60
I1
s(g13
Vnight
p61
tp62
I1
s(g16
Vsomone
p63
tp64
I1
s(Vstunk
p65
Vroom
p66
tp67
I1
s(Vtown
p68
Vbridge
p69
tp70
I1
s(Vwalk
p71
Vhill
p72
tp73
I1
s(Vheart
p74
Vold
p75
tp76
I1
s(Vsuitcases.
p77
Vlovely
p78
tp79
I1
s(Valso
p80
Vparking
p81
tp82
I1
s(Voverpriced
p83
Vroom.
p84
tp85
I1
s(g66
g39
tp86
I1
s(g59
Vlocation
p87
tp88
I1
s(g24
Vhowever
p89
tp90
I1
s(Vapology
p91
g50
tp92
I1
s(Vsmoking
p93
g65
tp94
I1
s(Veven
p95
g36
tp96
I1
s(Vnext
p97
g27
tp98
I1
s(g56
g95
tp99
I1
s(Vfloor
p100
g93
tp101
I1
s(g25
g74
tp102
I1
s(g53
Vgot
p103
tp104
I1
s(Vhotel
p105
Vearly
p106
tp107
I1
s(V!
p108
g108
tp109
I1
s(g48
Vsmall
p110
tp111
I1
s(g84
g47
tp112
I1
s(g106
g58
tp113
I1
s(g72
g24
tp114
I1
s(g24
Vfelt
p115
tp116
I1
s(g78
Vbreakfast
p117
tp118
I1
s(g69
g24
tp119
I1
s(g87
g42
tp120
I1
s(Vexperienced..
p121
g80
tp122
I1
s(g51
g9
tp123
I1
s(g108
g32
tp124
I1
s(g45
g77
tp125
I1
s(g75
g68
tp126
I1
s(Vstayed
p127
g105
tp128
I1
s(g10
g12
tp129
I1
s(Vhusband
p130
g127
tp131
I1
s(g89
g18
tp132
I1
s(g117
g97
tp133
I1
s(g81
Vbit
p134
tp135
I1
s(Vexhausting
p136
g44
tp137
I1
s(g22
g108
tp138
I1
s(g34
g32
tp139
I1
s(g134
g71
tp140
I1
s(g115
g83
tp141
I1
s(g103
g91
tp142
I1
s(g63
Vtop
p143
tp144
I1
s(g24
g136
tp145
I1
s(g110
g55
tp146
I1
s(g143
g100
tp147
I1
s(g37
g15
tp148
I1
s(g61
g121
tp149
I1
s(g40
g21
tp150
I1
stp151
Rp152
sS'rev_unigrams'
p153
(lp154
g130
ag127
ag105
ag106
ag58
ag59
ag87
ag42
ag24
ag25
ag74
ag75
ag68
ag69
ag24
ag115
ag83
ag84
ag47
ag48
ag110
ag55
ag56
ag95
ag36
ag37
ag15
ag16
ag63
ag143
ag100
ag93
ag65
ag66
ag39
ag40
ag21
ag22
ag108
ag108
ag32
ag29
ag30
ag53
ag103
ag91
ag50
ag51
ag9
ag10
ag12
ag13
ag61
ag121
ag80
ag81
ag134
ag71
ag72
ag24
ag136
ag44
ag45
ag77
ag78
ag117
ag97
ag27
ag24
ag89
ag18
ag19
ag34
ag32
asVid
p155
V91
p156
sVtaObject
p157
VBEST WESTERN Hotel Mondschein
p158
sVtitle
p159
VNot bad
p160
sS'unigram_counts'
p161
g7
((dp162
g74
I1
sg75
I2
sg83
I2
sg69
I1
sg42
I1
sg115
I1
sg48
I1
sg81
I1
sg29
I1
sg117
I1
sg32
I2
sg59
I1
sg13
I1
sg95
I1
sg136
I1
sg63
I1
sg21
I1
sg19
I1
sg100
I1
sg143
I1
sg24
I4
sg127
I1
sg30
I2
sg80
I1
sg44
I1
sg87
I1
sg16
I2
sg56
I1
sg78
I1
sg72
I1
sg51
I1
sg121
I1
sg37
I1
sg40
I1
sg65
I1
sg36
I1
sg84
I1
sg105
I1
sg18
I1
sg89
I1
sg77
I1
sg34
I1
sg106
I1
sg9
I1
sg108
I2
sg103
I1
sg15
I2
sg134
I1
sg71
I1
sg53
I1
sg68
I1
sg66
I2
sg91
I1
sg25
I1
sg27
I1
sg45
I1
sg130
I1
sg47
I1
sg61
I1
sg110
I1
sg58
I1
sg50
I1
sg39
I1
stp163
Rp164
sS'rev_bigrams'
p165
(lp166
g131
ag128
ag107
ag113
ag60
ag88
ag120
ag43
ag26
ag102
ag76
ag126
ag70
ag119
ag116
ag141
ag85
ag112
ag49
ag111
ag146
ag57
ag99
ag96
ag38
ag148
ag17
ag64
ag144
ag147
ag101
ag94
ag67
ag86
ag41
ag150
ag23
ag138
ag109
ag124
ag33
ag31
ag54
ag104
ag142
ag92
ag52
ag123
ag11
ag129
ag14
ag62
ag149
ag122
ag82
ag135
ag140
ag73
ag114
ag145
ag137
ag46
ag125
ag79
ag118
ag133
ag98
ag28
ag90
ag132
ag20
ag35
ag139
asS'pos_count'
p167
ccollections
defaultdict
p168
(c__builtin__
int
p169
tp170
Rp171
VNN
p172
I366
sVFW
p173
I38
sg24
I85
sVSYM
p174
I30
sVPOS
p175
I57
sV''
p176
I107
sg32
I11
sVPRP
p177
I3
sVDT
p178
I18
sVCD
p179
I5
sVNNS
p180
I1
sVLS
p181
I24
ssS'rev_length'
p182
I701
sVusername
p183
V124_10
p184
sS'tagged_text'
p185
(lp186
(V[
p187
g173
tp188
a(Vu
p189
VFW
p190
tp191
a(V'
p192
g175
tp193
a(VM
p194
g172
tp195
a(Vy
p196
VNN
p197
tp198
a(g192
g176
tp199
a(g24
g24
tp200
a(g189
VNN
p201
tp202
a(g192
VPOS
p203
tp204
a(Vh
p205
VNN
p206
tp207
a(g189
VNN
p208
tp209
a(Vs
p210
VNN
p211
tp212
a(Vb
p213
VNN
p214
tp215
a(Va
p216
g178
tp217
a(Vn
p218
VNN
p219
tp220
a(Vd
p221
VNN
p222
tp223
a(g192
V''
p224
tp225
a(g24
g24
tp226
a(g189
VNN
p227
tp228
a(g192
V''
p229
tp230
a(VI
p231
g177
tp232
a(g192
V''
p233
tp234
a(g24
g24
tp235
a(g189
VNN
p236
tp237
a(g192
VPOS
p238
tp239
a(g210
VNN
p240
tp241
a(Vt
p242
VNN
p243
tp244
a(g216
VFW
p245
tp246
a(g196
VFW
p247
tp248
a(Ve
p249
g181
tp250
a(g221
VNN
p251
tp252
a(g192
V''
p253
tp254
a(g24
g24
tp255
a(g189
VNN
p256
tp257
a(g192
VPOS
p258
tp259
a(g205
VNN
p260
tp261
a(Vo
p262
VNN
p263
tp264
a(g242
VNN
p265
tp266
a(g249
g174
tp267
a(Vl
p268
VNN
p269
tp270
a(g192
V''
p271
tp272
a(g24
g24
tp273
a(g189
VNN
p274
tp275
a(g192
V''
p276
tp277
a(g249
VLS
p278
tp279
a(g216
VDT
p280
tp281
a(Vr
p282
VNN
p283
tp284
a(g268
VNN
p285
tp286
a(g196
VNN
p287
tp288
a(g192
V''
p289
tp290
a(g24
g24
tp291
a(g189
VNN
p292
tp293
a(g192
VPOS
p294
tp295
a(VS
p296
VNN
p297
tp298
a(g249
VSYM
p299
tp300
a(Vp
p301
VNN
p302
tp303
a(g242
VNN
p304
tp305
a(g192
V''
p306
tp307
a(g24
g24
tp308
a(g189
VNN
p309
tp310
a(g192
V''
p311
tp312
a(g44
g179
tp313
a(V0
p314
VCD
p315
tp316
a(V1
p317
VCD
p318
tp319
a(g44
VCD
p320
tp321
a(g32
g32
tp322
a(g192
V''
p323
tp324
a(g24
g24
tp325
a(g189
VNN
p326
tp327
a(g192
VPOS
p328
tp329
a(VW
p330
VNN
p331
tp332
a(g205
VNN
p333
tp334
a(Vi
p335
VFW
p336
tp337
a(g268
VNN
p338
tp339
a(g249
VSYM
p340
tp341
a(g192
V''
p342
tp343
a(g24
g24
tp344
a(g189
VNN
p345
tp346
a(g192
VPOS
p347
tp348
a(g268
VNN
p349
tp350
a(g262
VNN
p351
tp352
a(Vc
p353
VNN
p354
tp355
a(g216
VDT
p356
tp357
a(g242
VNN
p358
tp359
a(g335
VFW
p360
tp361
a(g262
VNN
p362
tp363
a(g218
VNN
p364
tp365
a(g192
V''
p366
tp367
a(g24
g24
tp368
a(g189
VNN
p369
tp370
a(g192
V''
p371
tp372
a(g249
VLS
p373
tp374
a(Vx
p375
VNN
p376
tp377
a(g353
VNN
p378
tp379
a(g249
VSYM
p380
tp381
a(g268
VNN
p382
tp383
a(g268
VNN
p384
tp385
a(g249
VSYM
p386
tp387
a(g218
VNN
p388
tp389
a(g242
VNN
p390
tp391
a(g192
V''
p392
tp393
a(g24
g24
tp394
a(g189
VNN
p395
tp396
a(g192
V''
p397
tp398
a(g24
g24
tp399
a(g192
V''
p400
tp401
a(g24
g24
tp402
a(g189
VNN
p403
tp404
a(g192
VPOS
p405
tp406
a(Vm
p407
VNN
p408
tp409
a(g335
VFW
p410
tp411
a(g218
VNN
p412
tp413
a(g189
VNN
p414
tp415
a(g242
VNN
p416
tp417
a(g249
VSYM
p418
tp419
a(g210
g180
tp420
a(g192
VPOS
p421
tp422
a(g24
g24
tp423
a(g189
VNN
p424
tp425
a(g192
VPOS
p426
tp427
a(g205
VNN
p428
tp429
a(g249
VSYM
p430
tp431
a(g216
VDT
p432
tp433
a(g282
VNN
p434
tp435
a(g242
VNN
p436
tp437
a(g192
V''
p438
tp439
a(g24
g24
tp440
a(g189
VNN
p441
tp442
a(g192
VPOS
p443
tp444
a(g262
VNN
p445
tp446
a(g268
VNN
p447
tp448
a(g221
VNN
p449
tp450
a(g192
V''
p451
tp452
a(g24
g24
tp453
a(g189
VNN
p454
tp455
a(g192
VPOS
p456
tp457
a(g242
VNN
p458
tp459
a(g262
VNN
p460
tp461
a(Vw
p462
VNN
p463
tp464
a(g218
VNN
p465
tp466
a(g192
V''
p467
tp468
a(g24
g24
tp469
a(g189
VNN
p470
tp471
a(g192
VPOS
p472
tp473
a(g213
VNN
p474
tp475
a(g282
VNN
p476
tp477
a(g335
VFW
p478
tp479
a(g221
VFW
p480
tp481
a(Vg
p482
VNN
p483
tp484
a(g249
VSYM
p485
tp486
a(g192
V''
p487
tp488
a(g24
g24
tp489
a(g189
VNN
p490
tp491
a(g192
V''
p492
tp493
a(g24
g24
tp494
a(g192
V''
p495
tp496
a(g24
g24
tp497
a(g189
VNN
p498
tp499
a(g192
V''
p500
tp501
a(Vf
p502
VLS
p503
tp504
a(g249
VLS
p505
tp506
a(g268
VNN
p507
tp508
a(g242
VNN
p509
tp510
a(g192
V''
p511
tp512
a(g24
g24
tp513
a(g189
VNN
p514
tp515
a(g192
VPOS
p516
tp517
a(g262
VNN
p518
tp519
a(Vv
p520
VLS
p521
tp522
a(g249
VLS
p523
tp524
a(g282
VNN
p525
tp526
a(g301
VNN
p527
tp528
a(g282
VNN
p529
tp530
a(g335
VLS
p531
tp532
a(g353
VNN
p533
tp534
a(g249
VSYM
p535
tp536
a(g221
VFW
p537
tp538
a(g192
V''
p539
tp540
a(g24
g24
tp541
a(g189
VNN
p542
tp543
a(g192
VPOS
p544
tp545
a(g282
VNN
p546
tp547
a(g262
VNN
p548
tp549
a(g262
VNN
p550
tp551
a(g407
VNN
p552
tp553
a(g32
g32
tp554
a(g192
V''
p555
tp556
a(g24
g24
tp557
a(g189
VNN
p558
tp559
a(g192
VPOS
p560
tp561
a(VC
p562
VNN
p563
tp564
a(g268
VNN
p565
tp566
a(g249
VSYM
p567
tp568
a(g216
VDT
p569
tp570
a(g218
VNN
p571
tp572
a(g192
V''
p573
tp574
a(g24
g24
tp575
a(g189
VNN
p576
tp577
a(g192
VPOS
p578
tp579
a(g353
VNN
p580
tp581
a(g262
VNN
p582
tp583
a(g407
VNN
p584
tp585
a(g502
VFW
p586
tp587
a(g262
VNN
p588
tp589
a(g282
VNN
p590
tp591
a(g242
VNN
p592
tp593
a(g216
VDT
p594
tp595
a(g213
VNN
p596
tp597
a(g268
VNN
p598
tp599
a(g249
VSYM
p600
tp601
a(g192
V''
p602
tp603
a(g24
g24
tp604
a(g189
VNN
p605
tp606
a(g192
VPOS
p607
tp608
a(g210
VNN
p609
tp610
a(g407
VNN
p611
tp612
a(g216
VDT
p613
tp614
a(g268
VNN
p615
tp616
a(g268
VNN
p617
tp618
a(g192
V''
p619
tp620
a(g24
g24
tp621
a(g189
VNN
p622
tp623
a(g192
VPOS
p624
tp625
a(g262
VNN
p626
tp627
a(g268
VNN
p628
tp629
a(g221
VNN
p630
tp631
a(g192
V''
p632
tp633
a(g24
g24
tp634
a(g189
VNN
p635
tp636
a(g192
V''
p637
tp638
a(g502
VLS
p639
tp640
a(g216
VDT
p641
tp642
a(g210
VNN
p643
tp644
a(g205
VNN
p645
tp646
a(g335
VFW
p647
tp648
a(g262
VNN
p649
tp650
a(g218
VNN
p651
tp652
a(g249
VSYM
p653
tp654
a(g221
VNN
p655
tp656
a(g32
g32
tp657
a(g192
V''
p658
tp659
a(g24
g24
tp660
a(g189
VNN
p661
tp662
a(g192
VPOS
p663
tp664
a(VE
p665
VNN
p666
tp667
a(g520
VLS
p668
tp669
a(g249
VLS
p670
tp671
a(g218
VNN
p672
tp673
a(g192
V''
p674
tp675
a(g24
g24
tp676
a(g189
VNN
p677
tp678
a(g192
VPOS
p679
tp680
a(g242
VNN
p681
tp682
a(g205
VNN
p683
tp684
a(g262
VNN
p685
tp686
a(g189
VNN
p687
tp688
a(g482
VNN
p689
tp690
a(g205
VNN
p691
tp692
a(g192
V''
p693
tp694
a(g24
g24
tp695
a(g189
VNN
p696
tp697
a(g192
VPOS
p698
tp699
a(VN
p700
VNN
p701
tp702
a(VO
p703
VNN
p704
tp705
a(g700
VNN
p706
tp707
a(g192
V''
p708
tp709
a(g24
g24
tp710
a(g189
VNN
p711
tp712
a(g192
VPOS
p713
tp714
a(g296
VNN
p715
tp716
a(g407
VNN
p717
tp718
a(g262
VNN
p719
tp720
a(Vk
p721
VNN
p722
tp723
a(g335
VFW
p724
tp725
a(g218
VNN
p726
tp727
a(g482
VNN
p728
tp729
a(g192
V''
p730
tp731
a(g24
g24
tp732
a(g189
VNN
p733
tp734
a(g192
VPOS
p735
tp736
a(g301
VNN
p737
tp738
a(g262
VNN
p739
tp740
a(g268
VNN
p741
tp742
a(g335
VFW
p743
tp744
a(g353
VNN
p745
tp746
a(g196
VNN
p747
tp748
a(g192
V''
p749
tp750
a(g24
g24
tp751
a(g189
VNN
p752
tp753
a(g192
VPOS
p754
tp755
a(g210
VNN
p756
tp757
a(g262
VNN
p758
tp759
a(g407
VNN
p760
tp761
a(g262
VNN
p762
tp763
a(g218
VNN
p764
tp765
a(g249
VSYM
p766
tp767
a(g192
V''
p768
tp769
a(g24
g24
tp770
a(g189
VNN
p771
tp772
a(g192
VPOS
p773
tp774
a(g242
VNN
p775
tp776
a(g262
VNN
p777
tp778
a(g301
VNN
p779
tp780
a(g192
V''
p781
tp782
a(g24
g24
tp783
a(g189
VNN
p784
tp785
a(g192
V''
p786
tp787
a(g502
VLS
p788
tp789
a(g268
VNN
p790
tp791
a(g262
VNN
p792
tp793
a(g262
VNN
p794
tp795
a(g282
VNN
p796
tp797
a(g192
V''
p798
tp799
a(g24
g24
tp800
a(g189
VNN
p801
tp802
a(g192
VPOS
p803
tp804
a(g210
VNN
p805
tp806
a(g407
VNN
p807
tp808
a(g262
VNN
p809
tp810
a(g721
VNN
p811
tp812
a(g335
VFW
p813
tp814
a(g218
VNN
p815
tp816
a(g482
VNN
p817
tp818
a(g192
V''
p819
tp820
a(g24
g24
tp821
a(g189
VNN
p822
tp823
a(g192
VPOS
p824
tp825
a(g210
VNN
p826
tp827
a(g242
VNN
p828
tp829
a(g189
VNN
p830
tp831
a(g218
VNN
p832
tp833
a(g721
VNN
p834
tp835
a(g192
V''
p836
tp837
a(g24
g24
tp838
a(g189
VNN
p839
tp840
a(g192
VPOS
p841
tp842
a(g282
VNN
p843
tp844
a(g262
VNN
p845
tp846
a(g262
VNN
p847
tp848
a(g407
VNN
p849
tp850
a(g192
V''
p851
tp852
a(g24
g24
tp853
a(g189
VNN
p854
tp855
a(g192
VPOS
p856
tp857
a(g262
VNN
p858
tp859
a(g189
VNN
p860
tp861
a(g242
VNN
p862
tp863
a(g32
g32
tp864
a(g192
V''
p865
tp866
a(g24
g24
tp867
a(g189
VNN
p868
tp869
a(g192
VPOS
p870
tp871
a(g700
VNN
p872
tp873
a(g262
VNN
p874
tp875
a(g242
VNN
p876
tp877
a(g192
V''
p878
tp879
a(g24
g24
tp880
a(g189
VNN
p881
tp882
a(g192
VPOS
p883
tp884
a(g210
VNN
p885
tp886
a(g189
VNN
p887
tp888
a(g282
VNN
p889
tp890
a(g249
VSYM
p891
tp892
a(g192
V''
p893
tp894
a(g24
g24
tp895
a(g189
VNN
p896
tp897
a(g192
VPOS
p898
tp899
a(g407
VNN
p900
tp901
a(g262
VNN
p902
tp903
a(g218
VNN
p904
tp905
a(g335
VFW
p906
tp907
a(g242
VNN
p908
tp909
a(g262
VNN
p910
tp911
a(g282
VNN
p912
tp913
a(g192
V''
p914
tp915
a(g24
g24
tp916
a(g189
VNN
p917
tp918
a(g192
VPOS
p919
tp920
a(g301
VNN
p921
tp922
a(g262
VNN
p923
tp924
a(g268
VNN
p925
tp926
a(g335
VFW
p927
tp928
a(g353
VNN
p929
tp930
a(g196
VNN
p931
tp932
a(g192
V''
p933
tp934
a(g24
g24
tp935
a(g189
VNN
p936
tp937
a(g192
V''
p938
tp939
a(g108
g32
tp940
a(g192
V''
p941
tp942
a(g24
g24
tp943
a(g189
VNN
p944
tp945
a(g192
V''
p946
tp947
a(g108
g32
tp948
a(g192
V''
p949
tp950
a(g24
g24
tp951
a(g189
VNN
p952
tp953
a(g192
V''
p954
tp955
a(g32
g32
tp956
a(g192
V''
p957
tp958
a(g24
g24
tp959
a(g189
VNN
p960
tp961
a(g192
VPOS
p962
tp963
a(g330
VNN
p964
tp965
a(g249
VSYM
p966
tp967
a(g192
V''
p968
tp969
a(g24
g24
tp970
a(g189
VNN
p971
tp972
a(g192
VPOS
p973
tp974
a(g407
VNN
p975
tp976
a(g249
VSYM
p977
tp978
a(g218
VNN
p979
tp980
a(g242
VNN
p981
tp982
a(g335
VFW
p983
tp984
a(g262
VNN
p985
tp986
a(g218
VNN
p987
tp988
a(g249
VSYM
p989
tp990
a(g221
VFW
p991
tp992
a(g192
V''
p993
tp994
a(g24
g24
tp995
a(g189
VNN
p996
tp997
a(g192
VPOS
p998
tp999
a(g218
VNN
p1000
tp1001
a(g249
VSYM
p1002
tp1003
a(g375
VNN
p1004
tp1005
a(g242
VNN
p1006
tp1007
a(g192
V''
p1008
tp1009
a(g24
g24
tp1010
a(g189
VNN
p1011
tp1012
a(g192
V''
p1013
tp1014
a(g221
VFW
p1015
tp1016
a(g216
VFW
p1017
tp1018
a(g196
VFW
p1019
tp1020
a(g192
V''
p1021
tp1022
a(g24
g24
tp1023
a(g189
VNN
p1024
tp1025
a(g192
VPOS
p1026
tp1027
a(g482
VNN
p1028
tp1029
a(g262
VNN
p1030
tp1031
a(g242
VNN
p1032
tp1033
a(g192
V''
p1034
tp1035
a(g24
g24
tp1036
a(g189
VNN
p1037
tp1038
a(g192
V''
p1039
tp1040
a(g216
VDT
p1041
tp1042
a(g301
VNN
p1043
tp1044
a(g262
VNN
p1045
tp1046
a(g268
VNN
p1047
tp1048
a(g262
VNN
p1049
tp1050
a(g482
VNN
p1051
tp1052
a(g196
VNN
p1053
tp1054
a(g192
V''
p1055
tp1056
a(g24
g24
tp1057
a(g189
VNN
p1058
tp1059
a(g192
V''
p1060
tp1061
a(g231
VPRP
p1062
tp1063
a(g192
V''
p1064
tp1065
a(g24
g24
tp1066
a(g189
VNN
p1067
tp1068
a(g192
VPOS
p1069
tp1070
a(g242
VNN
p1071
tp1072
a(g205
VNN
p1073
tp1074
a(g335
VFW
p1075
tp1076
a(g218
VNN
p1077
tp1078
a(g721
VNN
p1079
tp1080
a(g192
V''
p1081
tp1082
a(g24
g24
tp1083
a(g189
VNN
p1084
tp1085
a(g192
VPOS
p1086
tp1087
a(g210
VNN
p1088
tp1089
a(g205
VNN
p1090
tp1091
a(g262
VNN
p1092
tp1093
a(g189
VNN
p1094
tp1095
a(g268
VNN
p1096
tp1097
a(g268
VNN
p1098
tp1099
a(g221
VNN
p1100
tp1101
a(g192
V''
p1102
tp1103
a(g24
g24
tp1104
a(g189
VNN
p1105
tp1106
a(g192
V''
p1107
tp1108
a(g221
VFW
p1109
tp1110
a(g335
VFW
p1111
tp1112
a(g210
VNN
p1113
tp1114
a(g353
VNN
p1115
tp1116
a(g262
VNN
p1117
tp1118
a(g189
VNN
p1119
tp1120
a(g218
VNN
p1121
tp1122
a(g242
VNN
p1123
tp1124
a(g192
V''
p1125
tp1126
a(g24
g24
tp1127
a(g189
VNN
p1128
tp1129
a(g192
VPOS
p1130
tp1131
a(g262
VNN
p1132
tp1133
a(g520
VLS
p1134
tp1135
a(g249
VLS
p1136
tp1137
a(g282
VNN
p1138
tp1139
a(g301
VNN
p1140
tp1141
a(g282
VNN
p1142
tp1143
a(g335
VLS
p1144
tp1145
a(g353
VNN
p1146
tp1147
a(g249
VSYM
p1148
tp1149
a(g221
VFW
p1150
tp1151
a(g192
V''
p1152
tp1153
a(g24
g24
tp1154
a(g189
VNN
p1155
tp1156
a(g192
VPOS
p1157
tp1158
a(g282
VNN
p1159
tp1160
a(g262
VNN
p1161
tp1162
a(g262
VNN
p1163
tp1164
a(g407
VNN
p1165
tp1166
a(g192
V''
p1167
tp1168
a(g24
g24
tp1169
a(g189
VNN
p1170
tp1171
a(g192
VPOS
p1172
tp1173
a(g189
VNN
p1174
tp1175
a(g218
VNN
p1176
tp1177
a(g353
VNN
p1178
tp1179
a(g262
VNN
p1180
tp1181
a(g407
VNN
p1182
tp1183
a(g502
VFW
p1184
tp1185
a(g262
VNN
p1186
tp1187
a(g282
VNN
p1188
tp1189
a(g216
VDT
p1190
tp1191
a(g213
VNN
p1192
tp1193
a(g268
VNN
p1194
tp1195
a(g249
VSYM
p1196
tp1197
a(g192
V''
p1198
tp1199
a(g24
g24
tp1200
a(g189
VNN
p1201
tp1202
a(g192
VPOS
p1203
tp1204
a(g218
VNN
p1205
tp1206
a(g335
VFW
p1207
tp1208
a(g482
VNN
p1209
tp1210
a(g205
VNN
p1211
tp1212
a(g242
VNN
p1213
tp1214
a(g192
V''
p1215
tp1216
a(g24
g24
tp1217
a(g189
VNN
p1218
tp1219
a(g192
V''
p1220
tp1221
a(g249
VLS
p1222
tp1223
a(g375
VNN
p1224
tp1225
a(g301
VNN
p1226
tp1227
a(g249
VSYM
p1228
tp1229
a(g282
VSYM
p1230
tp1231
a(g335
VFW
p1232
tp1233
a(g249
VLS
p1234
tp1235
a(g218
VNN
p1236
tp1237
a(g353
VNN
p1238
tp1239
a(g249
VSYM
p1240
tp1241
a(g221
VNN
p1242
tp1243
a(g32
g32
tp1244
a(g32
g32
tp1245
a(g192
V''
p1246
tp1247
a(g24
g24
tp1248
a(g189
VNN
p1249
tp1250
a(g192
VPOS
p1251
tp1252
a(VA
p1253
VNN
p1254
tp1255
a(g268
VNN
p1256
tp1257
a(g210
VNN
p1258
tp1259
a(g262
VNN
p1260
tp1261
a(g192
V''
p1262
tp1263
a(g24
g24
tp1264
a(g189
VNN
p1265
tp1266
a(g192
V''
p1267
tp1268
a(g301
VNN
p1269
tp1270
a(g216
VDT
p1271
tp1272
a(g282
VNN
p1273
tp1274
a(g721
VNN
p1275
tp1276
a(g335
VFW
p1277
tp1278
a(g218
VNN
p1279
tp1280
a(g482
VNN
p1281
tp1282
a(g192
V''
p1283
tp1284
a(g24
g24
tp1285
a(g189
VNN
p1286
tp1287
a(g192
VPOS
p1288
tp1289
a(g213
VNN
p1290
tp1291
a(g335
VFW
p1292
tp1293
a(g242
VNN
p1294
tp1295
a(g192
V''
p1296
tp1297
a(g24
g24
tp1298
a(g189
VNN
p1299
tp1300
a(g192
V''
p1301
tp1302
a(g462
VNN
p1303
tp1304
a(g216
VDT
p1305
tp1306
a(g268
VNN
p1307
tp1308
a(g721
VNN
p1309
tp1310
a(g192
V''
p1311
tp1312
a(g24
g24
tp1313
a(g189
VNN
p1314
tp1315
a(g192
VPOS
p1316
tp1317
a(g205
VNN
p1318
tp1319
a(g335
VFW
p1320
tp1321
a(g268
VNN
p1322
tp1323
a(g268
VNN
p1324
tp1325
a(g192
V''
p1326
tp1327
a(g24
g24
tp1328
a(g189
VNN
p1329
tp1330
a(g192
V''
p1331
tp1332
a(g24
g24
tp1333
a(g192
V''
p1334
tp1335
a(g24
g24
tp1336
a(g189
VNN
p1337
tp1338
a(g192
V''
p1339
tp1340
a(g249
VLS
p1341
tp1342
a(g375
VNN
p1343
tp1344
a(g205
VNN
p1345
tp1346
a(g216
VFW
p1347
tp1348
a(g189
VFW
p1349
tp1350
a(g210
VNN
p1351
tp1352
a(g242
VNN
p1353
tp1354
a(g335
VFW
p1355
tp1356
a(g218
VNN
p1357
tp1358
a(g482
VNN
p1359
tp1360
a(g192
V''
p1361
tp1362
a(g24
g24
tp1363
a(g189
VNN
p1364
tp1365
a(g192
V''
p1366
tp1367
a(g44
VCD
p1368
tp1369
a(g192
V''
p1370
tp1371
a(g24
g24
tp1372
a(g189
VNN
p1373
tp1374
a(g192
V''
p1375
tp1376
a(g268
VNN
p1377
tp1378
a(g216
VDT
p1379
tp1380
a(g282
VNN
p1381
tp1382
a(g482
VNN
p1383
tp1384
a(g249
VSYM
p1385
tp1386
a(g192
V''
p1387
tp1388
a(g24
g24
tp1389
a(g189
VNN
p1390
tp1391
a(g192
VPOS
p1392
tp1393
a(g210
VNN
p1394
tp1395
a(g189
VFW
p1396
tp1397
a(g335
VFW
p1398
tp1399
a(g242
VNN
p1400
tp1401
a(g353
VNN
p1402
tp1403
a(g216
VDT
p1404
tp1405
a(g210
VNN
p1406
tp1407
a(g249
VSYM
p1408
tp1409
a(g210
VNN
p1410
tp1411
a(g32
g32
tp1412
a(g192
V''
p1413
tp1414
a(g24
g24
tp1415
a(g189
VNN
p1416
tp1417
a(g192
VPOS
p1418
tp1419
a(g330
VNN
p1420
tp1421
a(g249
VSYM
p1422
tp1423
a(g192
V''
p1424
tp1425
a(g24
g24
tp1426
a(g189
VNN
p1427
tp1428
a(g192
VPOS
p1429
tp1430
a(g268
VNN
p1431
tp1432
a(g262
VNN
p1433
tp1434
a(g520
VLS
p1435
tp1436
a(g249
VLS
p1437
tp1438
a(g268
VNN
p1439
tp1440
a(g196
VNN
p1441
tp1442
a(g192
V''
p1443
tp1444
a(g24
g24
tp1445
a(g189
VNN
p1446
tp1447
a(g192
VPOS
p1448
tp1449
a(g213
VNN
p1450
tp1451
a(g282
VNN
p1452
tp1453
a(g249
VSYM
p1454
tp1455
a(g216
VDT
p1456
tp1457
a(g721
VNN
p1458
tp1459
a(g502
VSYM
p1460
tp1461
a(g216
VDT
p1462
tp1463
a(g210
VNN
p1464
tp1465
a(g242
VNN
p1466
tp1467
a(g192
V''
p1468
tp1469
a(g24
g24
tp1470
a(g189
VNN
p1471
tp1472
a(g192
VPOS
p1473
tp1474
a(g218
VNN
p1475
tp1476
a(g249
VSYM
p1477
tp1478
a(g375
VNN
p1479
tp1480
a(g242
VNN
p1481
tp1482
a(g192
V''
p1483
tp1484
a(g24
g24
tp1485
a(g189
VNN
p1486
tp1487
a(g192
VPOS
p1488
tp1489
a(g407
VNN
p1490
tp1491
a(g262
VNN
p1492
tp1493
a(g282
VNN
p1494
tp1495
a(g218
VNN
p1496
tp1497
a(g335
VFW
p1498
tp1499
a(g218
VNN
p1500
tp1501
a(g482
VNN
p1502
tp1503
a(g192
V''
p1504
tp1505
a(g24
g24
tp1506
a(g189
VNN
p1507
tp1508
a(g192
V''
p1509
tp1510
a(g24
g24
tp1511
a(g192
V''
p1512
tp1513
a(g24
g24
tp1514
a(g189
VNN
p1515
tp1516
a(g192
VPOS
p1517
tp1518
a(g205
VNN
p1519
tp1520
a(g262
VNN
p1521
tp1522
a(g462
VNN
p1523
tp1524
a(g249
VSYM
p1525
tp1526
a(g520
VLS
p1527
tp1528
a(g249
VLS
p1529
tp1530
a(g282
VNN
p1531
tp1532
a(g192
V''
p1533
tp1534
a(g24
g24
tp1535
a(g189
VNN
p1536
tp1537
a(g192
VPOS
p1538
tp1539
a(g262
VNN
p1540
tp1541
a(g520
VLS
p1542
tp1543
a(g249
VLS
p1544
tp1545
a(g282
VNN
p1546
tp1547
a(g216
VDT
p1548
tp1549
a(g268
VNN
p1550
tp1551
a(g268
VNN
p1552
tp1553
a(g192
V''
p1554
tp1555
a(g24
g24
tp1556
a(g189
VNN
p1557
tp1558
a(g192
V''
p1559
tp1560
a(g231
VPRP
p1561
tp1562
a(g192
V''
p1563
tp1564
a(g24
g24
tp1565
a(g189
VNN
p1566
tp1567
a(g192
VPOS
p1568
tp1569
a(g462
VNN
p1570
tp1571
a(g262
VNN
p1572
tp1573
a(g189
VNN
p1574
tp1575
a(g268
VNN
p1576
tp1577
a(g221
VNN
p1578
tp1579
a(g192
V''
p1580
tp1581
a(g24
g24
tp1582
a(g189
VNN
p1583
tp1584
a(g192
VPOS
p1585
tp1586
a(g210
VNN
p1587
tp1588
a(g242
VNN
p1589
tp1590
a(g216
VDT
p1591
tp1592
a(g196
VNN
p1593
tp1594
a(g192
V''
p1595
tp1596
a(g24
g24
tp1597
a(g189
VNN
p1598
tp1599
a(g192
V''
p1600
tp1601
a(g32
g32
tp1602
a(g192
V''
p1603
tp1604
a(V]
p1605
VNN
p1606
tp1607
asS'tagged_title'
p1608
(lp1609
(g187
VFW
p1610
tp1611
a(g189
VFW
p1612
tp1613
a(g192
VPOS
p1614
tp1615
a(g700
VNN
p1616
tp1617
a(g262
VNN
p1618
tp1619
a(g242
VNN
p1620
tp1621
a(g192
V''
p1622
tp1623
a(g24
g24
tp1624
a(g189
VNN
p1625
tp1626
a(g192
VPOS
p1627
tp1628
a(g213
VNN
p1629
tp1630
a(g216
VDT
p1631
tp1632
a(g221
VNN
p1633
tp1634
a(g192
VPOS
p1635
tp1636
a(g1605
VNN
p1637
tp1638
asVtotal_points
p1639
V100
p1640
sVdate
p1641
V9/17/2012
p1642
sVtaObjectUrl
p1643
Vhttp://www.tripadvisor.com/Hotel_Review-g190445-d227199-Reviews-BEST_WESTERN_Hotel_Mondschein-Innsbruck_Tirol_Austrian_Alps.html
p1644
sVtype
p1645
VHotels
p1646
sS'pos_unigram'
p1647
(lp1648
g173
ag190
ag175
ag172
ag197
ag176
ag24
ag201
ag203
ag206
ag208
ag211
ag214
ag178
ag219
ag222
ag224
ag24
ag227
ag229
ag177
ag233
ag24
ag236
ag238
ag240
ag243
ag245
ag247
ag181
ag251
ag253
ag24
ag256
ag258
ag260
ag263
ag265
ag174
ag269
ag271
ag24
ag274
ag276
ag278
ag280
ag283
ag285
ag287
ag289
ag24
ag292
ag294
ag297
ag299
ag302
ag304
ag306
ag24
ag309
ag311
ag179
ag315
ag318
ag320
ag32
ag323
ag24
ag326
ag328
ag331
ag333
ag336
ag338
ag340
ag342
ag24
ag345
ag347
ag349
ag351
ag354
ag356
ag358
ag360
ag362
ag364
ag366
ag24
ag369
ag371
ag373
ag376
ag378
ag380
ag382
ag384
ag386
ag388
ag390
ag392
ag24
ag395
ag397
ag24
ag400
ag24
ag403
ag405
ag408
ag410
ag412
ag414
ag416
ag418
ag180
ag421
ag24
ag424
ag426
ag428
ag430
ag432
ag434
ag436
ag438
ag24
ag441
ag443
ag445
ag447
ag449
ag451
ag24
ag454
ag456
ag458
ag460
ag463
ag465
ag467
ag24
ag470
ag472
ag474
ag476
ag478
ag480
ag483
ag485
ag487
ag24
ag490
ag492
ag24
ag495
ag24
ag498
ag500
ag503
ag505
ag507
ag509
ag511
ag24
ag514
ag516
ag518
ag521
ag523
ag525
ag527
ag529
ag531
ag533
ag535
ag537
ag539
ag24
ag542
ag544
ag546
ag548
ag550
ag552
ag32
ag555
ag24
ag558
ag560
ag563
ag565
ag567
ag569
ag571
ag573
ag24
ag576
ag578
ag580
ag582
ag584
ag586
ag588
ag590
ag592
ag594
ag596
ag598
ag600
ag602
ag24
ag605
ag607
ag609
ag611
ag613
ag615
ag617
ag619
ag24
ag622
ag624
ag626
ag628
ag630
ag632
ag24
ag635
ag637
ag639
ag641
ag643
ag645
ag647
ag649
ag651
ag653
ag655
ag32
ag658
ag24
ag661
ag663
ag666
ag668
ag670
ag672
ag674
ag24
ag677
ag679
ag681
ag683
ag685
ag687
ag689
ag691
ag693
ag24
ag696
ag698
ag701
ag704
ag706
ag708
ag24
ag711
ag713
ag715
ag717
ag719
ag722
ag724
ag726
ag728
ag730
ag24
ag733
ag735
ag737
ag739
ag741
ag743
ag745
ag747
ag749
ag24
ag752
ag754
ag756
ag758
ag760
ag762
ag764
ag766
ag768
ag24
ag771
ag773
ag775
ag777
ag779
ag781
ag24
ag784
ag786
ag788
ag790
ag792
ag794
ag796
ag798
ag24
ag801
ag803
ag805
ag807
ag809
ag811
ag813
ag815
ag817
ag819
ag24
ag822
ag824
ag826
ag828
ag830
ag832
ag834
ag836
ag24
ag839
ag841
ag843
ag845
ag847
ag849
ag851
ag24
ag854
ag856
ag858
ag860
ag862
ag32
ag865
ag24
ag868
ag870
ag872
ag874
ag876
ag878
ag24
ag881
ag883
ag885
ag887
ag889
ag891
ag893
ag24
ag896
ag898
ag900
ag902
ag904
ag906
ag908
ag910
ag912
ag914
ag24
ag917
ag919
ag921
ag923
ag925
ag927
ag929
ag931
ag933
ag24
ag936
ag938
ag32
ag941
ag24
ag944
ag946
ag32
ag949
ag24
ag952
ag954
ag32
ag957
ag24
ag960
ag962
ag964
ag966
ag968
ag24
ag971
ag973
ag975
ag977
ag979
ag981
ag983
ag985
ag987
ag989
ag991
ag993
ag24
ag996
ag998
ag1000
ag1002
ag1004
ag1006
ag1008
ag24
ag1011
ag1013
ag1015
ag1017
ag1019
ag1021
ag24
ag1024
ag1026
ag1028
ag1030
ag1032
ag1034
ag24
ag1037
ag1039
ag1041
ag1043
ag1045
ag1047
ag1049
ag1051
ag1053
ag1055
ag24
ag1058
ag1060
ag1062
ag1064
ag24
ag1067
ag1069
ag1071
ag1073
ag1075
ag1077
ag1079
ag1081
ag24
ag1084
ag1086
ag1088
ag1090
ag1092
ag1094
ag1096
ag1098
ag1100
ag1102
ag24
ag1105
ag1107
ag1109
ag1111
ag1113
ag1115
ag1117
ag1119
ag1121
ag1123
ag1125
ag24
ag1128
ag1130
ag1132
ag1134
ag1136
ag1138
ag1140
ag1142
ag1144
ag1146
ag1148
ag1150
ag1152
ag24
ag1155
ag1157
ag1159
ag1161
ag1163
ag1165
ag1167
ag24
ag1170
ag1172
ag1174
ag1176
ag1178
ag1180
ag1182
ag1184
ag1186
ag1188
ag1190
ag1192
ag1194
ag1196
ag1198
ag24
ag1201
ag1203
ag1205
ag1207
ag1209
ag1211
ag1213
ag1215
ag24
ag1218
ag1220
ag1222
ag1224
ag1226
ag1228
ag1230
ag1232
ag1234
ag1236
ag1238
ag1240
ag1242
ag32
ag32
ag1246
ag24
ag1249
ag1251
ag1254
ag1256
ag1258
ag1260
ag1262
ag24
ag1265
ag1267
ag1269
ag1271
ag1273
ag1275
ag1277
ag1279
ag1281
ag1283
ag24
ag1286
ag1288
ag1290
ag1292
ag1294
ag1296
ag24
ag1299
ag1301
ag1303
ag1305
ag1307
ag1309
ag1311
ag24
ag1314
ag1316
ag1318
ag1320
ag1322
ag1324
ag1326
ag24
ag1329
ag1331
ag24
ag1334
ag24
ag1337
ag1339
ag1341
ag1343
ag1345
ag1347
ag1349
ag1351
ag1353
ag1355
ag1357
ag1359
ag1361
ag24
ag1364
ag1366
ag1368
ag1370
ag24
ag1373
ag1375
ag1377
ag1379
ag1381
ag1383
ag1385
ag1387
ag24
ag1390
ag1392
ag1394
ag1396
ag1398
ag1400
ag1402
ag1404
ag1406
ag1408
ag1410
ag32
ag1413
ag24
ag1416
ag1418
ag1420
ag1422
ag1424
ag24
ag1427
ag1429
ag1431
ag1433
ag1435
ag1437
ag1439
ag1441
ag1443
ag24
ag1446
ag1448
ag1450
ag1452
ag1454
ag1456
ag1458
ag1460
ag1462
ag1464
ag1466
ag1468
ag24
ag1471
ag1473
ag1475
ag1477
ag1479
ag1481
ag1483
ag24
ag1486
ag1488
ag1490
ag1492
ag1494
ag1496
ag1498
ag1500
ag1502
ag1504
ag24
ag1507
ag1509
ag24
ag1512
ag24
ag1515
ag1517
ag1519
ag1521
ag1523
ag1525
ag1527
ag1529
ag1531
ag1533
ag24
ag1536
ag1538
ag1540
ag1542
ag1544
ag1546
ag1548
ag1550
ag1552
ag1554
ag24
ag1557
ag1559
ag1561
ag1563
ag24
ag1566
ag1568
ag1570
ag1572
ag1574
ag1576
ag1578
ag1580
ag24
ag1583
ag1585
ag1587
ag1589
ag1591
ag1593
ag1595
ag24
ag1598
ag1600
ag32
ag1603
ag1606
asVhelpfulness
p1649
V0
p1650
sVtaObjectCity
p1651
VInnsbruck
p1652
s.(dp0
Vrating
p1
V4
p2
sVtext
p3
VVery nice restaurant. 2nd time there in last 8 years. Wouldn&acute;t rush back however. Food very good but not excellent. Wine very expensive for what it is. Service was excellent. Would recommend it but there are plenty of other brilliant restaurants with better value for money in Perth.
p4
sS'title_length'
p5
I289
sS'bigram_counts'
p6
ccollections
Counter
p7
((dp8
(Vtime
p9
Vlast
p10
tp11
I1
s(Vwine
p12
Vexpensive
p13
tp14
I1
s(V2nd
p15
g9
tp16
I1
s(g13
Vis.
p17
tp18
I1
s(V&
p19
Vacute
p20
tp21
I1
s(g20
V;
p22
tp23
I1
s(g22
Vrush
p24
tp25
I1
s(g17
Vservice
p26
tp27
I1
s(g24
Vback
p28
tp29
I1
s(Vexcellent.
p30
g12
tp31
I1
s(Vwould
p32
Vrecommend
p33
tp34
I1
s(Vplenty
p35
Vbrilliant
p36
tp37
I1
s(Vrestaurant.
p38
g15
tp39
I1
s(Vbetter
p40
Vvalue
p41
tp42
I1
s(g26
Vexcellent.
p43
tp44
I1
s(Vperth
p45
V.
p46
tp47
I1
s(g43
g32
tp48
I1
s(Vfood
p49
Vgood
p50
tp51
I1
s(Vhowever.
p52
g49
tp53
I1
s(Vmoney
p54
g45
tp55
I1
s(g28
g52
tp56
I1
s(g33
g35
tp57
I1
s(Vrestaurants
p58
g40
tp59
I1
s(g36
g58
tp60
I1
s(Vyears.
p61
g19
tp62
I1
s(Vnice
p63
g38
tp64
I1
s(g10
V8
p65
tp66
I1
s(g41
g54
tp67
I1
s(g65
g61
tp68
I1
s(g50
g30
tp69
I1
stp70
Rp71
sS'rev_unigrams'
p72
(lp73
g63
ag38
ag15
ag9
ag10
ag65
ag61
ag19
ag20
ag22
ag24
ag28
ag52
ag49
ag50
ag30
ag12
ag13
ag17
ag26
ag43
ag32
ag33
ag35
ag36
ag58
ag40
ag41
ag54
ag45
ag46
asVid
p74
V92
p75
sVtaObject
p76
VJackson's Restaurant
p77
sVtitle
p78
VSpecial Occasion
p79
sS'unigram_counts'
p80
g7
((dp81
g50
I1
sg49
I1
sg54
I1
sg9
I1
sg28
I1
sg12
I1
sg15
I1
sg35
I1
sg13
I1
sg20
I1
sg38
I1
sg10
I1
sg26
I1
sg32
I1
sg19
I1
sg36
I1
sg41
I1
sg46
I1
sg40
I1
sg45
I1
sg17
I1
sg61
I1
sg33
I1
sg52
I1
sg65
I1
sg22
I1
sg58
I1
sg24
I1
sg30
I2
sg63
I1
stp82
Rp83
sS'rev_bigrams'
p84
(lp85
g64
ag39
ag16
ag11
ag66
ag68
ag62
ag21
ag23
ag25
ag29
ag56
ag53
ag51
ag69
ag31
ag14
ag18
ag27
ag44
ag48
ag34
ag57
ag37
ag60
ag59
ag42
ag67
ag55
ag47
asS'pos_count'
p86
ccollections
defaultdict
p87
(c__builtin__
int
p88
tp89
Rp90
V:
p91
I1
sVNN
p92
I146
sVFW
p93
I8
sVCC
p94
I1
sV,
p95
I32
sVSYM
p96
I24
sVPOS
p97
I21
sV''
p98
I45
sVCD
p99
I2
sVLS
p100
I16
sVVBZ
p101
I1
sVDT
p102
I8
sg46
I7
ssS'rev_length'
p103
I289
sVusername
p104
V124_10
p105
sS'tagged_text'
p106
(lp107
(V[
p108
g93
tp109
a(Vu
p110
VFW
p111
tp112
a(V'
p113
g97
tp114
a(VV
p115
g92
tp116
a(Ve
p117
g96
tp118
a(Vr
p119
VNN
p120
tp121
a(Vy
p122
VNN
p123
tp124
a(g113
g98
tp125
a(g95
g95
tp126
a(g110
VNN
p127
tp128
a(g113
VPOS
p129
tp130
a(Vn
p131
VNN
p132
tp133
a(Vi
p134
g100
tp135
a(Vc
p136
VNN
p137
tp138
a(g117
VSYM
p139
tp140
a(g113
V''
p141
tp142
a(g95
g95
tp143
a(g110
VNN
p144
tp145
a(g113
VPOS
p146
tp147
a(g119
VNN
p148
tp149
a(g117
VSYM
p150
tp151
a(Vs
p152
VNN
p153
tp154
a(Vt
p155
VNN
p156
tp157
a(Va
p158
VFW
p159
tp160
a(g110
VFW
p161
tp162
a(g119
VNN
p163
tp164
a(g158
g102
tp165
a(g131
VNN
p166
tp167
a(g155
VNN
p168
tp169
a(g46
g46
tp170
a(g113
V''
p171
tp172
a(g95
g95
tp173
a(g110
VNN
p174
tp175
a(g113
V''
p176
tp177
a(V2
p178
g99
tp179
a(g131
VNN
p180
tp181
a(Vd
p182
VNN
p183
tp184
a(g113
V''
p185
tp186
a(g95
g95
tp187
a(g110
VNN
p188
tp189
a(g113
VPOS
p190
tp191
a(g155
VNN
p192
tp193
a(g134
VFW
p194
tp195
a(Vm
p196
VNN
p197
tp198
a(g117
VSYM
p199
tp200
a(g113
V''
p201
tp202
a(g95
g95
tp203
a(g110
VNN
p204
tp205
a(g113
V''
p206
tp207
a(Vl
p208
VNN
p209
tp210
a(g158
VDT
p211
tp212
a(g152
VNN
p213
tp214
a(g155
VNN
p215
tp216
a(g113
V''
p217
tp218
a(g95
g95
tp219
a(g110
VNN
p220
tp221
a(g113
V''
p222
tp223
a(g65
VCD
p224
tp225
a(g113
V''
p226
tp227
a(g95
g95
tp228
a(g110
VNN
p229
tp230
a(g113
VPOS
p231
tp232
a(g122
VNN
p233
tp234
a(g117
VSYM
p235
tp236
a(g158
VDT
p237
tp238
a(g119
VNN
p239
tp240
a(g152
VNN
p241
tp242
a(g46
g46
tp243
a(g113
V''
p244
tp245
a(g95
g95
tp246
a(g110
VNN
p247
tp248
a(g113
VPOS
p249
tp250
a(VW
p251
VNN
p252
tp253
a(Vo
p254
VNN
p255
tp256
a(g110
VNN
p257
tp258
a(g208
VNN
p259
tp260
a(g182
VNN
p261
tp262
a(g131
VNN
p263
tp264
a(g113
V''
p265
tp266
a(g95
g95
tp267
a(g110
VNN
p268
tp269
a(g113
V''
p270
tp271
a(g19
g94
tp272
a(g113
V''
p273
tp274
a(g95
g95
tp275
a(g110
VNN
p276
tp277
a(g113
V''
p278
tp279
a(g158
VDT
p280
tp281
a(g136
VNN
p282
tp283
a(g110
VNN
p284
tp285
a(g155
VNN
p286
tp287
a(g117
VSYM
p288
tp289
a(g113
V''
p290
tp291
a(g95
g95
tp292
a(g110
VNN
p293
tp294
a(g113
V''
p295
tp296
a(g22
g91
tp297
a(g113
V''
p298
tp299
a(g95
g95
tp300
a(g110
VNN
p301
tp302
a(g113
VPOS
p303
tp304
a(g119
VNN
p305
tp306
a(g110
VNN
p307
tp308
a(g152
VNN
p309
tp310
a(Vh
p311
VNN
p312
tp313
a(g113
V''
p314
tp315
a(g95
g95
tp316
a(g110
VNN
p317
tp318
a(g113
VPOS
p319
tp320
a(Vb
p321
VNN
p322
tp323
a(g158
VDT
p324
tp325
a(g136
VNN
p326
tp327
a(Vk
p328
VNN
p329
tp330
a(g113
V''
p331
tp332
a(g95
g95
tp333
a(g110
VNN
p334
tp335
a(g113
VPOS
p336
tp337
a(g311
VNN
p338
tp339
a(g254
VNN
p340
tp341
a(Vw
p342
VNN
p343
tp344
a(g117
VSYM
p345
tp346
a(Vv
p347
VLS
p348
tp349
a(g117
VLS
p350
tp351
a(g119
VNN
p352
tp353
a(g46
g46
tp354
a(g113
V''
p355
tp356
a(g95
g95
tp357
a(g110
VNN
p358
tp359
a(g113
VPOS
p360
tp361
a(VF
p362
VNN
p363
tp364
a(g254
VNN
p365
tp366
a(g254
VNN
p367
tp368
a(g182
VNN
p369
tp370
a(g113
V''
p371
tp372
a(g95
g95
tp373
a(g110
VNN
p374
tp375
a(g113
VPOS
p376
tp377
a(Vg
p378
VNN
p379
tp380
a(g254
VNN
p381
tp382
a(g254
VNN
p383
tp384
a(g182
VNN
p385
tp386
a(g113
V''
p387
tp388
a(g95
g95
tp389
a(g110
VNN
p390
tp391
a(g113
V''
p392
tp393
a(g117
VLS
p394
tp395
a(Vx
p396
VNN
p397
tp398
a(g136
VNN
p399
tp400
a(g117
VSYM
p401
tp402
a(g208
VNN
p403
tp404
a(g208
VNN
p405
tp406
a(g117
VSYM
p407
tp408
a(g131
VNN
p409
tp410
a(g155
VNN
p411
tp412
a(g46
g46
tp413
a(g113
V''
p414
tp415
a(g95
g95
tp416
a(g110
VNN
p417
tp418
a(g113
VPOS
p419
tp420
a(g251
VNN
p421
tp422
a(g134
VLS
p423
tp424
a(g131
VNN
p425
tp426
a(g117
VSYM
p427
tp428
a(g113
V''
p429
tp430
a(g95
g95
tp431
a(g110
VNN
p432
tp433
a(g113
V''
p434
tp435
a(g117
VLS
p436
tp437
a(g396
VNN
p438
tp439
a(Vp
p440
VNN
p441
tp442
a(g117
VSYM
p443
tp444
a(g131
VNN
p445
tp446
a(g152
g101
tp447
a(g134
VLS
p448
tp449
a(g347
VLS
p450
tp451
a(g117
VLS
p452
tp453
a(g113
V''
p454
tp455
a(g95
g95
tp456
a(g110
VNN
p457
tp458
a(g113
V''
p459
tp460
a(g134
VLS
p461
tp462
a(g152
VNN
p463
tp464
a(g46
g46
tp465
a(g113
V''
p466
tp467
a(g95
g95
tp468
a(g110
VNN
p469
tp470
a(g113
VPOS
p471
tp472
a(VS
p473
VNN
p474
tp475
a(g117
VSYM
p476
tp477
a(g119
VLS
p478
tp479
a(g347
VLS
p480
tp481
a(g134
VLS
p482
tp483
a(g136
VNN
p484
tp485
a(g117
VSYM
p486
tp487
a(g113
V''
p488
tp489
a(g95
g95
tp490
a(g110
VNN
p491
tp492
a(g113
V''
p493
tp494
a(g117
VLS
p495
tp496
a(g396
VNN
p497
tp498
a(g136
VNN
p499
tp500
a(g117
VSYM
p501
tp502
a(g208
VNN
p503
tp504
a(g208
VNN
p505
tp506
a(g117
VSYM
p507
tp508
a(g131
VNN
p509
tp510
a(g155
VNN
p511
tp512
a(g46
g46
tp513
a(g113
V''
p514
tp515
a(g95
g95
tp516
a(g110
VNN
p517
tp518
a(g113
VPOS
p519
tp520
a(g251
VNN
p521
tp522
a(g254
VNN
p523
tp524
a(g110
VNN
p525
tp526
a(g208
VNN
p527
tp528
a(g182
VNN
p529
tp530
a(g113
V''
p531
tp532
a(g95
g95
tp533
a(g110
VNN
p534
tp535
a(g113
VPOS
p536
tp537
a(g119
VNN
p538
tp539
a(g117
VSYM
p540
tp541
a(g136
VNN
p542
tp543
a(g254
VNN
p544
tp545
a(g196
VNN
p546
tp547
a(g196
VNN
p548
tp549
a(g117
VSYM
p550
tp551
a(g131
VNN
p552
tp553
a(g182
VNN
p554
tp555
a(g113
V''
p556
tp557
a(g95
g95
tp558
a(g110
VNN
p559
tp560
a(g113
VPOS
p561
tp562
a(g440
VNN
p563
tp564
a(g208
VNN
p565
tp566
a(g117
VSYM
p567
tp568
a(g131
VNN
p569
tp570
a(g155
VNN
p571
tp572
a(g122
VNN
p573
tp574
a(g113
V''
p575
tp576
a(g95
g95
tp577
a(g110
VNN
p578
tp579
a(g113
VPOS
p580
tp581
a(g321
VNN
p582
tp583
a(g119
VNN
p584
tp585
a(g134
VFW
p586
tp587
a(g208
VNN
p588
tp589
a(g208
VNN
p590
tp591
a(g134
VLS
p592
tp593
a(g158
VDT
p594
tp595
a(g131
VNN
p596
tp597
a(g155
VNN
p598
tp599
a(g113
V''
p600
tp601
a(g95
g95
tp602
a(g110
VNN
p603
tp604
a(g113
VPOS
p605
tp606
a(g119
VNN
p607
tp608
a(g117
VSYM
p609
tp610
a(g152
VNN
p611
tp612
a(g155
VNN
p613
tp614
a(g158
VFW
p615
tp616
a(g110
VFW
p617
tp618
a(g119
VNN
p619
tp620
a(g158
VDT
p621
tp622
a(g131
VNN
p623
tp624
a(g155
VNN
p625
tp626
a(g152
VNN
p627
tp628
a(g113
V''
p629
tp630
a(g95
g95
tp631
a(g110
VNN
p632
tp633
a(g113
VPOS
p634
tp635
a(g321
VNN
p636
tp637
a(g117
VSYM
p638
tp639
a(g155
VNN
p640
tp641
a(g155
VNN
p642
tp643
a(g117
VSYM
p644
tp645
a(g119
VNN
p646
tp647
a(g113
V''
p648
tp649
a(g95
g95
tp650
a(g110
VNN
p651
tp652
a(g113
V''
p653
tp654
a(g347
VLS
p655
tp656
a(g158
VDT
p657
tp658
a(g208
VNN
p659
tp660
a(g110
VNN
p661
tp662
a(g117
VSYM
p663
tp664
a(g113
V''
p665
tp666
a(g95
g95
tp667
a(g110
VNN
p668
tp669
a(g113
VPOS
p670
tp671
a(g196
VNN
p672
tp673
a(g254
VNN
p674
tp675
a(g131
VNN
p676
tp677
a(g117
VSYM
p678
tp679
a(g122
VNN
p680
tp681
a(g113
V''
p682
tp683
a(g95
g95
tp684
a(g110
VNN
p685
tp686
a(g113
VPOS
p687
tp688
a(VP
p689
VNN
p690
tp691
a(g117
VSYM
p692
tp693
a(g119
VNN
p694
tp695
a(g155
VNN
p696
tp697
a(g311
VNN
p698
tp699
a(g113
V''
p700
tp701
a(g95
g95
tp702
a(g110
VNN
p703
tp704
a(g113
V''
p705
tp706
a(g46
g46
tp707
a(g113
V''
p708
tp709
a(V]
p710
VNN
p711
tp712
asS'tagged_title'
p713
(lp714
(g108
VFW
p715
tp716
a(g110
VFW
p717
tp718
a(g113
VPOS
p719
tp720
a(g473
VNN
p721
tp722
a(g440
VNN
p723
tp724
a(g117
VSYM
p725
tp726
a(g136
VLS
p727
tp728
a(g134
VLS
p729
tp730
a(g158
VDT
p731
tp732
a(g208
VNN
p733
tp734
a(g113
V''
p735
tp736
a(g95
g95
tp737
a(g110
VNN
p738
tp739
a(g113
VPOS
p740
tp741
a(VO
p742
VNN
p743
tp744
a(g136
VNN
p745
tp746
a(g136
VNN
p747
tp748
a(g158
VDT
p749
tp750
a(g152
VNN
p751
tp752
a(g134
VFW
p753
tp754
a(g254
VNN
p755
tp756
a(g131
VNN
p757
tp758
a(g113
V''
p759
tp760
a(g710
VNN
p761
tp762
asVtotal_points
p763
V100
p764
sVdate
p765
V5/7/2012
p766
sVtaObjectUrl
p767
Vhttp://www.tripadvisor.com/Restaurant_Review-g255103-d725917-Reviews-Jackson_s_Restaurant-Perth_Greater_Perth_Western_Australia.html
p768
sVtype
p769
VRestaurants
p770
sS'pos_unigram'
p771
(lp772
g93
ag111
ag97
ag92
ag96
ag120
ag123
ag98
ag95
ag127
ag129
ag132
ag100
ag137
ag139
ag141
ag95
ag144
ag146
ag148
ag150
ag153
ag156
ag159
ag161
ag163
ag102
ag166
ag168
ag46
ag171
ag95
ag174
ag176
ag99
ag180
ag183
ag185
ag95
ag188
ag190
ag192
ag194
ag197
ag199
ag201
ag95
ag204
ag206
ag209
ag211
ag213
ag215
ag217
ag95
ag220
ag222
ag224
ag226
ag95
ag229
ag231
ag233
ag235
ag237
ag239
ag241
ag46
ag244
ag95
ag247
ag249
ag252
ag255
ag257
ag259
ag261
ag263
ag265
ag95
ag268
ag270
ag94
ag273
ag95
ag276
ag278
ag280
ag282
ag284
ag286
ag288
ag290
ag95
ag293
ag295
ag91
ag298
ag95
ag301
ag303
ag305
ag307
ag309
ag312
ag314
ag95
ag317
ag319
ag322
ag324
ag326
ag329
ag331
ag95
ag334
ag336
ag338
ag340
ag343
ag345
ag348
ag350
ag352
ag46
ag355
ag95
ag358
ag360
ag363
ag365
ag367
ag369
ag371
ag95
ag374
ag376
ag379
ag381
ag383
ag385
ag387
ag95
ag390
ag392
ag394
ag397
ag399
ag401
ag403
ag405
ag407
ag409
ag411
ag46
ag414
ag95
ag417
ag419
ag421
ag423
ag425
ag427
ag429
ag95
ag432
ag434
ag436
ag438
ag441
ag443
ag445
ag101
ag448
ag450
ag452
ag454
ag95
ag457
ag459
ag461
ag463
ag46
ag466
ag95
ag469
ag471
ag474
ag476
ag478
ag480
ag482
ag484
ag486
ag488
ag95
ag491
ag493
ag495
ag497
ag499
ag501
ag503
ag505
ag507
ag509
ag511
ag46
ag514
ag95
ag517
ag519
ag521
ag523
ag525
ag527
ag529
ag531
ag95
ag534
ag536
ag538
ag540
ag542
ag544
ag546
ag548
ag550
ag552
ag554
ag556
ag95
ag559
ag561
ag563
ag565
ag567
ag569
ag571
ag573
ag575
ag95
ag578
ag580
ag582
ag584
ag586
ag588
ag590
ag592
ag594
ag596
ag598
ag600
ag95
ag603
ag605
ag607
ag609
ag611
ag613
ag615
ag617
ag619
ag621
ag623
ag625
ag627
ag629
ag95
ag632
ag634
ag636
ag638
ag640
ag642
ag644
ag646
ag648
ag95
ag651
ag653
ag655
ag657
ag659
ag661
ag663
ag665
ag95
ag668
ag670
ag672
ag674
ag676
ag678
ag680
ag682
ag95
ag685
ag687
ag690
ag692
ag694
ag696
ag698
ag700
ag95
ag703
ag705
ag46
ag708
ag711
asVhelpfulness
p773
V0
p774
sVtaObjectCity
p775
VPerth
p776
s.(dp0
Vrating
p1
V5
p2
sVtext
p3
VThis hotel was of the highest standard in every way. Excellent staff, room, location, view,cleanliness, food. A must see and stay in Old Saybrook. Stunning place.
p4
sS'title_length'
p5
I162
sS'bigram_counts'
p6
ccollections
Counter
p7
((dp8
(Vway.
p9
Vexcellent
p10
tp11
I1
s(Vcleanliness
p12
V,
p13
tp14
I1
s(g10
Vstaff
p15
tp16
I1
s(Vstandard
p17
Vevery
p18
tp19
I1
s(Vhighest
p20
g17
tp21
I1
s(Vroom
p22
g13
tp23
I1
s(Vfood.
p24
Vmust
p25
tp26
I1
s(g18
g9
tp27
I1
s(Vview
p28
g13
tp29
I1
s(Vold
p30
Vsaybrook.
p31
tp32
I1
s(g13
g12
tp33
I1
s(Vlocation
p34
g13
tp35
I1
s(g25
Vsee
p36
tp37
I1
s(g31
Vstunning
p38
tp39
I1
s(g13
g24
tp40
I1
s(g13
g22
tp41
I1
s(g13
g34
tp42
I1
s(g36
Vstay
p43
tp44
I1
s(g15
g13
tp45
I1
s(Vhotel
p46
g20
tp47
I1
s(g43
g30
tp48
I1
s(Vplace
p49
V.
p50
tp51
I1
s(g13
g28
tp52
I1
s(g38
g49
tp53
I1
stp54
Rp55
sS'rev_unigrams'
p56
(lp57
g46
ag20
ag17
ag18
ag9
ag10
ag15
ag13
ag22
ag13
ag34
ag13
ag28
ag13
ag12
ag13
ag24
ag25
ag36
ag43
ag30
ag31
ag38
ag49
ag50
asVid
p58
V93
p59
sVtaObject
p60
VSaybrook Point Inn & Spa
p61
sVtitle
p62
VBeautiful stunning hotel and place
p63
sS'unigram_counts'
p64
g7
((dp65
g30
I1
sg46
I1
sg43
I1
sg36
I1
sg18
I1
sg24
I1
sg10
I1
sg31
I1
sg17
I1
sg25
I1
sg9
I1
sg22
I1
sg12
I1
sg20
I1
sg13
I5
sg50
I1
sg38
I1
sg49
I1
sg34
I1
sg15
I1
sg28
I1
stp66
Rp67
sS'rev_bigrams'
p68
(lp69
g47
ag21
ag19
ag27
ag11
ag16
ag45
ag41
ag23
ag42
ag35
ag52
ag29
ag33
ag14
ag40
ag26
ag37
ag44
ag48
ag32
ag39
ag53
ag51
asS'pos_count'
p70
ccollections
defaultdict
p71
(c__builtin__
int
p72
tp73
Rp74
VNN
p75
I107
sVFW
p76
I8
sg13
I31
sVSYM
p77
I8
sVPOS
p78
I17
sV''
p79
I37
sVLS
p80
I9
sVDT
p81
I9
sg50
I4
sVNNS
p82
I1
ssS'rev_length'
p83
I162
sVusername
p84
V124_10
p85
sS'tagged_text'
p86
(lp87
(V[
p88
g76
tp89
a(Vu
p90
VFW
p91
tp92
a(V'
p93
g78
tp94
a(VT
p95
g75
tp96
a(Vh
p97
VNN
p98
tp99
a(Vi
p100
g80
tp101
a(Vs
p102
g82
tp103
a(g93
VPOS
p104
tp105
a(g13
g13
tp106
a(g90
VNN
p107
tp108
a(g93
VPOS
p109
tp110
a(g97
VNN
p111
tp112
a(Vo
p113
VNN
p114
tp115
a(Vt
p116
VNN
p117
tp118
a(Ve
p119
g77
tp120
a(Vl
p121
VNN
p122
tp123
a(g93
g79
tp124
a(g13
g13
tp125
a(g90
VNN
p126
tp127
a(g93
VPOS
p128
tp129
a(g97
VNN
p130
tp131
a(g100
VFW
p132
tp133
a(Vg
p134
VNN
p135
tp136
a(g97
VNN
p137
tp138
a(g119
VSYM
p139
tp140
a(g102
VNN
p141
tp142
a(g116
VNN
p143
tp144
a(g93
V''
p145
tp146
a(g13
g13
tp147
a(g90
VNN
p148
tp149
a(g93
VPOS
p150
tp151
a(g102
VNN
p152
tp153
a(g116
VNN
p154
tp155
a(Va
p156
g81
tp157
a(Vn
p158
VNN
p159
tp160
a(Vd
p161
VNN
p162
tp163
a(g156
VDT
p164
tp165
a(Vr
p166
VNN
p167
tp168
a(g161
VNN
p169
tp170
a(g93
V''
p171
tp172
a(g13
g13
tp173
a(g90
VNN
p174
tp175
a(g93
V''
p176
tp177
a(g119
VLS
p178
tp179
a(Vv
p180
VLS
p181
tp182
a(g119
VLS
p183
tp184
a(g166
VNN
p185
tp186
a(Vy
p187
VNN
p188
tp189
a(g93
V''
p190
tp191
a(g13
g13
tp192
a(g90
VNN
p193
tp194
a(g93
V''
p195
tp196
a(Vw
p197
VNN
p198
tp199
a(g156
VDT
p200
tp201
a(g187
VNN
p202
tp203
a(g50
g50
tp204
a(g93
V''
p205
tp206
a(g13
g13
tp207
a(g90
VNN
p208
tp209
a(g93
VPOS
p210
tp211
a(VE
p212
VNN
p213
tp214
a(Vx
p215
VNN
p216
tp217
a(Vc
p218
VNN
p219
tp220
a(g119
VSYM
p221
tp222
a(g121
VNN
p223
tp224
a(g121
VNN
p225
tp226
a(g119
VSYM
p227
tp228
a(g158
VNN
p229
tp230
a(g116
VNN
p231
tp232
a(g93
V''
p233
tp234
a(g13
g13
tp235
a(g90
VNN
p236
tp237
a(g93
VPOS
p238
tp239
a(g102
VNN
p240
tp241
a(g116
VNN
p242
tp243
a(g156
VDT
p244
tp245
a(Vf
p246
VFW
p247
tp248
a(g246
VFW
p249
tp250
a(g93
V''
p251
tp252
a(g13
g13
tp253
a(g90
VNN
p254
tp255
a(g93
V''
p256
tp257
a(g13
g13
tp258
a(g93
V''
p259
tp260
a(g13
g13
tp261
a(g90
VNN
p262
tp263
a(g93
VPOS
p264
tp265
a(g166
VNN
p266
tp267
a(g113
VNN
p268
tp269
a(g113
VNN
p270
tp271
a(Vm
p272
VNN
p273
tp274
a(g93
V''
p275
tp276
a(g13
g13
tp277
a(g90
VNN
p278
tp279
a(g93
V''
p280
tp281
a(g13
g13
tp282
a(g93
V''
p283
tp284
a(g13
g13
tp285
a(g90
VNN
p286
tp287
a(g93
VPOS
p288
tp289
a(g121
VNN
p290
tp291
a(g113
VNN
p292
tp293
a(g218
VNN
p294
tp295
a(g156
VDT
p296
tp297
a(g116
VNN
p298
tp299
a(g100
VFW
p300
tp301
a(g113
VNN
p302
tp303
a(g158
VNN
p304
tp305
a(g93
V''
p306
tp307
a(g13
g13
tp308
a(g90
VNN
p309
tp310
a(g93
V''
p311
tp312
a(g13
g13
tp313
a(g93
V''
p314
tp315
a(g13
g13
tp316
a(g90
VNN
p317
tp318
a(g93
V''
p319
tp320
a(g180
VLS
p321
tp322
a(g100
VLS
p323
tp324
a(g119
VLS
p325
tp326
a(g197
VNN
p327
tp328
a(g93
V''
p329
tp330
a(g13
g13
tp331
a(g90
VNN
p332
tp333
a(g93
V''
p334
tp335
a(g13
g13
tp336
a(g93
V''
p337
tp338
a(g13
g13
tp339
a(g90
VNN
p340
tp341
a(g93
VPOS
p342
tp343
a(g218
VNN
p344
tp345
a(g121
VNN
p346
tp347
a(g119
VSYM
p348
tp349
a(g156
VDT
p350
tp351
a(g158
VNN
p352
tp353
a(g121
VNN
p354
tp355
a(g100
VFW
p356
tp357
a(g158
VNN
p358
tp359
a(g119
VSYM
p360
tp361
a(g102
VNN
p362
tp363
a(g102
VNN
p364
tp365
a(g93
V''
p366
tp367
a(g13
g13
tp368
a(g90
VNN
p369
tp370
a(g93
V''
p371
tp372
a(g13
g13
tp373
a(g93
V''
p374
tp375
a(g13
g13
tp376
a(g90
VNN
p377
tp378
a(g93
V''
p379
tp380
a(g246
VLS
p381
tp382
a(g113
VNN
p383
tp384
a(g113
VNN
p385
tp386
a(g161
VNN
p387
tp388
a(g50
g50
tp389
a(g93
V''
p390
tp391
a(g13
g13
tp392
a(g90
VNN
p393
tp394
a(g93
VPOS
p395
tp396
a(VA
p397
VNN
p398
tp399
a(g93
V''
p400
tp401
a(g13
g13
tp402
a(g90
VNN
p403
tp404
a(g93
VPOS
p405
tp406
a(g272
VNN
p407
tp408
a(g90
VNN
p409
tp410
a(g102
VNN
p411
tp412
a(g116
VNN
p413
tp414
a(g93
V''
p415
tp416
a(g13
g13
tp417
a(g90
VNN
p418
tp419
a(g93
VPOS
p420
tp421
a(g102
VNN
p422
tp423
a(g119
VSYM
p424
tp425
a(g119
VLS
p426
tp427
a(g93
V''
p428
tp429
a(g13
g13
tp430
a(g90
VNN
p431
tp432
a(g93
VPOS
p433
tp434
a(g102
VNN
p435
tp436
a(g116
VNN
p437
tp438
a(g156
VDT
p439
tp440
a(g187
VNN
p441
tp442
a(g93
V''
p443
tp444
a(g13
g13
tp445
a(g90
VNN
p446
tp447
a(g93
VPOS
p448
tp449
a(VO
p450
VNN
p451
tp452
a(g121
VNN
p453
tp454
a(g161
VNN
p455
tp456
a(g93
V''
p457
tp458
a(g13
g13
tp459
a(g90
VNN
p460
tp461
a(g93
V''
p462
tp463
a(VS
p464
VNN
p465
tp466
a(g156
VDT
p467
tp468
a(g187
VNN
p469
tp470
a(Vb
p471
VNN
p472
tp473
a(g166
VNN
p474
tp475
a(g113
VNN
p476
tp477
a(g113
VNN
p478
tp479
a(Vk
p480
VNN
p481
tp482
a(g50
g50
tp483
a(g93
V''
p484
tp485
a(g13
g13
tp486
a(g90
VNN
p487
tp488
a(g93
VPOS
p489
tp490
a(g464
VNN
p491
tp492
a(g116
VNN
p493
tp494
a(g90
VNN
p495
tp496
a(g158
VNN
p497
tp498
a(g158
VNN
p499
tp500
a(g100
VFW
p501
tp502
a(g158
VNN
p503
tp504
a(g134
VNN
p505
tp506
a(g93
V''
p507
tp508
a(g13
g13
tp509
a(g90
VNN
p510
tp511
a(g93
VPOS
p512
tp513
a(Vp
p514
VNN
p515
tp516
a(g121
VNN
p517
tp518
a(g156
VDT
p519
tp520
a(g218
VNN
p521
tp522
a(g119
VSYM
p523
tp524
a(g93
V''
p525
tp526
a(g13
g13
tp527
a(g90
VNN
p528
tp529
a(g93
V''
p530
tp531
a(g50
g50
tp532
a(g93
V''
p533
tp534
a(V]
p535
VNN
p536
tp537
asS'tagged_title'
p538
(lp539
(g88
VFW
p540
tp541
a(g90
VFW
p542
tp543
a(g93
VPOS
p544
tp545
a(VB
p546
VNN
p547
tp548
a(g119
VSYM
p549
tp550
a(g156
VFW
p551
tp552
a(g90
VFW
p553
tp554
a(g116
VNN
p555
tp556
a(g100
VFW
p557
tp558
a(g246
VFW
p559
tp560
a(g90
VFW
p561
tp562
a(g121
VNN
p563
tp564
a(g93
V''
p565
tp566
a(g13
g13
tp567
a(g90
VNN
p568
tp569
a(g93
VPOS
p570
tp571
a(g102
VNN
p572
tp573
a(g116
VNN
p574
tp575
a(g90
VNN
p576
tp577
a(g158
VNN
p578
tp579
a(g158
VNN
p580
tp581
a(g100
VFW
p582
tp583
a(g158
VNN
p584
tp585
a(g134
VNN
p586
tp587
a(g93
V''
p588
tp589
a(g13
g13
tp590
a(g90
VNN
p591
tp592
a(g93
VPOS
p593
tp594
a(g97
VNN
p595
tp596
a(g113
VNN
p597
tp598
a(g116
VNN
p599
tp600
a(g119
VSYM
p601
tp602
a(g121
VNN
p603
tp604
a(g93
V''
p605
tp606
a(g13
g13
tp607
a(g90
VNN
p608
tp609
a(g93
V''
p610
tp611
a(g156
VDT
p612
tp613
a(g158
VNN
p614
tp615
a(g161
VNN
p616
tp617
a(g93
V''
p618
tp619
a(g13
g13
tp620
a(g90
VNN
p621
tp622
a(g93
VPOS
p623
tp624
a(g514
VNN
p625
tp626
a(g121
VNN
p627
tp628
a(g156
VDT
p629
tp630
a(g218
VNN
p631
tp632
a(g119
VSYM
p633
tp634
a(g93
VPOS
p635
tp636
a(g535
VNN
p637
tp638
asVtotal_points
p639
V100
p640
sVdate
p641
V10/11/2010
p642
sVtaObjectUrl
p643
Vhttp://www.tripadvisor.com/Hotel_Review-g33878-d85822-Reviews-Saybrook_Point_Inn_Spa-Old_Saybrook_Connecticut.html
p644
sVtype
p645
VHotels
p646
sS'pos_unigram'
p647
(lp648
g76
ag91
ag78
ag75
ag98
ag80
ag82
ag104
ag13
ag107
ag109
ag111
ag114
ag117
ag77
ag122
ag79
ag13
ag126
ag128
ag130
ag132
ag135
ag137
ag139
ag141
ag143
ag145
ag13
ag148
ag150
ag152
ag154
ag81
ag159
ag162
ag164
ag167
ag169
ag171
ag13
ag174
ag176
ag178
ag181
ag183
ag185
ag188
ag190
ag13
ag193
ag195
ag198
ag200
ag202
ag50
ag205
ag13
ag208
ag210
ag213
ag216
ag219
ag221
ag223
ag225
ag227
ag229
ag231
ag233
ag13
ag236
ag238
ag240
ag242
ag244
ag247
ag249
ag251
ag13
ag254
ag256
ag13
ag259
ag13
ag262
ag264
ag266
ag268
ag270
ag273
ag275
ag13
ag278
ag280
ag13
ag283
ag13
ag286
ag288
ag290
ag292
ag294
ag296
ag298
ag300
ag302
ag304
ag306
ag13
ag309
ag311
ag13
ag314
ag13
ag317
ag319
ag321
ag323
ag325
ag327
ag329
ag13
ag332
ag334
ag13
ag337
ag13
ag340
ag342
ag344
ag346
ag348
ag350
ag352
ag354
ag356
ag358
ag360
ag362
ag364
ag366
ag13
ag369
ag371
ag13
ag374
ag13
ag377
ag379
ag381
ag383
ag385
ag387
ag50
ag390
ag13
ag393
ag395
ag398
ag400
ag13
ag403
ag405
ag407
ag409
ag411
ag413
ag415
ag13
ag418
ag420
ag422
ag424
ag426
ag428
ag13
ag431
ag433
ag435
ag437
ag439
ag441
ag443
ag13
ag446
ag448
ag451
ag453
ag455
ag457
ag13
ag460
ag462
ag465
ag467
ag469
ag472
ag474
ag476
ag478
ag481
ag50
ag484
ag13
ag487
ag489
ag491
ag493
ag495
ag497
ag499
ag501
ag503
ag505
ag507
ag13
ag510
ag512
ag515
ag517
ag519
ag521
ag523
ag525
ag13
ag528
ag530
ag50
ag533
ag536
asVhelpfulness
p649
V0
p650
sVtaObjectCity
p651
VOld Saybrook
p652
s.(dp0
Vrating
p1
V1
p2
sVtext
p3
VMy husband and I stayed at the Travelodge LAX en route home to Australia. While the staff were pleasant enough the hotel room itself was an absolute dump. Dirty smelly and I would never recommend staying there.
p4
sS'title_length'
p5
I210
sS'bigram_counts'
p6
ccollections
Counter
p7
((dp8
(Vdirty
p9
Vsmelly
p10
tp11
I1
s(Vlax
p12
Ven
p13
tp14
I1
s(Vhusband
p15
Vstayed
p16
tp17
I1
s(g13
Vroute
p18
tp19
I1
s(Vrecommend
p20
Vstaying
p21
tp22
I1
s(Vhome
p23
Vaustralia.
p24
tp25
I1
s(g18
g23
tp26
I1
s(g21
V.
p27
tp28
I1
s(Venough
p29
Vhotel
p30
tp31
I1
s(Vdump.
p32
g9
tp33
I1
s(g24
Vstaff
p34
tp35
I1
s(Vroom
p36
Vabsolute
p37
tp38
I1
s(Vwould
p39
Vnever
p40
tp41
I1
s(g30
g36
tp42
I1
s(g34
Vpleasant
p43
tp44
I1
s(g43
g29
tp45
I1
s(Vtravelodge
p46
g12
tp47
I1
s(g40
g20
tp48
I1
s(g37
g32
tp49
I1
s(g16
g46
tp50
I1
s(g10
g39
tp51
I1
stp52
Rp53
sS'rev_unigrams'
p54
(lp55
g15
ag16
ag46
ag12
ag13
ag18
ag23
ag24
ag34
ag43
ag29
ag30
ag36
ag37
ag32
ag9
ag10
ag39
ag40
ag20
ag21
ag27
asVid
p56
V94
p57
sVtaObject
p58
VTravelodge Hotel at LAX
p59
sVtitle
p60
Va dump. surprised Travelodge put its name to this hotel!
p61
sS'unigram_counts'
p62
g7
((dp63
g21
I1
sg13
I1
sg40
I1
sg43
I1
sg10
I1
sg23
I1
sg46
I1
sg37
I1
sg36
I1
sg39
I1
sg30
I1
sg32
I1
sg16
I1
sg27
I1
sg29
I1
sg9
I1
sg20
I1
sg12
I1
sg24
I1
sg34
I1
sg18
I1
sg15
I1
stp64
Rp65
sS'rev_bigrams'
p66
(lp67
g17
ag50
ag47
ag14
ag19
ag26
ag25
ag35
ag44
ag45
ag31
ag42
ag38
ag49
ag33
ag11
ag51
ag41
ag48
ag22
ag28
asS'pos_count'
p68
ccollections
defaultdict
p69
(c__builtin__
int
p70
tp71
Rp72
VNN
p73
I118
sVFW
p74
I14
sV,
p75
I25
sVSYM
p76
I11
sVPOS
p77
I19
sV''
p78
I33
sVPRP
p79
I2
sVDT
p80
I8
sg27
I3
sVLS
p81
I7
ssS'rev_length'
p82
I210
sVusername
p83
V124_10
p84
sS'tagged_text'
p85
(lp86
(V[
p87
g74
tp88
a(Vu
p89
VFW
p90
tp91
a(V'
p92
g77
tp93
a(VM
p94
g73
tp95
a(Vy
p96
VNN
p97
tp98
a(g92
g78
tp99
a(g75
g75
tp100
a(g89
VNN
p101
tp102
a(g92
VPOS
p103
tp104
a(Vh
p105
VNN
p106
tp107
a(g89
VNN
p108
tp109
a(Vs
p110
VNN
p111
tp112
a(Vb
p113
VNN
p114
tp115
a(Va
p116
g80
tp117
a(Vn
p118
VNN
p119
tp120
a(Vd
p121
VNN
p122
tp123
a(g92
V''
p124
tp125
a(g75
g75
tp126
a(g89
VNN
p127
tp128
a(g92
V''
p129
tp130
a(VI
p131
g79
tp132
a(g92
V''
p133
tp134
a(g75
g75
tp135
a(g89
VNN
p136
tp137
a(g92
VPOS
p138
tp139
a(g110
VNN
p140
tp141
a(Vt
p142
VNN
p143
tp144
a(g116
VFW
p145
tp146
a(g96
VFW
p147
tp148
a(Ve
p149
g81
tp150
a(g121
VNN
p151
tp152
a(g92
V''
p153
tp154
a(g75
g75
tp155
a(g89
VNN
p156
tp157
a(g92
VPOS
p158
tp159
a(VT
p160
VNN
p161
tp162
a(Vr
p163
VNN
p164
tp165
a(g116
VDT
p166
tp167
a(Vv
p168
VLS
p169
tp170
a(g149
VLS
p171
tp172
a(Vl
p173
VNN
p174
tp175
a(Vo
p176
VNN
p177
tp178
a(g121
VNN
p179
tp180
a(Vg
p181
VNN
p182
tp183
a(g149
g76
tp184
a(g92
V''
p185
tp186
a(g75
g75
tp187
a(g89
VNN
p188
tp189
a(g92
VPOS
p190
tp191
a(VL
p192
VNN
p193
tp194
a(VA
p195
VNN
p196
tp197
a(VX
p198
VNN
p199
tp200
a(g92
V''
p201
tp202
a(g75
g75
tp203
a(g89
VNN
p204
tp205
a(g92
V''
p206
tp207
a(g149
VLS
p208
tp209
a(g118
VNN
p210
tp211
a(g92
V''
p212
tp213
a(g75
g75
tp214
a(g89
VNN
p215
tp216
a(g92
VPOS
p217
tp218
a(g163
VNN
p219
tp220
a(g176
VNN
p221
tp222
a(g89
VNN
p223
tp224
a(g142
VNN
p225
tp226
a(g149
VSYM
p227
tp228
a(g92
V''
p229
tp230
a(g75
g75
tp231
a(g89
VNN
p232
tp233
a(g92
VPOS
p234
tp235
a(g105
VNN
p236
tp237
a(g176
VNN
p238
tp239
a(Vm
p240
VNN
p241
tp242
a(g149
VSYM
p243
tp244
a(g92
V''
p245
tp246
a(g75
g75
tp247
a(g89
VNN
p248
tp249
a(g92
VPOS
p250
tp251
a(g195
VNN
p252
tp253
a(g89
VNN
p254
tp255
a(g110
VNN
p256
tp257
a(g142
VNN
p258
tp259
a(g163
VNN
p260
tp261
a(g116
VDT
p262
tp263
a(g173
VNN
p264
tp265
a(Vi
p266
VFW
p267
tp268
a(g116
VFW
p269
tp270
a(g27
g27
tp271
a(g92
V''
p272
tp273
a(g75
g75
tp274
a(g89
VNN
p275
tp276
a(g92
VPOS
p277
tp278
a(VW
p279
VNN
p280
tp281
a(g105
VNN
p282
tp283
a(g266
VFW
p284
tp285
a(g173
VNN
p286
tp287
a(g149
VSYM
p288
tp289
a(g92
V''
p290
tp291
a(g75
g75
tp292
a(g89
VNN
p293
tp294
a(g92
VPOS
p295
tp296
a(g110
VNN
p297
tp298
a(g142
VNN
p299
tp300
a(g116
VDT
p301
tp302
a(Vf
p303
VFW
p304
tp305
a(g303
VFW
p306
tp307
a(g92
V''
p308
tp309
a(g75
g75
tp310
a(g89
VNN
p311
tp312
a(g92
VPOS
p313
tp314
a(Vp
p315
VNN
p316
tp317
a(g173
VNN
p318
tp319
a(g149
VSYM
p320
tp321
a(g116
VDT
p322
tp323
a(g110
VNN
p324
tp325
a(g116
VDT
p326
tp327
a(g118
VNN
p328
tp329
a(g142
VNN
p330
tp331
a(g92
V''
p332
tp333
a(g75
g75
tp334
a(g89
VNN
p335
tp336
a(g92
V''
p337
tp338
a(g149
VLS
p339
tp340
a(g118
VNN
p341
tp342
a(g176
VNN
p343
tp344
a(g89
VNN
p345
tp346
a(g181
VNN
p347
tp348
a(g105
VNN
p349
tp350
a(g92
V''
p351
tp352
a(g75
g75
tp353
a(g89
VNN
p354
tp355
a(g92
VPOS
p356
tp357
a(g105
VNN
p358
tp359
a(g176
VNN
p360
tp361
a(g142
VNN
p362
tp363
a(g149
VSYM
p364
tp365
a(g173
VNN
p366
tp367
a(g92
V''
p368
tp369
a(g75
g75
tp370
a(g89
VNN
p371
tp372
a(g92
VPOS
p373
tp374
a(g163
VNN
p375
tp376
a(g176
VNN
p377
tp378
a(g176
VNN
p379
tp380
a(g240
VNN
p381
tp382
a(g92
V''
p383
tp384
a(g75
g75
tp385
a(g89
VNN
p386
tp387
a(g92
V''
p388
tp389
a(g116
VDT
p390
tp391
a(g113
VNN
p392
tp393
a(g110
VNN
p394
tp395
a(g176
VNN
p396
tp397
a(g173
VNN
p398
tp399
a(g89
VNN
p400
tp401
a(g142
VNN
p402
tp403
a(g149
VSYM
p404
tp405
a(g92
V''
p406
tp407
a(g75
g75
tp408
a(g89
VNN
p409
tp410
a(g92
V''
p411
tp412
a(g121
VFW
p413
tp414
a(g89
VFW
p415
tp416
a(g240
VNN
p417
tp418
a(g315
VNN
p419
tp420
a(g27
g27
tp421
a(g92
V''
p422
tp423
a(g75
g75
tp424
a(g89
VNN
p425
tp426
a(g92
VPOS
p427
tp428
a(VD
p429
VNN
p430
tp431
a(g266
VFW
p432
tp433
a(g163
VNN
p434
tp435
a(g142
VNN
p436
tp437
a(g96
VNN
p438
tp439
a(g92
V''
p440
tp441
a(g75
g75
tp442
a(g89
VNN
p443
tp444
a(g92
VPOS
p445
tp446
a(g110
VNN
p447
tp448
a(g240
VNN
p449
tp450
a(g149
VSYM
p451
tp452
a(g173
VNN
p453
tp454
a(g173
VNN
p455
tp456
a(g96
VNN
p457
tp458
a(g92
V''
p459
tp460
a(g75
g75
tp461
a(g89
VNN
p462
tp463
a(g92
V''
p464
tp465
a(g131
VPRP
p466
tp467
a(g92
V''
p468
tp469
a(g75
g75
tp470
a(g89
VNN
p471
tp472
a(g92
VPOS
p473
tp474
a(Vw
p475
VNN
p476
tp477
a(g176
VNN
p478
tp479
a(g89
VNN
p480
tp481
a(g173
VNN
p482
tp483
a(g121
VNN
p484
tp485
a(g92
V''
p486
tp487
a(g75
g75
tp488
a(g89
VNN
p489
tp490
a(g92
VPOS
p491
tp492
a(g118
VNN
p493
tp494
a(g149
VSYM
p495
tp496
a(g168
VLS
p497
tp498
a(g149
VLS
p499
tp500
a(g163
VNN
p501
tp502
a(g92
V''
p503
tp504
a(g75
g75
tp505
a(g89
VNN
p506
tp507
a(g92
VPOS
p508
tp509
a(g163
VNN
p510
tp511
a(g149
VSYM
p512
tp513
a(Vc
p514
VNN
p515
tp516
a(g176
VNN
p517
tp518
a(g240
VNN
p519
tp520
a(g240
VNN
p521
tp522
a(g149
VSYM
p523
tp524
a(g118
VNN
p525
tp526
a(g121
VNN
p527
tp528
a(g92
V''
p529
tp530
a(g75
g75
tp531
a(g89
VNN
p532
tp533
a(g92
VPOS
p534
tp535
a(g110
VNN
p536
tp537
a(g142
VNN
p538
tp539
a(g116
VDT
p540
tp541
a(g96
VFW
p542
tp543
a(g266
VFW
p544
tp545
a(g118
VNN
p546
tp547
a(g181
VNN
p548
tp549
a(g92
V''
p550
tp551
a(g75
g75
tp552
a(g89
VNN
p553
tp554
a(g92
V''
p555
tp556
a(g27
g27
tp557
a(g92
V''
p558
tp559
a(V]
p560
VNN
p561
tp562
asS'tagged_title'
p563
(lp564
(g87
VFW
p565
tp566
a(g89
VFW
p567
tp568
a(g92
V''
p569
tp570
a(g116
VDT
p571
tp572
a(g92
V''
p573
tp574
a(g75
g75
tp575
a(g89
VNN
p576
tp577
a(g92
V''
p578
tp579
a(g121
VFW
p580
tp581
a(g89
VFW
p582
tp583
a(g240
VNN
p584
tp585
a(g315
VNN
p586
tp587
a(g27
g27
tp588
a(g92
V''
p589
tp590
a(g75
g75
tp591
a(g89
VNN
p592
tp593
a(g92
VPOS
p594
tp595
a(g110
VNN
p596
tp597
a(g89
VNN
p598
tp599
a(g163
VNN
p600
tp601
a(g315
VNN
p602
tp603
a(g163
VNN
p604
tp605
a(g266
VFW
p606
tp607
a(g110
VVBZ
p608
tp609
a(g149
VLS
p610
tp611
a(g121
VNN
p612
tp613
a(g92
V''
p614
tp615
a(g75
g75
tp616
a(g89
VNN
p617
tp618
a(g92
VPOS
p619
tp620
a(g160
VNN
p621
tp622
a(g163
VNN
p623
tp624
a(g116
VDT
p625
tp626
a(g168
VLS
p627
tp628
a(g149
VLS
p629
tp630
a(g173
VNN
p631
tp632
a(g176
VNN
p633
tp634
a(g121
VNN
p635
tp636
a(g181
VNN
p637
tp638
a(g149
VSYM
p639
tp640
a(g92
V''
p641
tp642
a(g75
g75
tp643
a(g89
VNN
p644
tp645
a(g92
VPOS
p646
tp647
a(g315
VNN
p648
tp649
a(g89
VNN
p650
tp651
a(g142
VNN
p652
tp653
a(g92
V''
p654
tp655
a(g75
g75
tp656
a(g89
VNN
p657
tp658
a(g92
V''
p659
tp660
a(g266
VLS
p661
tp662
a(g142
VNN
p663
tp664
a(g110
VNN
p665
tp666
a(g92
V''
p667
tp668
a(g75
g75
tp669
a(g89
VNN
p670
tp671
a(g92
V''
p672
tp673
a(g118
VNN
p674
tp675
a(g116
VDT
p676
tp677
a(g240
VNN
p678
tp679
a(g149
VSYM
p680
tp681
a(g92
V''
p682
tp683
a(g75
g75
tp684
a(g89
VNN
p685
tp686
a(g92
VPOS
p687
tp688
a(g142
VNN
p689
tp690
a(g176
VNN
p691
tp692
a(g92
V''
p693
tp694
a(g75
g75
tp695
a(g89
VNN
p696
tp697
a(g92
VPOS
p698
tp699
a(g142
VNN
p700
tp701
a(g105
VNN
p702
tp703
a(g266
VLS
p704
tp705
a(g110
VNNS
p706
tp707
a(g92
VPOS
p708
tp709
a(g75
g75
tp710
a(g89
VNN
p711
tp712
a(g92
VPOS
p713
tp714
a(g105
VNN
p715
tp716
a(g176
VNN
p717
tp718
a(g142
VNN
p719
tp720
a(g149
VSYM
p721
tp722
a(g173
VNN
p723
tp724
a(g92
V''
p725
tp726
a(g75
g75
tp727
a(g89
VNN
p728
tp729
a(g92
V''
p730
tp731
a(V!
p732
g27
tp733
a(g92
V''
p734
tp735
a(g560
VNN
p736
tp737
asVtotal_points
p738
V100
p739
sVdate
p740
V10/11/2010
p741
sVtaObjectUrl
p742
Vhttp://www.tripadvisor.com/Hotel_Review-g32655-d77970-Reviews-Travelodge_Hotel_at_LAX-Los_Angeles_California.html
p743
sVtype
p744
VHotels
p745
sS'pos_unigram'
p746
(lp747
g74
ag90
ag77
ag73
ag97
ag78
ag75
ag101
ag103
ag106
ag108
ag111
ag114
ag80
ag119
ag122
ag124
ag75
ag127
ag129
ag79
ag133
ag75
ag136
ag138
ag140
ag143
ag145
ag147
ag81
ag151
ag153
ag75
ag156
ag158
ag161
ag164
ag166
ag169
ag171
ag174
ag177
ag179
ag182
ag76
ag185
ag75
ag188
ag190
ag193
ag196
ag199
ag201
ag75
ag204
ag206
ag208
ag210
ag212
ag75
ag215
ag217
ag219
ag221
ag223
ag225
ag227
ag229
ag75
ag232
ag234
ag236
ag238
ag241
ag243
ag245
ag75
ag248
ag250
ag252
ag254
ag256
ag258
ag260
ag262
ag264
ag267
ag269
ag27
ag272
ag75
ag275
ag277
ag280
ag282
ag284
ag286
ag288
ag290
ag75
ag293
ag295
ag297
ag299
ag301
ag304
ag306
ag308
ag75
ag311
ag313
ag316
ag318
ag320
ag322
ag324
ag326
ag328
ag330
ag332
ag75
ag335
ag337
ag339
ag341
ag343
ag345
ag347
ag349
ag351
ag75
ag354
ag356
ag358
ag360
ag362
ag364
ag366
ag368
ag75
ag371
ag373
ag375
ag377
ag379
ag381
ag383
ag75
ag386
ag388
ag390
ag392
ag394
ag396
ag398
ag400
ag402
ag404
ag406
ag75
ag409
ag411
ag413
ag415
ag417
ag419
ag27
ag422
ag75
ag425
ag427
ag430
ag432
ag434
ag436
ag438
ag440
ag75
ag443
ag445
ag447
ag449
ag451
ag453
ag455
ag457
ag459
ag75
ag462
ag464
ag466
ag468
ag75
ag471
ag473
ag476
ag478
ag480
ag482
ag484
ag486
ag75
ag489
ag491
ag493
ag495
ag497
ag499
ag501
ag503
ag75
ag506
ag508
ag510
ag512
ag515
ag517
ag519
ag521
ag523
ag525
ag527
ag529
ag75
ag532
ag534
ag536
ag538
ag540
ag542
ag544
ag546
ag548
ag550
ag75
ag553
ag555
ag27
ag558
ag561
asVhelpfulness
p748
V0
p749
sVtaObjectCity
p750
VLos Angeles
p751
s.