(dp0
Vrating
p1
V5
p2
sVtext
p3
VIt&acute;s location lends to being a tourist trap but not so. Meals were delicious and prices fair for fine dining. Would return.
p4
sS'title_length'
p5
I129
sS'bigram_counts'
p6
ccollections
Counter
p7
((dp8
(V;
p9
Vlocation
p10
tp11
I1
s(Vtrap
p12
Vso.
p13
tp14
I1
s(Vdelicious
p15
Vprices
p16
tp17
I1
s(V&
p18
Vacute
p19
tp20
I1
s(g19
g9
tp21
I1
s(g16
Vfair
p22
tp23
I1
s(Vreturn
p24
V.
p25
tp26
I1
s(Vlends
p27
Vtourist
p28
tp29
I1
s(Vdining.
p30
Vwould
p31
tp32
I1
s(g13
Vmeals
p33
tp34
I1
s(Vfine
p35
g30
tp36
I1
s(g31
g24
tp37
I1
s(g33
g15
tp38
I1
s(g10
g27
tp39
I1
s(g28
g12
tp40
I1
s(g22
g35
tp41
I1
stp42
Rp43
sS'rev_unigrams'
p44
(lp45
g18
ag19
ag9
ag10
ag27
ag28
ag12
ag13
ag33
ag15
ag16
ag22
ag35
ag30
ag31
ag24
ag25
asVid
p46
V280
p47
sVtaObject
p48
VRestaurant Louis-Hebert
p49
sVtitle
p50
VReally good food.
p51
sS'unigram_counts'
p52
g7
((dp53
g24
I1
sg28
I1
sg22
I1
sg30
I1
sg13
I1
sg15
I1
sg16
I1
sg35
I1
sg33
I1
sg19
I1
sg31
I1
sg18
I1
sg25
I1
sg12
I1
sg9
I1
sg27
I1
sg10
I1
stp54
Rp55
sS'rev_bigrams'
p56
(lp57
g20
ag21
ag11
ag39
ag29
ag40
ag14
ag34
ag38
ag17
ag23
ag41
ag36
ag32
ag37
ag26
asS'pos_count'
p58
ccollections
defaultdict
p59
(c__builtin__
int
p60
tp61
Rp62
VNN
p63
I70
sVFW
p64
I14
sVCC
p65
I1
sV,
p66
I17
sVSYM
p67
I8
sVPOS
p68
I12
sV''
p69
I24
sg25
I3
sVLS
p70
I1
sVDT
p71
I4
sV:
p72
I1
sVNNS
p73
I1
ssS'rev_length'
p74
I129
sVusername
p75
V19822011
p76
sS'tagged_text'
p77
(lp78
(V[
p79
g64
tp80
a(Vu
p81
VFW
p82
tp83
a(V'
p84
g68
tp85
a(VI
p86
g63
tp87
a(Vt
p88
VNN
p89
tp90
a(g84
g69
tp91
a(g66
g66
tp92
a(g81
VNN
p93
tp94
a(g84
V''
p95
tp96
a(g18
g65
tp97
a(g84
V''
p98
tp99
a(g66
g66
tp100
a(g81
VNN
p101
tp102
a(g84
V''
p103
tp104
a(Va
p105
g71
tp106
a(Vc
p107
VNN
p108
tp109
a(g81
VNN
p110
tp111
a(g88
VNN
p112
tp113
a(Ve
p114
g67
tp115
a(g84
V''
p116
tp117
a(g66
g66
tp118
a(g81
VNN
p119
tp120
a(g84
V''
p121
tp122
a(g9
g72
tp123
a(g84
V''
p124
tp125
a(g66
g66
tp126
a(g81
VNN
p127
tp128
a(g84
VPOS
p129
tp130
a(Vl
p131
VNN
p132
tp133
a(Vo
p134
VNN
p135
tp136
a(g107
VNN
p137
tp138
a(g105
VDT
p139
tp140
a(g88
VNN
p141
tp142
a(Vi
p143
VFW
p144
tp145
a(g134
VNN
p146
tp147
a(Vn
p148
VNN
p149
tp150
a(g84
V''
p151
tp152
a(g66
g66
tp153
a(g81
VNN
p154
tp155
a(g84
VPOS
p156
tp157
a(g131
VNN
p158
tp159
a(g114
VSYM
p160
tp161
a(g148
VNN
p162
tp163
a(Vd
p164
VNN
p165
tp166
a(Vs
p167
VNN
p168
tp169
a(g84
V''
p170
tp171
a(g66
g66
tp172
a(g81
VNN
p173
tp174
a(g84
VPOS
p175
tp176
a(g88
VNN
p177
tp178
a(g134
VNN
p179
tp180
a(g81
VNN
p181
tp182
a(Vr
p183
VNN
p184
tp185
a(g143
VFW
p186
tp187
a(g167
VNN
p188
tp189
a(g88
VNN
p190
tp191
a(g84
V''
p192
tp193
a(g66
g66
tp194
a(g81
VNN
p195
tp196
a(g84
VPOS
p197
tp198
a(g88
VNN
p199
tp200
a(g183
VNN
p201
tp202
a(g105
VDT
p203
tp204
a(Vp
p205
VNN
p206
tp207
a(g84
V''
p208
tp209
a(g66
g66
tp210
a(g81
VNN
p211
tp212
a(g84
VPOS
p213
tp214
a(g167
VNN
p215
tp216
a(g134
VNN
p217
tp218
a(g25
g25
tp219
a(g84
V''
p220
tp221
a(g66
g66
tp222
a(g81
VNN
p223
tp224
a(g84
VPOS
p225
tp226
a(VM
p227
VNN
p228
tp229
a(g114
VSYM
p230
tp231
a(g105
VDT
p232
tp233
a(g131
VNN
p234
tp235
a(g167
VNN
p236
tp237
a(g84
V''
p238
tp239
a(g66
g66
tp240
a(g81
VNN
p241
tp242
a(g84
VPOS
p243
tp244
a(g164
VNN
p245
tp246
a(g114
VSYM
p247
tp248
a(g131
VNN
p249
tp250
a(g143
VFW
p251
tp252
a(g107
VSYM
p253
tp254
a(g143
VFW
p255
tp256
a(g134
VNN
p257
tp258
a(g81
VNN
p259
tp260
a(g167
VNN
p261
tp262
a(g84
V''
p263
tp264
a(g66
g66
tp265
a(g81
VNN
p266
tp267
a(g84
VPOS
p268
tp269
a(g205
VNN
p270
tp271
a(g183
VNN
p272
tp273
a(g143
g70
tp274
a(g107
VNN
p275
tp276
a(g114
VSYM
p277
tp278
a(g167
g73
tp279
a(g84
VPOS
p280
tp281
a(g66
g66
tp282
a(g81
VNN
p283
tp284
a(g84
V''
p285
tp286
a(Vf
p287
VFW
p288
tp289
a(g105
VFW
p290
tp291
a(g143
VFW
p292
tp293
a(g183
VNN
p294
tp295
a(g84
V''
p296
tp297
a(g66
g66
tp298
a(g81
VNN
p299
tp300
a(g84
V''
p301
tp302
a(g287
VFW
p303
tp304
a(g143
VFW
p305
tp306
a(g148
VNN
p307
tp308
a(g114
VSYM
p309
tp310
a(g84
V''
p311
tp312
a(g66
g66
tp313
a(g81
VNN
p314
tp315
a(g84
V''
p316
tp317
a(g164
VFW
p318
tp319
a(g143
VFW
p320
tp321
a(g148
VNN
p322
tp323
a(g143
VFW
p324
tp325
a(g148
VNN
p326
tp327
a(Vg
p328
VNN
p329
tp330
a(g25
g25
tp331
a(g84
V''
p332
tp333
a(g66
g66
tp334
a(g81
VNN
p335
tp336
a(g84
VPOS
p337
tp338
a(VW
p339
VNN
p340
tp341
a(g134
VNN
p342
tp343
a(g81
VNN
p344
tp345
a(g131
VNN
p346
tp347
a(g164
VNN
p348
tp349
a(g84
V''
p350
tp351
a(g66
g66
tp352
a(g81
VNN
p353
tp354
a(g84
VPOS
p355
tp356
a(g183
VNN
p357
tp358
a(g114
VSYM
p359
tp360
a(g88
VNN
p361
tp362
a(g81
VNN
p363
tp364
a(g183
VNN
p365
tp366
a(g148
VNN
p367
tp368
a(g84
V''
p369
tp370
a(g66
g66
tp371
a(g81
VNN
p372
tp373
a(g84
V''
p374
tp375
a(g25
g25
tp376
a(g84
V''
p377
tp378
a(V]
p379
VNN
p380
tp381
asS'tagged_title'
p382
(lp383
(g79
VFW
p384
tp385
a(g81
VFW
p386
tp387
a(g84
VPOS
p388
tp389
a(VR
p390
VNN
p391
tp392
a(g114
VSYM
p393
tp394
a(g105
VDT
p395
tp396
a(g131
VNN
p397
tp398
a(g131
VNN
p399
tp400
a(Vy
p401
VNN
p402
tp403
a(g84
V''
p404
tp405
a(g66
g66
tp406
a(g81
VNN
p407
tp408
a(g84
VPOS
p409
tp410
a(g328
VNN
p411
tp412
a(g134
VNN
p413
tp414
a(g134
VNN
p415
tp416
a(g164
VNN
p417
tp418
a(g84
V''
p419
tp420
a(g66
g66
tp421
a(g81
VNN
p422
tp423
a(g84
V''
p424
tp425
a(g287
VLS
p426
tp427
a(g134
VNN
p428
tp429
a(g134
VNN
p430
tp431
a(g164
VNN
p432
tp433
a(g84
V''
p434
tp435
a(g66
g66
tp436
a(g81
VNN
p437
tp438
a(g84
V''
p439
tp440
a(g25
g25
tp441
a(g84
V''
p442
tp443
a(g379
VNN
p444
tp445
asVtotal_points
p446
V100
p447
sVdate
p448
V9/16/2015
p449
sVtaObjectUrl
p450
Vhttp://www.tripadvisor.com/Restaurant_Review-g155033-d682079-Reviews-Restaurant_Louis_Hebert-Quebec_City_Quebec.html
p451
sVtype
p452
VRestaurants
p453
sS'pos_unigram'
p454
(lp455
g64
ag82
ag68
ag63
ag89
ag69
ag66
ag93
ag95
ag65
ag98
ag66
ag101
ag103
ag71
ag108
ag110
ag112
ag67
ag116
ag66
ag119
ag121
ag72
ag124
ag66
ag127
ag129
ag132
ag135
ag137
ag139
ag141
ag144
ag146
ag149
ag151
ag66
ag154
ag156
ag158
ag160
ag162
ag165
ag168
ag170
ag66
ag173
ag175
ag177
ag179
ag181
ag184
ag186
ag188
ag190
ag192
ag66
ag195
ag197
ag199
ag201
ag203
ag206
ag208
ag66
ag211
ag213
ag215
ag217
ag25
ag220
ag66
ag223
ag225
ag228
ag230
ag232
ag234
ag236
ag238
ag66
ag241
ag243
ag245
ag247
ag249
ag251
ag253
ag255
ag257
ag259
ag261
ag263
ag66
ag266
ag268
ag270
ag272
ag70
ag275
ag277
ag73
ag280
ag66
ag283
ag285
ag288
ag290
ag292
ag294
ag296
ag66
ag299
ag301
ag303
ag305
ag307
ag309
ag311
ag66
ag314
ag316
ag318
ag320
ag322
ag324
ag326
ag329
ag25
ag332
ag66
ag335
ag337
ag340
ag342
ag344
ag346
ag348
ag350
ag66
ag353
ag355
ag357
ag359
ag361
ag363
ag365
ag367
ag369
ag66
ag372
ag374
ag25
ag377
ag380
asVhelpfulness
p456
V0
p457
sVtaObjectCity
p458
VQuebec City
p459
s.(dp0
Vrating
p1
V5
p2
sVtext
p3
VThird time here and still a charmer. I just love the European feel. The city is clean and easy to navigate. No issue with speaking English.
p4
sS'title_length'
p5
I139
sS'bigram_counts'
p6
ccollections
Counter
p7
((dp8
(Vnavigate.
p9
Vissue
p10
tp11
I1
s(Vcity
p12
Vclean
p13
tp14
I1
s(g10
Vspeaking
p15
tp16
I1
s(g13
Veasy
p17
tp18
I1
s(g15
Venglish
p19
tp20
I1
s(Veuropean
p21
Vfeel.
p22
tp23
I1
s(g22
g12
tp24
I1
s(Vcharmer.
p25
Vlove
p26
tp27
I1
s(Vthird
p28
Vtime
p29
tp30
I1
s(g19
V.
p31
tp32
I1
s(g17
g9
tp33
I1
s(g29
Vstill
p34
tp35
I1
s(g26
g21
tp36
I1
s(g34
g25
tp37
I1
stp38
Rp39
sS'rev_unigrams'
p40
(lp41
g28
ag29
ag34
ag25
ag26
ag21
ag22
ag12
ag13
ag17
ag9
ag10
ag15
ag19
ag31
asVid
p42
V281
p43
sVtaObject
p44
VOld Quebec
p45
sVtitle
p46
VEurope this side of the pond.
p47
sS'unigram_counts'
p48
g7
((dp49
g12
I1
sg34
I1
sg26
I1
sg17
I1
sg28
I1
sg29
I1
sg25
I1
sg22
I1
sg13
I1
sg19
I1
sg9
I1
sg31
I1
sg10
I1
sg15
I1
sg21
I1
stp50
Rp51
sS'rev_bigrams'
p52
(lp53
g30
ag35
ag37
ag27
ag36
ag23
ag24
ag14
ag18
ag33
ag11
ag16
ag20
ag32
asS'pos_count'
p54
ccollections
defaultdict
p55
(c__builtin__
int
p56
tp57
Rp58
VNN
p59
I71
sVFW
p60
I8
sV,
p61
I17
sVSYM
p62
I7
sVPOS
p63
I12
sV''
p64
I24
sVPRP
p65
I1
sVDT
p66
I7
sg31
I4
sVLS
p67
I10
ssS'rev_length'
p68
I139
sVusername
p69
V19822011
p70
sS'tagged_text'
p71
(lp72
(V[
p73
g60
tp74
a(Vu
p75
VFW
p76
tp77
a(V'
p78
g63
tp79
a(VT
p80
g59
tp81
a(Vh
p82
VNN
p83
tp84
a(Vi
p85
VFW
p86
tp87
a(Vr
p88
VNN
p89
tp90
a(Vd
p91
VNN
p92
tp93
a(g78
g64
tp94
a(g61
g61
tp95
a(g75
VNN
p96
tp97
a(g78
VPOS
p98
tp99
a(Vt
p100
VNN
p101
tp102
a(g85
VFW
p103
tp104
a(Vm
p105
VNN
p106
tp107
a(Ve
p108
g62
tp109
a(g78
V''
p110
tp111
a(g61
g61
tp112
a(g75
VNN
p113
tp114
a(g78
VPOS
p115
tp116
a(Vs
p117
VNN
p118
tp119
a(g100
VNN
p120
tp121
a(g85
VFW
p122
tp123
a(Vl
p124
VNN
p125
tp126
a(g124
VNN
p127
tp128
a(g78
V''
p129
tp130
a(g61
g61
tp131
a(g75
VNN
p132
tp133
a(g78
VPOS
p134
tp135
a(Vc
p136
VNN
p137
tp138
a(g82
VNN
p139
tp140
a(Va
p141
g66
tp142
a(g88
VNN
p143
tp144
a(g105
VNN
p145
tp146
a(g108
VSYM
p147
tp148
a(g88
VNN
p149
tp150
a(g31
g31
tp151
a(g78
V''
p152
tp153
a(g61
g61
tp154
a(g75
VNN
p155
tp156
a(g78
V''
p157
tp158
a(VI
p159
g65
tp160
a(g78
V''
p161
tp162
a(g61
g61
tp163
a(g75
VNN
p164
tp165
a(g78
VPOS
p166
tp167
a(g124
VNN
p168
tp169
a(Vo
p170
VNN
p171
tp172
a(Vv
p173
g67
tp174
a(g108
VLS
p175
tp176
a(g78
V''
p177
tp178
a(g61
g61
tp179
a(g75
VNN
p180
tp181
a(g78
VPOS
p182
tp183
a(VE
p184
VNN
p185
tp186
a(g75
VNN
p187
tp188
a(g88
VNN
p189
tp190
a(g170
VNN
p191
tp192
a(Vp
p193
VNN
p194
tp195
a(g108
VSYM
p196
tp197
a(g141
VDT
p198
tp199
a(Vn
p200
VNN
p201
tp202
a(g78
V''
p203
tp204
a(g61
g61
tp205
a(g75
VNN
p206
tp207
a(g78
V''
p208
tp209
a(Vf
p210
VLS
p211
tp212
a(g108
VLS
p213
tp214
a(g108
VLS
p215
tp216
a(g124
VNN
p217
tp218
a(g31
g31
tp219
a(g78
V''
p220
tp221
a(g61
g61
tp222
a(g75
VNN
p223
tp224
a(g78
VPOS
p225
tp226
a(g80
VNN
p227
tp228
a(g82
VNN
p229
tp230
a(g108
VSYM
p231
tp232
a(g78
V''
p233
tp234
a(g61
g61
tp235
a(g75
VNN
p236
tp237
a(g78
VPOS
p238
tp239
a(g136
VNN
p240
tp241
a(g85
VFW
p242
tp243
a(g100
VNN
p244
tp245
a(Vy
p246
VNN
p247
tp248
a(g78
V''
p249
tp250
a(g61
g61
tp251
a(g75
VNN
p252
tp253
a(g78
VPOS
p254
tp255
a(g136
VNN
p256
tp257
a(g124
VNN
p258
tp259
a(g108
VSYM
p260
tp261
a(g141
VDT
p262
tp263
a(g200
VNN
p264
tp265
a(g78
V''
p266
tp267
a(g61
g61
tp268
a(g75
VNN
p269
tp270
a(g78
V''
p271
tp272
a(g108
VLS
p273
tp274
a(g141
VDT
p275
tp276
a(g117
VNN
p277
tp278
a(g246
VNN
p279
tp280
a(g78
V''
p281
tp282
a(g61
g61
tp283
a(g75
VNN
p284
tp285
a(g78
V''
p286
tp287
a(g200
VNN
p288
tp289
a(g141
VDT
p290
tp291
a(g173
VLS
p292
tp293
a(g85
VLS
p294
tp295
a(Vg
p296
VNN
p297
tp298
a(g141
VDT
p299
tp300
a(g100
VNN
p301
tp302
a(g108
VLS
p303
tp304
a(g31
g31
tp305
a(g78
V''
p306
tp307
a(g61
g61
tp308
a(g75
VNN
p309
tp310
a(g78
VPOS
p311
tp312
a(VN
p313
VNN
p314
tp315
a(g170
VNN
p316
tp317
a(g78
V''
p318
tp319
a(g61
g61
tp320
a(g75
VNN
p321
tp322
a(g78
V''
p323
tp324
a(g85
VLS
p325
tp326
a(g117
VNN
p327
tp328
a(g117
VNN
p329
tp330
a(g75
VNN
p331
tp332
a(g108
VSYM
p333
tp334
a(g78
V''
p335
tp336
a(g61
g61
tp337
a(g75
VNN
p338
tp339
a(g78
VPOS
p340
tp341
a(g117
VNN
p342
tp343
a(g193
VNN
p344
tp345
a(g108
VSYM
p346
tp347
a(g141
VDT
p348
tp349
a(Vk
p350
VNN
p351
tp352
a(g85
VFW
p353
tp354
a(g200
VNN
p355
tp356
a(g296
VNN
p357
tp358
a(g78
V''
p359
tp360
a(g61
g61
tp361
a(g75
VNN
p362
tp363
a(g78
VPOS
p364
tp365
a(g184
VNN
p366
tp367
a(g200
VNN
p368
tp369
a(g296
VNN
p370
tp371
a(g124
VNN
p372
tp373
a(g85
VFW
p374
tp375
a(g117
VNN
p376
tp377
a(g82
VNN
p378
tp379
a(g78
V''
p380
tp381
a(g61
g61
tp382
a(g75
VNN
p383
tp384
a(g78
V''
p385
tp386
a(g31
g31
tp387
a(g78
V''
p388
tp389
a(V]
p390
VNN
p391
tp392
asS'tagged_title'
p393
(lp394
(g73
VFW
p395
tp396
a(g75
VFW
p397
tp398
a(g78
VPOS
p399
tp400
a(g184
VNN
p401
tp402
a(g75
VNN
p403
tp404
a(g88
VNN
p405
tp406
a(g170
VNN
p407
tp408
a(g193
VNN
p409
tp410
a(g108
VSYM
p411
tp412
a(g78
V''
p413
tp414
a(g61
g61
tp415
a(g75
VNN
p416
tp417
a(g78
VPOS
p418
tp419
a(g100
VNN
p420
tp421
a(g82
VNN
p422
tp423
a(g85
VLS
p424
tp425
a(g117
VNNS
p426
tp427
a(g78
VPOS
p428
tp429
a(g61
g61
tp430
a(g75
VNN
p431
tp432
a(g78
VPOS
p433
tp434
a(g117
VNN
p435
tp436
a(g85
VFW
p437
tp438
a(g91
VFW
p439
tp440
a(g108
VLS
p441
tp442
a(g78
V''
p443
tp444
a(g61
g61
tp445
a(g75
VNN
p446
tp447
a(g78
VPOS
p448
tp449
a(g170
VNN
p450
tp451
a(g210
VFW
p452
tp453
a(g78
V''
p454
tp455
a(g61
g61
tp456
a(g75
VNN
p457
tp458
a(g78
VPOS
p459
tp460
a(g100
VNN
p461
tp462
a(g82
VNN
p463
tp464
a(g108
VSYM
p465
tp466
a(g78
V''
p467
tp468
a(g61
g61
tp469
a(g75
VNN
p470
tp471
a(g78
VPOS
p472
tp473
a(g193
VNN
p474
tp475
a(g170
VNN
p476
tp477
a(g200
VNN
p478
tp479
a(g91
VNN
p480
tp481
a(g78
V''
p482
tp483
a(g61
g61
tp484
a(g75
VNN
p485
tp486
a(g78
V''
p487
tp488
a(g31
g31
tp489
a(g78
V''
p490
tp491
a(g390
VNN
p492
tp493
asVtotal_points
p494
V100
p495
sVdate
p496
V9/16/2015
p497
sVtaObjectUrl
p498
Vhttp://www.tripadvisor.com/Attraction_Review-g155033-d573466-Reviews-Old_Quebec-Quebec_City_Quebec.html
p499
sVtype
p500
VAttractions
p501
sS'pos_unigram'
p502
(lp503
g60
ag76
ag63
ag59
ag83
ag86
ag89
ag92
ag64
ag61
ag96
ag98
ag101
ag103
ag106
ag62
ag110
ag61
ag113
ag115
ag118
ag120
ag122
ag125
ag127
ag129
ag61
ag132
ag134
ag137
ag139
ag66
ag143
ag145
ag147
ag149
ag31
ag152
ag61
ag155
ag157
ag65
ag161
ag61
ag164
ag166
ag168
ag171
ag67
ag175
ag177
ag61
ag180
ag182
ag185
ag187
ag189
ag191
ag194
ag196
ag198
ag201
ag203
ag61
ag206
ag208
ag211
ag213
ag215
ag217
ag31
ag220
ag61
ag223
ag225
ag227
ag229
ag231
ag233
ag61
ag236
ag238
ag240
ag242
ag244
ag247
ag249
ag61
ag252
ag254
ag256
ag258
ag260
ag262
ag264
ag266
ag61
ag269
ag271
ag273
ag275
ag277
ag279
ag281
ag61
ag284
ag286
ag288
ag290
ag292
ag294
ag297
ag299
ag301
ag303
ag31
ag306
ag61
ag309
ag311
ag314
ag316
ag318
ag61
ag321
ag323
ag325
ag327
ag329
ag331
ag333
ag335
ag61
ag338
ag340
ag342
ag344
ag346
ag348
ag351
ag353
ag355
ag357
ag359
ag61
ag362
ag364
ag366
ag368
ag370
ag372
ag374
ag376
ag378
ag380
ag61
ag383
ag385
ag31
ag388
ag391
asVhelpfulness
p504
V0
p505
sVtaObjectCity
p506
VQuebec City
p507
s.(dp0
Vrating
p1
V4
p2
sVtext
p3
VLocated right outside the old walled city on Grand Allee, the heart of festive eateries and night life. Staff was always available and very pleasant and helpful. We have a truck and it was worth the extra $4 to use the valet parking as spaces are otherwise very tight. Access to the truck was unlimited so no issues with parking. We took advantage of the non-refundable rate for great savings. Rooms are ample though not large. Clean and well furnished. We traveled with another couple and took advantage of the very large outside courtyard both before and after dinner. We were the only ones using it and the space was perfect for unwinding after a busy day walking around the city. Will definitely will return.
p4
sS'title_length'
p5
I712
sS'bigram_counts'
p6
ccollections
Counter
p7
((dp8
(Vreturn
p9
V.
p10
tp11
I1
s(V4
p12
Vuse
p13
tp14
I1
s(Vissues
p15
Vparking.
p16
tp17
I1
s(Vavailable
p18
Vpleasant
p19
tp20
I1
s(Vday
p21
Vwalking
p22
tp23
I1
s(V$
p24
g12
tp25
I1
s(Vgrand
p26
Vallee
p27
tp28
I1
s(Vample
p29
Vthough
p30
tp31
I1
s(Vhelpful.
p32
Vtruck
p33
tp34
I1
s(Voutside
p35
Vold
p36
tp37
I1
s(Vadvantage
p38
Vlarge
p39
tp40
I1
s(Vones
p41
Vusing
p42
tp43
I1
s(g13
Vvalet
p44
tp45
I1
s(Vwalled
p46
Vcity
p47
tp48
I1
s(Vtraveled
p49
Vanother
p50
tp51
I1
s(Vtruck
p52
Vunlimited
p53
tp54
I1
s(g16
Vtook
p55
tp56
I1
s(Vcity.
p57
Vdefinitely
p58
tp59
I1
s(Vparking
p60
Vspaces
p61
tp62
I1
s(Vlarge.
p63
Vclean
p64
tp65
I1
s(Vrooms
p66
g29
tp67
I1
s(g36
g46
tp68
I1
s(g30
g63
tp69
I1
s(Vdinner.
p70
g41
tp71
I1
s(Vnon-refundable
p72
Vrate
p73
tp74
I1
s(Vlocated
p75
Vright
p76
tp77
I1
s(Vlife.
p78
Vstaff
p79
tp80
I1
s(g64
Vwell
p81
tp82
I1
s(g42
Vspace
p83
tp84
I1
s(Vaccess
p85
g52
tp86
I1
s(Votherwise
p87
Vtight.
p88
tp89
I1
s(Vsavings.
p90
g66
tp91
I1
s(g50
Vcouple
p92
tp93
I1
s(g88
g85
tp94
I1
s(V,
p95
Vheart
p96
tp97
I1
s(Varound
p98
g57
tp99
I1
s(g47
g26
tp100
I1
s(Voutside
p101
Vcourtyard
p102
tp103
I1
s(g19
g32
tp104
I1
s(Vunwinding
p105
Vbusy
p106
tp107
I1
s(g27
g95
tp108
I1
s(g83
Vperfect
p109
tp110
I1
s(g81
Vfurnished.
p111
tp112
I1
s(g79
Valways
p113
tp114
I1
s(g58
g9
tp115
I1
s(Vextra
p116
g24
tp117
I1
s(g53
g15
tp118
I1
s(g96
Vfestive
p119
tp120
I1
s(Veateries
p121
Vnight
p122
tp123
I1
s(g122
g78
tp124
I1
s(g61
g87
tp125
I1
s(g113
g18
tp126
I1
s(g109
g105
tp127
I1
s(g44
g60
tp128
I1
s(g92
Vtook
p129
tp130
I1
s(g33
Vworth
p131
tp132
I1
s(g76
g35
tp133
I1
s(g111
g49
tp134
I1
s(g39
g101
tp135
I1
s(g106
g21
tp136
I1
s(g22
g98
tp137
I1
s(g55
Vadvantage
p138
tp139
I2
s(g131
g116
tp140
I1
s(g119
g121
tp141
I1
s(g73
Vgreat
p142
tp143
I1
s(g138
g72
tp144
I1
s(g102
g70
tp145
I1
s(g142
g90
tp146
I1
stp147
Rp148
sS'rev_unigrams'
p149
(lp150
g75
ag76
ag35
ag36
ag46
ag47
ag26
ag27
ag95
ag96
ag119
ag121
ag122
ag78
ag79
ag113
ag18
ag19
ag32
ag33
ag131
ag116
ag24
ag12
ag13
ag44
ag60
ag61
ag87
ag88
ag85
ag52
ag53
ag15
ag16
ag55
ag138
ag72
ag73
ag142
ag90
ag66
ag29
ag30
ag63
ag64
ag81
ag111
ag49
ag50
ag92
ag129
ag38
ag39
ag101
ag102
ag70
ag41
ag42
ag83
ag109
ag105
ag106
ag21
ag22
ag98
ag57
ag58
ag9
ag10
asVid
p151
V282
p152
sVtaObject
p153
VHotel Chateau Laurier
p154
sVtitle
p155
VGreat location!
p156
sS'unigram_counts'
p157
g7
((dp158
g22
I1
sg116
I1
sg49
I1
sg61
I1
sg66
I1
sg50
I1
sg57
I1
sg15
I1
sg79
I1
sg109
I1
sg47
I1
sg13
I1
sg106
I1
sg24
I1
sg95
I1
sg10
I1
sg88
I1
sg12
I1
sg90
I1
sg131
I1
sg121
I1
sg9
I1
sg98
I1
sg29
I1
sg92
I1
sg63
I1
sg53
I1
sg55
I2
sg41
I1
sg42
I1
sg21
I1
sg105
I1
sg46
I1
sg113
I1
sg73
I1
sg39
I1
sg122
I1
sg78
I1
sg32
I1
sg96
I1
sg76
I1
sg36
I1
sg111
I1
sg27
I1
sg16
I1
sg60
I1
sg138
I2
sg72
I1
sg83
I1
sg119
I1
sg44
I1
sg85
I1
sg75
I1
sg35
I2
sg26
I1
sg18
I1
sg30
I1
sg19
I1
sg102
I1
sg142
I1
sg81
I1
sg58
I1
sg33
I2
sg70
I1
sg64
I1
sg87
I1
stp159
Rp160
sS'rev_bigrams'
p161
(lp162
g77
ag133
ag37
ag68
ag48
ag100
ag28
ag108
ag97
ag120
ag141
ag123
ag124
ag80
ag114
ag126
ag20
ag104
ag34
ag132
ag140
ag117
ag25
ag14
ag45
ag128
ag62
ag125
ag89
ag94
ag86
ag54
ag118
ag17
ag56
ag139
ag144
ag74
ag143
ag146
ag91
ag67
ag31
ag69
ag65
ag82
ag112
ag134
ag51
ag93
ag130
a(g129
g38
tp163
ag40
ag135
ag103
ag145
ag71
ag43
ag84
ag110
ag127
ag107
ag136
ag23
ag137
ag99
ag59
ag115
ag11
asS'pos_count'
p164
ccollections
defaultdict
p165
(c__builtin__
int
p166
tp167
Rp168
V:
p169
I1
sg24
I1
sVNN
p170
I329
sVFW
p171
I48
sVPOS
p172
I51
sVSYM
p173
I42
sg95
I75
sV''
p174
I99
sVCD
p175
I1
sVLS
p176
I26
sVVBZ
p177
I3
sVDT
p178
I38
sg10
I10
sVNNS
p179
I4
ssS'rev_length'
p180
I712
sVusername
p181
V19822011
p182
sS'tagged_text'
p183
(lp184
(V[
p185
g171
tp186
a(Vu
p187
VFW
p188
tp189
a(V'
p190
g172
tp191
a(VL
p192
g170
tp193
a(Vo
p194
VNN
p195
tp196
a(Vc
p197
VNN
p198
tp199
a(Va
p200
g178
tp201
a(Vt
p202
VNN
p203
tp204
a(Ve
p205
g173
tp206
a(Vd
p207
VFW
p208
tp209
a(g190
g174
tp210
a(g95
g95
tp211
a(g187
VNN
p212
tp213
a(g190
VPOS
p214
tp215
a(Vr
p216
VNN
p217
tp218
a(Vi
p219
VFW
p220
tp221
a(Vg
p222
VNN
p223
tp224
a(Vh
p225
VNN
p226
tp227
a(g202
VNN
p228
tp229
a(g190
V''
p230
tp231
a(g95
g95
tp232
a(g187
VNN
p233
tp234
a(g190
VPOS
p235
tp236
a(g194
VNN
p237
tp238
a(g187
VNN
p239
tp240
a(g202
VNN
p241
tp242
a(Vs
p243
VNN
p244
tp245
a(g219
VFW
p246
tp247
a(g207
VFW
p248
tp249
a(g205
g176
tp250
a(g190
V''
p251
tp252
a(g95
g95
tp253
a(g187
VNN
p254
tp255
a(g190
VPOS
p256
tp257
a(g194
VNN
p258
tp259
a(Vl
p260
VNN
p261
tp262
a(g207
VNN
p263
tp264
a(g190
V''
p265
tp266
a(g95
g95
tp267
a(g187
VNN
p268
tp269
a(g190
V''
p270
tp271
a(Vw
p272
VNN
p273
tp274
a(g200
VDT
p275
tp276
a(g260
VNN
p277
tp278
a(g260
VNN
p279
tp280
a(g205
VSYM
p281
tp282
a(g207
VFW
p283
tp284
a(g190
V''
p285
tp286
a(g95
g95
tp287
a(g187
VNN
p288
tp289
a(g190
VPOS
p290
tp291
a(g197
VNN
p292
tp293
a(g219
VFW
p294
tp295
a(g202
VNN
p296
tp297
a(Vy
p298
VNN
p299
tp300
a(g190
V''
p301
tp302
a(g95
g95
tp303
a(g187
VNN
p304
tp305
a(g190
VPOS
p306
tp307
a(VG
p308
VNN
p309
tp310
a(g216
VNN
p311
tp312
a(g200
VDT
p313
tp314
a(Vn
p315
VNN
p316
tp317
a(g207
VNN
p318
tp319
a(g190
V''
p320
tp321
a(g95
g95
tp322
a(g187
VNN
p323
tp324
a(g190
V''
p325
tp326
a(VA
p327
VDT
p328
tp329
a(g260
VNN
p330
tp331
a(g260
VNN
p332
tp333
a(g205
VSYM
p334
tp335
a(g205
VLS
p336
tp337
a(g190
V''
p338
tp339
a(g95
g95
tp340
a(g187
VNN
p341
tp342
a(g190
V''
p343
tp344
a(g95
g95
tp345
a(g190
V''
p346
tp347
a(g95
g95
tp348
a(g187
VNN
p349
tp350
a(g190
VPOS
p351
tp352
a(g225
VNN
p353
tp354
a(g205
VSYM
p355
tp356
a(g200
VDT
p357
tp358
a(g216
VNN
p359
tp360
a(g202
VNN
p361
tp362
a(g190
V''
p363
tp364
a(g95
g95
tp365
a(g187
VNN
p366
tp367
a(g190
V''
p368
tp369
a(Vf
p370
VLS
p371
tp372
a(g205
VLS
p373
tp374
a(g243
VNN
p375
tp376
a(g202
VNN
p377
tp378
a(g219
VFW
p379
tp380
a(Vv
p381
VLS
p382
tp383
a(g205
VLS
p384
tp385
a(g190
V''
p386
tp387
a(g95
g95
tp388
a(g187
VNN
p389
tp390
a(g190
V''
p391
tp392
a(g205
VLS
p393
tp394
a(g200
VDT
p395
tp396
a(g202
VNN
p397
tp398
a(g205
VSYM
p399
tp400
a(g216
VSYM
p401
tp402
a(g219
VFW
p403
tp404
a(g205
VLS
p405
tp406
a(g243
g179
tp407
a(g190
VPOS
p408
tp409
a(g95
g95
tp410
a(g187
VNN
p411
tp412
a(g190
VPOS
p413
tp414
a(g315
VNN
p415
tp416
a(g219
VFW
p417
tp418
a(g222
VNN
p419
tp420
a(g225
VNN
p421
tp422
a(g202
VNN
p423
tp424
a(g190
V''
p425
tp426
a(g95
g95
tp427
a(g187
VNN
p428
tp429
a(g190
V''
p430
tp431
a(g260
VNN
p432
tp433
a(g219
VFW
p434
tp435
a(g370
VFW
p436
tp437
a(g205
VLS
p438
tp439
a(g10
g10
tp440
a(g190
V''
p441
tp442
a(g95
g95
tp443
a(g187
VNN
p444
tp445
a(g190
VPOS
p446
tp447
a(VS
p448
VNN
p449
tp450
a(g202
VNN
p451
tp452
a(g200
VDT
p453
tp454
a(g370
VFW
p455
tp456
a(g370
VFW
p457
tp458
a(g190
V''
p459
tp460
a(g95
g95
tp461
a(g187
VNN
p462
tp463
a(g190
V''
p464
tp465
a(g200
VDT
p466
tp467
a(g260
VNN
p468
tp469
a(g272
VNN
p470
tp471
a(g200
VDT
p472
tp473
a(g298
VNN
p474
tp475
a(g243
VNN
p476
tp477
a(g190
V''
p478
tp479
a(g95
g95
tp480
a(g187
VNN
p481
tp482
a(g190
V''
p483
tp484
a(g200
VDT
p485
tp486
a(g381
VLS
p487
tp488
a(g200
VFW
p489
tp490
a(g219
VFW
p491
tp492
a(g260
VNN
p493
tp494
a(g200
VDT
p495
tp496
a(Vb
p497
VNN
p498
tp499
a(g260
VNN
p500
tp501
a(g205
VSYM
p502
tp503
a(g190
V''
p504
tp505
a(g95
g95
tp506
a(g187
VNN
p507
tp508
a(g190
VPOS
p509
tp510
a(Vp
p511
VNN
p512
tp513
a(g260
VNN
p514
tp515
a(g205
VSYM
p516
tp517
a(g200
VDT
p518
tp519
a(g243
VNN
p520
tp521
a(g200
VDT
p522
tp523
a(g315
VNN
p524
tp525
a(g202
VNN
p526
tp527
a(g190
V''
p528
tp529
a(g95
g95
tp530
a(g187
VNN
p531
tp532
a(g190
VPOS
p533
tp534
a(g225
VNN
p535
tp536
a(g205
VSYM
p537
tp538
a(g260
VNN
p539
tp540
a(g511
VNN
p541
tp542
a(g370
VFW
p543
tp544
a(g187
VFW
p545
tp546
a(g260
VNN
p547
tp548
a(g10
g10
tp549
a(g190
V''
p550
tp551
a(g95
g95
tp552
a(g187
VNN
p553
tp554
a(g190
VPOS
p555
tp556
a(VW
p557
VNN
p558
tp559
a(g205
VSYM
p560
tp561
a(g190
V''
p562
tp563
a(g95
g95
tp564
a(g187
VNN
p565
tp566
a(g190
VPOS
p567
tp568
a(g202
VNN
p569
tp570
a(g216
VNN
p571
tp572
a(g187
VNN
p573
tp574
a(g197
VNN
p575
tp576
a(Vk
p577
VNN
p578
tp579
a(g190
V''
p580
tp581
a(g95
g95
tp582
a(g187
VNN
p583
tp584
a(g190
VPOS
p585
tp586
a(g272
VNN
p587
tp588
a(g194
VNN
p589
tp590
a(g216
VNN
p591
tp592
a(g202
VNN
p593
tp594
a(g225
VNN
p595
tp596
a(g190
V''
p597
tp598
a(g95
g95
tp599
a(g187
VNN
p600
tp601
a(g190
V''
p602
tp603
a(g205
VLS
p604
tp605
a(Vx
p606
VNN
p607
tp608
a(g202
VNN
p609
tp610
a(g216
VNN
p611
tp612
a(g200
VDT
p613
tp614
a(g190
V''
p615
tp616
a(g95
g95
tp617
a(g187
VNN
p618
tp619
a(g190
V''
p620
tp621
a(g24
g24
tp622
a(g190
V''
p623
tp624
a(g95
g95
tp625
a(g187
VNN
p626
tp627
a(g190
V''
p628
tp629
a(g12
g175
tp630
a(g190
V''
p631
tp632
a(g95
g95
tp633
a(g187
VNN
p634
tp635
a(g190
VPOS
p636
tp637
a(g187
VNN
p638
tp639
a(g243
g177
tp640
a(g205
VLS
p641
tp642
a(g190
V''
p643
tp644
a(g95
g95
tp645
a(g187
VNN
p646
tp647
a(g190
V''
p648
tp649
a(g381
VLS
p650
tp651
a(g200
VDT
p652
tp653
a(g260
VNN
p654
tp655
a(g205
VSYM
p656
tp657
a(g202
VNN
p658
tp659
a(g190
V''
p660
tp661
a(g95
g95
tp662
a(g187
VNN
p663
tp664
a(g190
V''
p665
tp666
a(g511
VNN
p667
tp668
a(g200
VDT
p669
tp670
a(g216
VNN
p671
tp672
a(g577
VNN
p673
tp674
a(g219
VFW
p675
tp676
a(g315
VNN
p677
tp678
a(g222
VNN
p679
tp680
a(g190
V''
p681
tp682
a(g95
g95
tp683
a(g187
VNN
p684
tp685
a(g190
VPOS
p686
tp687
a(g243
VNN
p688
tp689
a(g511
VNN
p690
tp691
a(g200
VDT
p692
tp693
a(g197
VNN
p694
tp695
a(g205
VSYM
p696
tp697
a(g243
VNNS
p698
tp699
a(g190
VPOS
p700
tp701
a(g95
g95
tp702
a(g187
VNN
p703
tp704
a(g190
VPOS
p705
tp706
a(g194
VNN
p707
tp708
a(g202
VNN
p709
tp710
a(g225
VNN
p711
tp712
a(g205
VSYM
p713
tp714
a(g216
VNN
p715
tp716
a(g272
VFW
p717
tp718
a(g219
VFW
p719
tp720
a(g243
VNN
p721
tp722
a(g205
VSYM
p723
tp724
a(g190
V''
p725
tp726
a(g95
g95
tp727
a(g187
VNN
p728
tp729
a(g190
VPOS
p730
tp731
a(g202
VNN
p732
tp733
a(g219
VFW
p734
tp735
a(g222
VNN
p736
tp737
a(g225
VNN
p738
tp739
a(g202
VNN
p740
tp741
a(g10
g10
tp742
a(g190
V''
p743
tp744
a(g95
g95
tp745
a(g187
VNN
p746
tp747
a(g190
VPOS
p748
tp749
a(g327
VNN
p750
tp751
a(g197
VNN
p752
tp753
a(g197
VNN
p754
tp755
a(g205
VSYM
p756
tp757
a(g243
VNN
p758
tp759
a(g243
VNN
p760
tp761
a(g190
V''
p762
tp763
a(g95
g95
tp764
a(g187
VNN
p765
tp766
a(g190
VPOS
p767
tp768
a(g202
VNN
p769
tp770
a(g216
VNN
p771
tp772
a(g187
VNN
p773
tp774
a(g197
VNN
p775
tp776
a(g577
VNN
p777
tp778
a(g190
V''
p779
tp780
a(g95
g95
tp781
a(g187
VNN
p782
tp783
a(g190
VPOS
p784
tp785
a(g187
VNN
p786
tp787
a(g315
VNN
p788
tp789
a(g260
VNN
p790
tp791
a(g219
VFW
p792
tp793
a(Vm
p794
VNN
p795
tp796
a(g219
VLS
p797
tp798
a(g202
VNN
p799
tp800
a(g205
VSYM
p801
tp802
a(g207
VFW
p803
tp804
a(g190
V''
p805
tp806
a(g95
g95
tp807
a(g187
VNN
p808
tp809
a(g190
V''
p810
tp811
a(g219
VLS
p812
tp813
a(g243
VNN
p814
tp815
a(g243
VNN
p816
tp817
a(g187
VNN
p818
tp819
a(g205
VSYM
p820
tp821
a(g243
VNNS
p822
tp823
a(g190
VPOS
p824
tp825
a(g95
g95
tp826
a(g187
VNN
p827
tp828
a(g190
V''
p829
tp830
a(g511
VNN
p831
tp832
a(g200
VDT
p833
tp834
a(g216
VNN
p835
tp836
a(g577
VNN
p837
tp838
a(g219
VFW
p839
tp840
a(g315
VNN
p841
tp842
a(g222
VNN
p843
tp844
a(g10
g10
tp845
a(g190
V''
p846
tp847
a(g95
g95
tp848
a(g187
VNN
p849
tp850
a(g190
VPOS
p851
tp852
a(g557
VNN
p853
tp854
a(g205
VSYM
p855
tp856
a(g190
V''
p857
tp858
a(g95
g95
tp859
a(g187
VNN
p860
tp861
a(g190
VPOS
p862
tp863
a(g202
VNN
p864
tp865
a(g194
VNN
p866
tp867
a(g194
VNN
p868
tp869
a(g577
VNN
p870
tp871
a(g190
V''
p872
tp873
a(g95
g95
tp874
a(g187
VNN
p875
tp876
a(g190
V''
p877
tp878
a(g200
VDT
p879
tp880
a(g207
VNN
p881
tp882
a(g381
VLS
p883
tp884
a(g200
VDT
p885
tp886
a(g315
VNN
p887
tp888
a(g202
VNN
p889
tp890
a(g200
VDT
p891
tp892
a(g222
VNN
p893
tp894
a(g205
VSYM
p895
tp896
a(g190
V''
p897
tp898
a(g95
g95
tp899
a(g187
VNN
p900
tp901
a(g190
VPOS
p902
tp903
a(g315
VNN
p904
tp905
a(g194
VNN
p906
tp907
a(g315
VNN
p908
tp909
a(V-
p910
g169
tp911
a(g216
VNN
p912
tp913
a(g205
VSYM
p914
tp915
a(g370
VFW
p916
tp917
a(g187
VFW
p918
tp919
a(g315
VNN
p920
tp921
a(g207
VNN
p922
tp923
a(g200
VDT
p924
tp925
a(g497
VNN
p926
tp927
a(g260
VNN
p928
tp929
a(g205
VSYM
p930
tp931
a(g190
V''
p932
tp933
a(g95
g95
tp934
a(g187
VNN
p935
tp936
a(g190
VPOS
p937
tp938
a(g216
VNN
p939
tp940
a(g200
VDT
p941
tp942
a(g202
VNN
p943
tp944
a(g205
VSYM
p945
tp946
a(g190
V''
p947
tp948
a(g95
g95
tp949
a(g187
VNN
p950
tp951
a(g190
VPOS
p952
tp953
a(g222
VNN
p954
tp955
a(g216
VNN
p956
tp957
a(g205
VSYM
p958
tp959
a(g200
VDT
p960
tp961
a(g202
VNN
p962
tp963
a(g190
V''
p964
tp965
a(g95
g95
tp966
a(g187
VNN
p967
tp968
a(g190
V''
p969
tp970
a(g243
VVBZ
p971
tp972
a(g200
VDT
p973
tp974
a(g381
VLS
p975
tp976
a(g219
VLS
p977
tp978
a(g315
VNN
p979
tp980
a(g222
VNN
p981
tp982
a(g243
VNN
p983
tp984
a(g10
g10
tp985
a(g190
V''
p986
tp987
a(g95
g95
tp988
a(g187
VNN
p989
tp990
a(g190
VPOS
p991
tp992
a(VR
p993
VNN
p994
tp995
a(g194
VNN
p996
tp997
a(g194
VNN
p998
tp999
a(g794
VNN
p1000
tp1001
a(g243
VNN
p1002
tp1003
a(g190
V''
p1004
tp1005
a(g95
g95
tp1006
a(g187
VNN
p1007
tp1008
a(g190
V''
p1009
tp1010
a(g200
VDT
p1011
tp1012
a(g794
VNN
p1013
tp1014
a(g511
VNN
p1015
tp1016
a(g260
VNN
p1017
tp1018
a(g205
VSYM
p1019
tp1020
a(g190
V''
p1021
tp1022
a(g95
g95
tp1023
a(g187
VNN
p1024
tp1025
a(g190
VPOS
p1026
tp1027
a(g202
VNN
p1028
tp1029
a(g225
VNN
p1030
tp1031
a(g194
VNN
p1032
tp1033
a(g187
VNN
p1034
tp1035
a(g222
VNN
p1036
tp1037
a(g225
VNN
p1038
tp1039
a(g190
V''
p1040
tp1041
a(g95
g95
tp1042
a(g187
VNN
p1043
tp1044
a(g190
V''
p1045
tp1046
a(g260
VNN
p1047
tp1048
a(g200
VDT
p1049
tp1050
a(g216
VNN
p1051
tp1052
a(g222
VNN
p1053
tp1054
a(g205
VLS
p1055
tp1056
a(g10
g10
tp1057
a(g190
V''
p1058
tp1059
a(g95
g95
tp1060
a(g187
VNN
p1061
tp1062
a(g190
VPOS
p1063
tp1064
a(VC
p1065
VNN
p1066
tp1067
a(g260
VNN
p1068
tp1069
a(g205
VSYM
p1070
tp1071
a(g200
VDT
p1072
tp1073
a(g315
VNN
p1074
tp1075
a(g190
V''
p1076
tp1077
a(g95
g95
tp1078
a(g187
VNN
p1079
tp1080
a(g190
VPOS
p1081
tp1082
a(g272
VNN
p1083
tp1084
a(g205
VSYM
p1085
tp1086
a(g260
VNN
p1087
tp1088
a(g260
VNN
p1089
tp1090
a(g190
V''
p1091
tp1092
a(g95
g95
tp1093
a(g187
VNN
p1094
tp1095
a(g190
V''
p1096
tp1097
a(g370
VFW
p1098
tp1099
a(g187
VFW
p1100
tp1101
a(g216
VNN
p1102
tp1103
a(g315
VNN
p1104
tp1105
a(g219
VFW
p1106
tp1107
a(g243
VNN
p1108
tp1109
a(g225
VNN
p1110
tp1111
a(g205
VSYM
p1112
tp1113
a(g207
VNN
p1114
tp1115
a(g10
g10
tp1116
a(g190
V''
p1117
tp1118
a(g95
g95
tp1119
a(g187
VNN
p1120
tp1121
a(g190
VPOS
p1122
tp1123
a(g557
VNN
p1124
tp1125
a(g205
VSYM
p1126
tp1127
a(g190
V''
p1128
tp1129
a(g95
g95
tp1130
a(g187
VNN
p1131
tp1132
a(g190
VPOS
p1133
tp1134
a(g202
VNN
p1135
tp1136
a(g216
VNN
p1137
tp1138
a(g200
VDT
p1139
tp1140
a(g381
VLS
p1141
tp1142
a(g205
VLS
p1143
tp1144
a(g260
VNN
p1145
tp1146
a(g205
VSYM
p1147
tp1148
a(g207
VFW
p1149
tp1150
a(g190
V''
p1151
tp1152
a(g95
g95
tp1153
a(g187
VNN
p1154
tp1155
a(g190
V''
p1156
tp1157
a(g200
VDT
p1158
tp1159
a(g315
VNN
p1160
tp1161
a(g194
VNN
p1162
tp1163
a(g202
VNN
p1164
tp1165
a(g225
VNN
p1166
tp1167
a(g205
VSYM
p1168
tp1169
a(g216
VNN
p1170
tp1171
a(g190
V''
p1172
tp1173
a(g95
g95
tp1174
a(g187
VNN
p1175
tp1176
a(g190
VPOS
p1177
tp1178
a(g197
VNN
p1179
tp1180
a(g194
VNN
p1181
tp1182
a(g187
VNN
p1183
tp1184
a(g511
VNN
p1185
tp1186
a(g260
VNN
p1187
tp1188
a(g205
VSYM
p1189
tp1190
a(g190
V''
p1191
tp1192
a(g95
g95
tp1193
a(g187
VNN
p1194
tp1195
a(g190
VPOS
p1196
tp1197
a(g202
VNN
p1198
tp1199
a(g194
VNN
p1200
tp1201
a(g194
VNN
p1202
tp1203
a(g577
VNN
p1204
tp1205
a(g190
V''
p1206
tp1207
a(g95
g95
tp1208
a(g187
VNN
p1209
tp1210
a(g190
V''
p1211
tp1212
a(g200
VDT
p1213
tp1214
a(g207
VNN
p1215
tp1216
a(g381
VLS
p1217
tp1218
a(g200
VDT
p1219
tp1220
a(g315
VNN
p1221
tp1222
a(g202
VNN
p1223
tp1224
a(g200
VDT
p1225
tp1226
a(g222
VNN
p1227
tp1228
a(g205
VSYM
p1229
tp1230
a(g190
V''
p1231
tp1232
a(g95
g95
tp1233
a(g187
VNN
p1234
tp1235
a(g190
V''
p1236
tp1237
a(g260
VNN
p1238
tp1239
a(g200
VDT
p1240
tp1241
a(g216
VNN
p1242
tp1243
a(g222
VNN
p1244
tp1245
a(g205
VSYM
p1246
tp1247
a(g190
V''
p1248
tp1249
a(g95
g95
tp1250
a(g187
VNN
p1251
tp1252
a(g190
VPOS
p1253
tp1254
a(g194
VNN
p1255
tp1256
a(g187
VNN
p1257
tp1258
a(g202
VNN
p1259
tp1260
a(g243
VNN
p1261
tp1262
a(g219
VFW
p1263
tp1264
a(g207
VFW
p1265
tp1266
a(g205
VLS
p1267
tp1268
a(g190
V''
p1269
tp1270
a(g95
g95
tp1271
a(g187
VNN
p1272
tp1273
a(g190
VPOS
p1274
tp1275
a(g197
VNN
p1276
tp1277
a(g194
VNN
p1278
tp1279
a(g187
VNN
p1280
tp1281
a(g216
VNN
p1282
tp1283
a(g202
VNN
p1284
tp1285
a(g298
VNN
p1286
tp1287
a(g200
VDT
p1288
tp1289
a(g216
VNN
p1290
tp1291
a(g207
VNN
p1292
tp1293
a(g190
V''
p1294
tp1295
a(g95
g95
tp1296
a(g187
VNN
p1297
tp1298
a(g190
V''
p1299
tp1300
a(g207
VFW
p1301
tp1302
a(g219
VFW
p1303
tp1304
a(g315
VNN
p1305
tp1306
a(g315
VNN
p1307
tp1308
a(g205
VSYM
p1309
tp1310
a(g216
VNN
p1311
tp1312
a(g10
g10
tp1313
a(g190
V''
p1314
tp1315
a(g95
g95
tp1316
a(g187
VNN
p1317
tp1318
a(g190
VPOS
p1319
tp1320
a(g557
VNN
p1321
tp1322
a(g205
VSYM
p1323
tp1324
a(g190
V''
p1325
tp1326
a(g95
g95
tp1327
a(g187
VNN
p1328
tp1329
a(g190
VPOS
p1330
tp1331
a(g194
VNN
p1332
tp1333
a(g315
VNN
p1334
tp1335
a(g205
VSYM
p1336
tp1337
a(g243
VNNS
p1338
tp1339
a(g190
VPOS
p1340
tp1341
a(g95
g95
tp1342
a(g187
VNN
p1343
tp1344
a(g190
VPOS
p1345
tp1346
a(g187
VNN
p1347
tp1348
a(g243
VVBZ
p1349
tp1350
a(g219
VLS
p1351
tp1352
a(g315
VNN
p1353
tp1354
a(g222
VNN
p1355
tp1356
a(g190
V''
p1357
tp1358
a(g95
g95
tp1359
a(g187
VNN
p1360
tp1361
a(g190
VPOS
p1362
tp1363
a(g243
VNN
p1364
tp1365
a(g511
VNN
p1366
tp1367
a(g200
VDT
p1368
tp1369
a(g197
VNN
p1370
tp1371
a(g205
VSYM
p1372
tp1373
a(g190
V''
p1374
tp1375
a(g95
g95
tp1376
a(g187
VNN
p1377
tp1378
a(g190
VPOS
p1379
tp1380
a(g511
VNN
p1381
tp1382
a(g205
VSYM
p1383
tp1384
a(g216
VNN
p1385
tp1386
a(g370
VSYM
p1387
tp1388
a(g205
VLS
p1389
tp1390
a(g197
VNN
p1391
tp1392
a(g202
VNN
p1393
tp1394
a(g190
V''
p1395
tp1396
a(g95
g95
tp1397
a(g187
VNN
p1398
tp1399
a(g190
VPOS
p1400
tp1401
a(g187
VNN
p1402
tp1403
a(g315
VNN
p1404
tp1405
a(g272
VFW
p1406
tp1407
a(g219
VFW
p1408
tp1409
a(g315
VNN
p1410
tp1411
a(g207
VFW
p1412
tp1413
a(g219
VFW
p1414
tp1415
a(g315
VNN
p1416
tp1417
a(g222
VNN
p1418
tp1419
a(g190
V''
p1420
tp1421
a(g95
g95
tp1422
a(g187
VNN
p1423
tp1424
a(g190
VPOS
p1425
tp1426
a(g497
VNN
p1427
tp1428
a(g187
VNN
p1429
tp1430
a(g243
VNN
p1431
tp1432
a(g298
VNN
p1433
tp1434
a(g190
V''
p1435
tp1436
a(g95
g95
tp1437
a(g187
VNN
p1438
tp1439
a(g190
V''
p1440
tp1441
a(g207
VFW
p1442
tp1443
a(g200
VFW
p1444
tp1445
a(g298
VFW
p1446
tp1447
a(g190
V''
p1448
tp1449
a(g95
g95
tp1450
a(g187
VNN
p1451
tp1452
a(g190
V''
p1453
tp1454
a(g272
VNN
p1455
tp1456
a(g200
VDT
p1457
tp1458
a(g260
VNN
p1459
tp1460
a(g577
VNN
p1461
tp1462
a(g219
VFW
p1463
tp1464
a(g315
VNN
p1465
tp1466
a(g222
VNN
p1467
tp1468
a(g190
V''
p1469
tp1470
a(g95
g95
tp1471
a(g187
VNN
p1472
tp1473
a(g190
V''
p1474
tp1475
a(g200
VDT
p1476
tp1477
a(g216
VNN
p1478
tp1479
a(g194
VNN
p1480
tp1481
a(g187
VNN
p1482
tp1483
a(g315
VNN
p1484
tp1485
a(g207
VNN
p1486
tp1487
a(g190
V''
p1488
tp1489
a(g95
g95
tp1490
a(g187
VNN
p1491
tp1492
a(g190
VPOS
p1493
tp1494
a(g197
VNN
p1495
tp1496
a(g219
VFW
p1497
tp1498
a(g202
VNN
p1499
tp1500
a(g298
VNN
p1501
tp1502
a(g10
g10
tp1503
a(g190
V''
p1504
tp1505
a(g95
g95
tp1506
a(g187
VNN
p1507
tp1508
a(g190
VPOS
p1509
tp1510
a(g557
VNN
p1511
tp1512
a(g219
VFW
p1513
tp1514
a(g260
VNN
p1515
tp1516
a(g260
VNN
p1517
tp1518
a(g190
V''
p1519
tp1520
a(g95
g95
tp1521
a(g187
VNN
p1522
tp1523
a(g190
VPOS
p1524
tp1525
a(g207
VNN
p1526
tp1527
a(g205
VSYM
p1528
tp1529
a(g370
VFW
p1530
tp1531
a(g219
VFW
p1532
tp1533
a(g315
VNN
p1534
tp1535
a(g219
VLS
p1536
tp1537
a(g202
VNN
p1538
tp1539
a(g205
VSYM
p1540
tp1541
a(g260
VNN
p1542
tp1543
a(g298
VNN
p1544
tp1545
a(g190
V''
p1546
tp1547
a(g95
g95
tp1548
a(g187
VNN
p1549
tp1550
a(g190
VPOS
p1551
tp1552
a(g216
VNN
p1553
tp1554
a(g205
VSYM
p1555
tp1556
a(g202
VNN
p1557
tp1558
a(g187
VNN
p1559
tp1560
a(g216
VNN
p1561
tp1562
a(g315
VNN
p1563
tp1564
a(g190
V''
p1565
tp1566
a(g95
g95
tp1567
a(g187
VNN
p1568
tp1569
a(g190
V''
p1570
tp1571
a(g10
g10
tp1572
a(g190
V''
p1573
tp1574
a(V]
p1575
VNN
p1576
tp1577
asS'tagged_title'
p1578
(lp1579
(g185
VFW
p1580
tp1581
a(g187
VFW
p1582
tp1583
a(g190
VPOS
p1584
tp1585
a(g308
VNN
p1586
tp1587
a(g216
VNN
p1588
tp1589
a(g205
VSYM
p1590
tp1591
a(g200
VDT
p1592
tp1593
a(g202
VNN
p1594
tp1595
a(g190
V''
p1596
tp1597
a(g95
g95
tp1598
a(g187
VNN
p1599
tp1600
a(g190
VPOS
p1601
tp1602
a(g260
VNN
p1603
tp1604
a(g194
VNN
p1605
tp1606
a(g197
VNN
p1607
tp1608
a(g200
VDT
p1609
tp1610
a(g202
VNN
p1611
tp1612
a(g219
VFW
p1613
tp1614
a(g194
VNN
p1615
tp1616
a(g315
VNN
p1617
tp1618
a(g190
V''
p1619
tp1620
a(g95
g95
tp1621
a(g187
VNN
p1622
tp1623
a(g190
V''
p1624
tp1625
a(V!
p1626
g10
tp1627
a(g190
V''
p1628
tp1629
a(g1575
VNN
p1630
tp1631
asVtotal_points
p1632
V100
p1633
sVdate
p1634
V9/16/2015
p1635
sVtaObjectUrl
p1636
Vhttp://www.tripadvisor.com/Hotel_Review-g155033-d185639-Reviews-Hotel_Chateau_Laurier-Quebec_City_Quebec.html
p1637
sVtype
p1638
VHotels
p1639
sS'pos_unigram'
p1640
(lp1641
g171
ag188
ag172
ag170
ag195
ag198
ag178
ag203
ag173
ag208
ag174
ag95
ag212
ag214
ag217
ag220
ag223
ag226
ag228
ag230
ag95
ag233
ag235
ag237
ag239
ag241
ag244
ag246
ag248
ag176
ag251
ag95
ag254
ag256
ag258
ag261
ag263
ag265
ag95
ag268
ag270
ag273
ag275
ag277
ag279
ag281
ag283
ag285
ag95
ag288
ag290
ag292
ag294
ag296
ag299
ag301
ag95
ag304
ag306
ag309
ag311
ag313
ag316
ag318
ag320
ag95
ag323
ag325
ag328
ag330
ag332
ag334
ag336
ag338
ag95
ag341
ag343
ag95
ag346
ag95
ag349
ag351
ag353
ag355
ag357
ag359
ag361
ag363
ag95
ag366
ag368
ag371
ag373
ag375
ag377
ag379
ag382
ag384
ag386
ag95
ag389
ag391
ag393
ag395
ag397
ag399
ag401
ag403
ag405
ag179
ag408
ag95
ag411
ag413
ag415
ag417
ag419
ag421
ag423
ag425
ag95
ag428
ag430
ag432
ag434
ag436
ag438
ag10
ag441
ag95
ag444
ag446
ag449
ag451
ag453
ag455
ag457
ag459
ag95
ag462
ag464
ag466
ag468
ag470
ag472
ag474
ag476
ag478
ag95
ag481
ag483
ag485
ag487
ag489
ag491
ag493
ag495
ag498
ag500
ag502
ag504
ag95
ag507
ag509
ag512
ag514
ag516
ag518
ag520
ag522
ag524
ag526
ag528
ag95
ag531
ag533
ag535
ag537
ag539
ag541
ag543
ag545
ag547
ag10
ag550
ag95
ag553
ag555
ag558
ag560
ag562
ag95
ag565
ag567
ag569
ag571
ag573
ag575
ag578
ag580
ag95
ag583
ag585
ag587
ag589
ag591
ag593
ag595
ag597
ag95
ag600
ag602
ag604
ag607
ag609
ag611
ag613
ag615
ag95
ag618
ag620
ag24
ag623
ag95
ag626
ag628
ag175
ag631
ag95
ag634
ag636
ag638
ag177
ag641
ag643
ag95
ag646
ag648
ag650
ag652
ag654
ag656
ag658
ag660
ag95
ag663
ag665
ag667
ag669
ag671
ag673
ag675
ag677
ag679
ag681
ag95
ag684
ag686
ag688
ag690
ag692
ag694
ag696
ag698
ag700
ag95
ag703
ag705
ag707
ag709
ag711
ag713
ag715
ag717
ag719
ag721
ag723
ag725
ag95
ag728
ag730
ag732
ag734
ag736
ag738
ag740
ag10
ag743
ag95
ag746
ag748
ag750
ag752
ag754
ag756
ag758
ag760
ag762
ag95
ag765
ag767
ag769
ag771
ag773
ag775
ag777
ag779
ag95
ag782
ag784
ag786
ag788
ag790
ag792
ag795
ag797
ag799
ag801
ag803
ag805
ag95
ag808
ag810
ag812
ag814
ag816
ag818
ag820
ag822
ag824
ag95
ag827
ag829
ag831
ag833
ag835
ag837
ag839
ag841
ag843
ag10
ag846
ag95
ag849
ag851
ag853
ag855
ag857
ag95
ag860
ag862
ag864
ag866
ag868
ag870
ag872
ag95
ag875
ag877
ag879
ag881
ag883
ag885
ag887
ag889
ag891
ag893
ag895
ag897
ag95
ag900
ag902
ag904
ag906
ag908
ag169
ag912
ag914
ag916
ag918
ag920
ag922
ag924
ag926
ag928
ag930
ag932
ag95
ag935
ag937
ag939
ag941
ag943
ag945
ag947
ag95
ag950
ag952
ag954
ag956
ag958
ag960
ag962
ag964
ag95
ag967
ag969
ag971
ag973
ag975
ag977
ag979
ag981
ag983
ag10
ag986
ag95
ag989
ag991
ag994
ag996
ag998
ag1000
ag1002
ag1004
ag95
ag1007
ag1009
ag1011
ag1013
ag1015
ag1017
ag1019
ag1021
ag95
ag1024
ag1026
ag1028
ag1030
ag1032
ag1034
ag1036
ag1038
ag1040
ag95
ag1043
ag1045
ag1047
ag1049
ag1051
ag1053
ag1055
ag10
ag1058
ag95
ag1061
ag1063
ag1066
ag1068
ag1070
ag1072
ag1074
ag1076
ag95
ag1079
ag1081
ag1083
ag1085
ag1087
ag1089
ag1091
ag95
ag1094
ag1096
ag1098
ag1100
ag1102
ag1104
ag1106
ag1108
ag1110
ag1112
ag1114
ag10
ag1117
ag95
ag1120
ag1122
ag1124
ag1126
ag1128
ag95
ag1131
ag1133
ag1135
ag1137
ag1139
ag1141
ag1143
ag1145
ag1147
ag1149
ag1151
ag95
ag1154
ag1156
ag1158
ag1160
ag1162
ag1164
ag1166
ag1168
ag1170
ag1172
ag95
ag1175
ag1177
ag1179
ag1181
ag1183
ag1185
ag1187
ag1189
ag1191
ag95
ag1194
ag1196
ag1198
ag1200
ag1202
ag1204
ag1206
ag95
ag1209
ag1211
ag1213
ag1215
ag1217
ag1219
ag1221
ag1223
ag1225
ag1227
ag1229
ag1231
ag95
ag1234
ag1236
ag1238
ag1240
ag1242
ag1244
ag1246
ag1248
ag95
ag1251
ag1253
ag1255
ag1257
ag1259
ag1261
ag1263
ag1265
ag1267
ag1269
ag95
ag1272
ag1274
ag1276
ag1278
ag1280
ag1282
ag1284
ag1286
ag1288
ag1290
ag1292
ag1294
ag95
ag1297
ag1299
ag1301
ag1303
ag1305
ag1307
ag1309
ag1311
ag10
ag1314
ag95
ag1317
ag1319
ag1321
ag1323
ag1325
ag95
ag1328
ag1330
ag1332
ag1334
ag1336
ag1338
ag1340
ag95
ag1343
ag1345
ag1347
ag1349
ag1351
ag1353
ag1355
ag1357
ag95
ag1360
ag1362
ag1364
ag1366
ag1368
ag1370
ag1372
ag1374
ag95
ag1377
ag1379
ag1381
ag1383
ag1385
ag1387
ag1389
ag1391
ag1393
ag1395
ag95
ag1398
ag1400
ag1402
ag1404
ag1406
ag1408
ag1410
ag1412
ag1414
ag1416
ag1418
ag1420
ag95
ag1423
ag1425
ag1427
ag1429
ag1431
ag1433
ag1435
ag95
ag1438
ag1440
ag1442
ag1444
ag1446
ag1448
ag95
ag1451
ag1453
ag1455
ag1457
ag1459
ag1461
ag1463
ag1465
ag1467
ag1469
ag95
ag1472
ag1474
ag1476
ag1478
ag1480
ag1482
ag1484
ag1486
ag1488
ag95
ag1491
ag1493
ag1495
ag1497
ag1499
ag1501
ag10
ag1504
ag95
ag1507
ag1509
ag1511
ag1513
ag1515
ag1517
ag1519
ag95
ag1522
ag1524
ag1526
ag1528
ag1530
ag1532
ag1534
ag1536
ag1538
ag1540
ag1542
ag1544
ag1546
ag95
ag1549
ag1551
ag1553
ag1555
ag1557
ag1559
ag1561
ag1563
ag1565
ag95
ag1568
ag1570
ag10
ag1573
ag1576
asVhelpfulness
p1642
V0
p1643
sVtaObjectCity
p1644
VQuebec City
p1645
s.(dp0
Vrating
p1
V5
p2
sVtext
p3
VWhat this tiny restaurant offers is creative dishes and person service. I was a bit put off that our reservation choice was so early. We were the first customers of the evening which made it less appealing until the gig unfolded to a personal tour of the history of the place, the wine selections and the menu. Humor added in there as well. There is a chef and a front man, that&acute;s it folks. One seating per table, 20 guests per night. Each course is presented so beautifully that I actually took pictures. Unique, tasty and well worth the short taxi ride out of old Quebec. A truly worthwhile experience.
p4
sS'title_length'
p5
I610
sS'bigram_counts'
p6
ccollections
Counter
p7
((dp8
(Vplace
p9
V,
p10
tp11
I1
s(Vbit
p12
Vput
p13
tp14
I1
s(Vevening
p15
Vmade
p16
tp17
I1
s(Vacute
p18
V;
p19
tp20
I1
s(Vfolks.
p21
Vone
p22
tp23
I1
s(Vworthwhile
p24
Vexperience
p25
tp26
I1
s(Vadded
p27
Vwell.
p28
tp29
I1
s(Vfirst
p30
Vcustomers
p31
tp32
I1
s(Vwell
p33
Vworth
p34
tp35
I1
s(Vdishes
p36
Vperson
p37
tp38
I1
s(Vfront
p39
Vman
p40
tp41
I1
s(Vunfolded
p42
Vpersonal
p43
tp44
I1
s(Vchef
p45
g39
tp46
I1
s(Vwine
p47
Vselections
p48
tp49
I1
s(Vappealing
p50
Vgig
p51
tp52
I1
s(Vcreative
p53
g36
tp54
I1
s(Vmenu.
p55
Vhumor
p56
tp57
I1
s(g43
Vtour
p58
tp59
I1
s(Vreservation
p60
Vchoice
p61
tp62
I1
s(Vhistory
p63
g9
tp64
I1
s(g10
V20
p65
tp66
I1
s(Vtaxi
p67
Vride
p68
tp69
I1
s(V&
p70
g18
tp71
I1
s(g48
g55
tp72
I1
s(Vtook
p73
Vpictures.
p74
tp75
I1
s(g19
g21
tp76
I1
s(Vbeautifully
p77
Vactually
p78
tp79
I1
s(g56
g27
tp80
I1
s(Vtruly
p81
g24
tp82
I1
s(g78
g73
tp83
I1
s(Vearly.
p84
g30
tp85
I1
s(g22
Vseating
p86
tp87
I1
s(g28
g45
tp88
I1
s(Vless
p89
g50
tp90
I1
s(Vunique
p91
g10
tp92
I1
s(g58
g63
tp93
I1
s(g16
g89
tp94
I1
s(g51
g42
tp95
I1
s(g25
V.
p96
tp97
I1
s(g86
Vper
p98
tp99
I1
s(Vtasty
p100
g33
tp101
I1
s(Vper
p102
Vnight.
p103
tp104
I1
s(g98
Vtable
p105
tp106
I1
s(Vold
p107
Vquebec.
p108
tp109
I1
s(Voffers
p110
g53
tp111
I1
s(g65
Vguests
p112
tp113
I1
s(Vpresented
p114
g77
tp115
I1
s(g37
Vservice.
p116
tp117
I1
s(g68
g107
tp118
I1
s(Vrestaurant
p119
g110
tp120
I1
s(g10
g70
tp121
I1
s(g108
g81
tp122
I1
s(g34
Vshort
p123
tp124
I1
s(g10
g47
tp125
I1
s(g112
g102
tp126
I1
s(g74
g91
tp127
I1
s(g105
g10
tp128
I1
s(g103
Vcourse
p129
tp130
I1
s(g116
g12
tp131
I1
s(g10
g100
tp132
I1
s(g61
g84
tp133
I1
s(g123
g67
tp134
I1
s(g129
g114
tp135
I1
s(Vtiny
p136
g119
tp137
I1
s(g13
g60
tp138
I1
s(g40
g10
tp139
I1
s(g31
g15
tp140
I1
stp141
Rp142
sS'rev_unigrams'
p143
(lp144
g136
ag119
ag110
ag53
ag36
ag37
ag116
ag12
ag13
ag60
ag61
ag84
ag30
ag31
ag15
ag16
ag89
ag50
ag51
ag42
ag43
ag58
ag63
ag9
ag10
ag47
ag48
ag55
ag56
ag27
ag28
ag45
ag39
ag40
ag10
ag70
ag18
ag19
ag21
ag22
ag86
ag98
ag105
ag10
ag65
ag112
ag102
ag103
ag129
ag114
ag77
ag78
ag73
ag74
ag91
ag10
ag100
ag33
ag34
ag123
ag67
ag68
ag107
ag108
ag81
ag24
ag25
ag96
asVid
p145
V283
p146
sVtaObject
p147
ViX pour Bistro
p148
sVtitle
p149
VCreative, delicious dishes
p150
sS'unigram_counts'
p151
g7
((dp152
g67
I1
sg74
I1
sg89
I1
sg22
I1
sg129
I1
sg42
I1
sg112
I1
sg84
I1
sg105
I1
sg96
I1
sg24
I1
sg65
I1
sg70
I1
sg43
I1
sg10
I4
sg136
I1
sg78
I1
sg51
I1
sg110
I1
sg40
I1
sg34
I1
sg31
I1
sg15
I1
sg73
I1
sg81
I1
sg108
I1
sg39
I1
sg12
I1
sg91
I1
sg18
I1
sg16
I1
sg114
I1
sg68
I1
sg48
I1
sg50
I1
sg63
I1
sg86
I1
sg107
I1
sg116
I1
sg55
I1
sg45
I1
sg28
I1
sg100
I1
sg77
I1
sg56
I1
sg36
I1
sg98
I2
sg53
I1
sg19
I1
sg27
I1
sg13
I1
sg60
I1
sg61
I1
sg21
I1
sg123
I1
sg119
I1
sg33
I1
sg25
I1
sg37
I1
sg58
I1
sg9
I1
sg30
I1
sg103
I1
sg47
I1
stp153
Rp154
sS'rev_bigrams'
p155
(lp156
g137
ag120
ag111
ag54
ag38
ag117
ag131
ag14
ag138
ag62
ag133
ag85
ag32
ag140
ag17
ag94
ag90
ag52
ag95
ag44
ag59
ag93
ag64
ag11
ag125
ag49
ag72
ag57
ag80
ag29
ag88
ag46
ag41
ag139
ag121
ag71
ag20
ag76
ag23
ag87
ag99
ag106
ag128
ag66
ag113
ag126
ag104
ag130
ag135
ag115
ag79
ag83
ag75
ag127
ag92
ag132
ag101
ag35
ag124
ag134
ag69
ag118
ag109
ag122
ag82
ag26
ag97
asS'pos_count'
p157
ccollections
defaultdict
p158
(c__builtin__
int
p159
tp160
Rp161
V:
p162
I1
sVNN
p163
I307
sVFW
p164
I43
sVCC
p165
I1
sg10
I78
sVSYM
p166
I40
sVPOS
p167
I48
sV''
p168
I102
sVCD
p169
I2
sVNNP
p170
I1
sVLS
p171
I25
sVVBZ
p172
I3
sVDT
p173
I20
sg96
I9
sVNNS
p174
I1
sVPRP
p175
I2
ssS'rev_length'
p176
I610
sVusername
p177
V19822011
p178
sS'tagged_text'
p179
(lp180
(V[
p181
g164
tp182
a(Vu
p183
VFW
p184
tp185
a(V'
p186
g167
tp187
a(VW
p188
g163
tp189
a(Vh
p190
VNN
p191
tp192
a(Va
p193
g173
tp194
a(Vt
p195
VNN
p196
tp197
a(g186
g168
tp198
a(g10
g10
tp199
a(g183
VNN
p200
tp201
a(g186
VPOS
p202
tp203
a(g195
VNN
p204
tp205
a(Vi
p206
VFW
p207
tp208
a(Vn
p209
VNN
p210
tp211
a(Vy
p212
VNN
p213
tp214
a(g186
V''
p215
tp216
a(g10
g10
tp217
a(g183
VNN
p218
tp219
a(g186
VPOS
p220
tp221
a(Vr
p222
VNN
p223
tp224
a(Ve
p225
g166
tp226
a(Vs
p227
VNN
p228
tp229
a(g195
VNN
p230
tp231
a(g193
VFW
p232
tp233
a(g183
VFW
p234
tp235
a(g222
VNN
p236
tp237
a(g193
VDT
p238
tp239
a(g209
VNN
p240
tp241
a(g195
VNN
p242
tp243
a(g186
V''
p244
tp245
a(g10
g10
tp246
a(g183
VNN
p247
tp248
a(g186
VPOS
p249
tp250
a(Vo
p251
VNN
p252
tp253
a(Vf
p254
VFW
p255
tp256
a(g254
VFW
p257
tp258
a(g225
g171
tp259
a(g222
VNN
p260
tp261
a(g227
VNN
p262
tp263
a(g186
V''
p264
tp265
a(g10
g10
tp266
a(g183
VNN
p267
tp268
a(g186
VPOS
p269
tp270
a(Vc
p271
VNN
p272
tp273
a(g222
VNN
p274
tp275
a(g225
VSYM
p276
tp277
a(g193
VDT
p278
tp279
a(g195
VNN
p280
tp281
a(g206
VFW
p282
tp283
a(Vv
p284
VLS
p285
tp286
a(g225
VLS
p287
tp288
a(g186
V''
p289
tp290
a(g10
g10
tp291
a(g183
VNN
p292
tp293
a(g186
V''
p294
tp295
a(Vd
p296
VFW
p297
tp298
a(g206
VFW
p299
tp300
a(g227
VNN
p301
tp302
a(g190
VNN
p303
tp304
a(g225
VSYM
p305
tp306
a(g227
g174
tp307
a(g186
VPOS
p308
tp309
a(g10
g10
tp310
a(g183
VNN
p311
tp312
a(g186
VPOS
p313
tp314
a(Vp
p315
VNN
p316
tp317
a(g225
VSYM
p318
tp319
a(g222
VNN
p320
tp321
a(g227
VNN
p322
tp323
a(g251
VNN
p324
tp325
a(g209
VNN
p326
tp327
a(g186
V''
p328
tp329
a(g10
g10
tp330
a(g183
VNN
p331
tp332
a(g186
VPOS
p333
tp334
a(g227
VNN
p335
tp336
a(g225
VSYM
p337
tp338
a(g222
VLS
p339
tp340
a(g284
VLS
p341
tp342
a(g206
VLS
p343
tp344
a(g271
VNN
p345
tp346
a(g225
VLS
p347
tp348
a(g96
g96
tp349
a(g186
V''
p350
tp351
a(g10
g10
tp352
a(g183
VNN
p353
tp354
a(g186
V''
p355
tp356
a(VI
p357
g175
tp358
a(g186
V''
p359
tp360
a(g10
g10
tp361
a(g183
VNN
p362
tp363
a(g186
VPOS
p364
tp365
a(Vb
p366
VNN
p367
tp368
a(g206
VFW
p369
tp370
a(g195
VNN
p371
tp372
a(g186
V''
p373
tp374
a(g10
g10
tp375
a(g183
VNN
p376
tp377
a(g186
VPOS
p378
tp379
a(g315
VNN
p380
tp381
a(g183
VNN
p382
tp383
a(g195
VNN
p384
tp385
a(g186
V''
p386
tp387
a(g10
g10
tp388
a(g183
VNN
p389
tp390
a(g186
VPOS
p391
tp392
a(g222
VNN
p393
tp394
a(g225
VSYM
p395
tp396
a(g227
g172
tp397
a(g225
VLS
p398
tp399
a(g222
VNN
p400
tp401
a(g284
VLS
p402
tp403
a(g193
VDT
p404
tp405
a(g195
VNN
p406
tp407
a(g206
VFW
p408
tp409
a(g251
VNN
p410
tp411
a(g209
VNN
p412
tp413
a(g186
V''
p414
tp415
a(g10
g10
tp416
a(g183
VNN
p417
tp418
a(g186
VPOS
p419
tp420
a(g271
VNN
p421
tp422
a(g190
VNN
p423
tp424
a(g251
VNN
p425
tp426
a(g206
VLS
p427
tp428
a(g271
VNN
p429
tp430
a(g225
VSYM
p431
tp432
a(g186
V''
p433
tp434
a(g10
g10
tp435
a(g183
VNN
p436
tp437
a(g186
V''
p438
tp439
a(g225
VLS
p440
tp441
a(g193
VDT
p442
tp443
a(g222
VNN
p444
tp445
a(Vl
p446
VNN
p447
tp448
a(g212
VNN
p449
tp450
a(g96
g96
tp451
a(g186
V''
p452
tp453
a(g10
g10
tp454
a(g183
VNN
p455
tp456
a(g186
VPOS
p457
tp458
a(g188
VNN
p459
tp460
a(g225
VSYM
p461
tp462
a(g186
V''
p463
tp464
a(g10
g10
tp465
a(g183
VNN
p466
tp467
a(g186
V''
p468
tp469
a(g254
VFW
p470
tp471
a(g206
VFW
p472
tp473
a(g222
VNN
p474
tp475
a(g227
VNN
p476
tp477
a(g195
VNN
p478
tp479
a(g186
V''
p480
tp481
a(g10
g10
tp482
a(g183
VNN
p483
tp484
a(g186
VPOS
p485
tp486
a(g271
VNN
p487
tp488
a(g183
VNN
p489
tp490
a(g227
VNN
p491
tp492
a(g195
VNN
p493
tp494
a(g251
VNN
p495
tp496
a(Vm
p497
VNN
p498
tp499
a(g225
VSYM
p500
tp501
a(g222
VNN
p502
tp503
a(g227
VNN
p504
tp505
a(g186
V''
p506
tp507
a(g10
g10
tp508
a(g183
VNN
p509
tp510
a(g186
V''
p511
tp512
a(g225
VLS
p513
tp514
a(g284
VLS
p515
tp516
a(g225
VLS
p517
tp518
a(g209
VNN
p519
tp520
a(g206
VFW
p521
tp522
a(g209
VNN
p523
tp524
a(Vg
p525
VNN
p526
tp527
a(g186
V''
p528
tp529
a(g10
g10
tp530
a(g183
VNN
p531
tp532
a(g186
V''
p533
tp534
a(g497
VNN
p535
tp536
a(g193
VDT
p537
tp538
a(g296
VNN
p539
tp540
a(g225
VSYM
p541
tp542
a(g186
V''
p543
tp544
a(g10
g10
tp545
a(g183
VNN
p546
tp547
a(g186
V''
p548
tp549
a(g446
VNN
p550
tp551
a(g225
VSYM
p552
tp553
a(g227
VNN
p554
tp555
a(g227
VNN
p556
tp557
a(g186
V''
p558
tp559
a(g10
g10
tp560
a(g183
VNN
p561
tp562
a(g186
V''
p563
tp564
a(g193
VDT
p565
tp566
a(g315
VNN
p567
tp568
a(g315
VNN
p569
tp570
a(g225
VSYM
p571
tp572
a(g193
VDT
p573
tp574
a(g446
VNN
p575
tp576
a(g206
VFW
p577
tp578
a(g209
VNN
p579
tp580
a(g525
VNN
p581
tp582
a(g186
V''
p583
tp584
a(g10
g10
tp585
a(g183
VNN
p586
tp587
a(g186
VPOS
p588
tp589
a(g525
VNN
p590
tp591
a(g206
VFW
p592
tp593
a(g525
VNN
p594
tp595
a(g186
V''
p596
tp597
a(g10
g10
tp598
a(g183
VNN
p599
tp600
a(g186
VPOS
p601
tp602
a(g183
VNN
p603
tp604
a(g209
VNN
p605
tp606
a(g254
VFW
p607
tp608
a(g251
VNN
p609
tp610
a(g446
VNN
p611
tp612
a(g296
VNN
p613
tp614
a(g225
VSYM
p615
tp616
a(g296
VFW
p617
tp618
a(g186
V''
p619
tp620
a(g10
g10
tp621
a(g183
VNN
p622
tp623
a(g186
VPOS
p624
tp625
a(g315
VNN
p626
tp627
a(g225
VSYM
p628
tp629
a(g222
VNN
p630
tp631
a(g227
VNN
p632
tp633
a(g251
VNN
p634
tp635
a(g209
VNN
p636
tp637
a(g193
VDT
p638
tp639
a(g446
VNN
p640
tp641
a(g186
V''
p642
tp643
a(g10
g10
tp644
a(g183
VNN
p645
tp646
a(g186
VPOS
p647
tp648
a(g195
VNN
p649
tp650
a(g251
VNN
p651
tp652
a(g183
VNN
p653
tp654
a(g222
VNN
p655
tp656
a(g186
V''
p657
tp658
a(g10
g10
tp659
a(g183
VNN
p660
tp661
a(g186
VPOS
p662
tp663
a(g190
VNN
p664
tp665
a(g206
VFW
p666
tp667
a(g227
VNN
p668
tp669
a(g195
VNN
p670
tp671
a(g251
VNN
p672
tp673
a(g222
VNN
p674
tp675
a(g212
VNN
p676
tp677
a(g186
V''
p678
tp679
a(g10
g10
tp680
a(g183
VNN
p681
tp682
a(g186
VPOS
p683
tp684
a(g315
VNN
p685
tp686
a(g446
VNN
p687
tp688
a(g193
VDT
p689
tp690
a(g271
VNN
p691
tp692
a(g225
VSYM
p693
tp694
a(g186
V''
p695
tp696
a(g10
g10
tp697
a(g183
VNN
p698
tp699
a(g186
V''
p700
tp701
a(g10
g10
tp702
a(g186
V''
p703
tp704
a(g10
g10
tp705
a(g183
VNN
p706
tp707
a(g186
V''
p708
tp709
a(Vw
p710
VFW
p711
tp712
a(g206
VFW
p713
tp714
a(g209
VNN
p715
tp716
a(g225
VSYM
p717
tp718
a(g186
V''
p719
tp720
a(g10
g10
tp721
a(g183
VNN
p722
tp723
a(g186
VPOS
p724
tp725
a(g227
VNN
p726
tp727
a(g225
VSYM
p728
tp729
a(g446
VNN
p730
tp731
a(g225
VSYM
p732
tp733
a(g271
VNN
p734
tp735
a(g195
VNN
p736
tp737
a(g206
VFW
p738
tp739
a(g251
VNN
p740
tp741
a(g209
VNN
p742
tp743
a(g227
VNN
p744
tp745
a(g186
V''
p746
tp747
a(g10
g10
tp748
a(g183
VNN
p749
tp750
a(g186
VPOS
p751
tp752
a(g497
VNN
p753
tp754
a(g225
VSYM
p755
tp756
a(g209
VNN
p757
tp758
a(g183
VNN
p759
tp760
a(g96
g96
tp761
a(g186
V''
p762
tp763
a(g10
g10
tp764
a(g183
VNN
p765
tp766
a(g186
VPOS
p767
tp768
a(VH
p769
VNN
p770
tp771
a(g183
VNN
p772
tp773
a(g497
VNN
p774
tp775
a(g251
VNN
p776
tp777
a(g222
VNN
p778
tp779
a(g186
V''
p780
tp781
a(g10
g10
tp782
a(g183
VNN
p783
tp784
a(g186
V''
p785
tp786
a(g193
VDT
p787
tp788
a(g296
VFW
p789
tp790
a(g296
VFW
p791
tp792
a(g225
VLS
p793
tp794
a(g296
VNN
p795
tp796
a(g186
V''
p797
tp798
a(g10
g10
tp799
a(g183
VNN
p800
tp801
a(g186
VPOS
p802
tp803
a(g710
VNN
p804
tp805
a(g225
VSYM
p806
tp807
a(g446
VNN
p808
tp809
a(g446
VNN
p810
tp811
a(g96
g96
tp812
a(g186
V''
p813
tp814
a(g10
g10
tp815
a(g183
VNN
p816
tp817
a(g186
VPOS
p818
tp819
a(VT
p820
VNN
p821
tp822
a(g190
VNN
p823
tp824
a(g225
VSYM
p825
tp826
a(g222
VNN
p827
tp828
a(g225
VSYM
p829
tp830
a(g186
V''
p831
tp832
a(g10
g10
tp833
a(g183
VNN
p834
tp835
a(g186
VPOS
p836
tp837
a(g271
VNN
p838
tp839
a(g190
VNN
p840
tp841
a(g225
VSYM
p842
tp843
a(g254
VFW
p844
tp845
a(g186
V''
p846
tp847
a(g10
g10
tp848
a(g183
VNN
p849
tp850
a(g186
V''
p851
tp852
a(g254
VLS
p853
tp854
a(g222
VNN
p855
tp856
a(g251
VNN
p857
tp858
a(g209
VNN
p859
tp860
a(g195
VNN
p861
tp862
a(g186
V''
p863
tp864
a(g10
g10
tp865
a(g183
VNN
p866
tp867
a(g186
V''
p868
tp869
a(g497
VNN
p870
tp871
a(g193
VDT
p872
tp873
a(g209
VNN
p874
tp875
a(g186
V''
p876
tp877
a(g10
g10
tp878
a(g183
VNN
p879
tp880
a(g186
V''
p881
tp882
a(g10
g10
tp883
a(g186
V''
p884
tp885
a(g10
g10
tp886
a(g183
VNN
p887
tp888
a(g186
V''
p889
tp890
a(g70
g165
tp891
a(g186
V''
p892
tp893
a(g10
g10
tp894
a(g183
VNN
p895
tp896
a(g186
V''
p897
tp898
a(g193
VDT
p899
tp900
a(g271
VNN
p901
tp902
a(g183
VNN
p903
tp904
a(g195
VNN
p905
tp906
a(g225
VSYM
p907
tp908
a(g186
V''
p909
tp910
a(g10
g10
tp911
a(g183
VNN
p912
tp913
a(g186
V''
p914
tp915
a(g19
g162
tp916
a(g186
V''
p917
tp918
a(g10
g10
tp919
a(g183
VNN
p920
tp921
a(g186
V''
p922
tp923
a(g254
VLS
p924
tp925
a(g251
VNN
p926
tp927
a(g446
VNN
p928
tp929
a(Vk
p930
VNN
p931
tp932
a(g227
VNN
p933
tp934
a(g96
g96
tp935
a(g186
V''
p936
tp937
a(g10
g10
tp938
a(g183
VNN
p939
tp940
a(g186
VPOS
p941
tp942
a(VO
p943
VNN
p944
tp945
a(g209
VNN
p946
tp947
a(g225
VSYM
p948
tp949
a(g186
V''
p950
tp951
a(g10
g10
tp952
a(g183
VNN
p953
tp954
a(g186
VPOS
p955
tp956
a(g227
VNN
p957
tp958
a(g225
VSYM
p959
tp960
a(g193
VDT
p961
tp962
a(g195
VNN
p963
tp964
a(g206
VFW
p965
tp966
a(g209
VNN
p967
tp968
a(g525
VNN
p969
tp970
a(g186
V''
p971
tp972
a(g10
g10
tp973
a(g183
VNN
p974
tp975
a(g186
VPOS
p976
tp977
a(g315
VNN
p978
tp979
a(g225
VSYM
p980
tp981
a(g222
VNN
p982
tp983
a(g186
V''
p984
tp985
a(g10
g10
tp986
a(g183
VNN
p987
tp988
a(g186
VPOS
p989
tp990
a(g195
VNN
p991
tp992
a(g193
VDT
p993
tp994
a(g366
VNN
p995
tp996
a(g446
VNN
p997
tp998
a(g225
VSYM
p999
tp1000
a(g186
V''
p1001
tp1002
a(g10
g10
tp1003
a(g183
VNN
p1004
tp1005
a(g186
V''
p1006
tp1007
a(g10
g10
tp1008
a(g186
V''
p1009
tp1010
a(g10
g10
tp1011
a(g183
VNN
p1012
tp1013
a(g186
V''
p1014
tp1015
a(V2
p1016
g169
tp1017
a(V0
p1018
VCD
p1019
tp1020
a(g186
V''
p1021
tp1022
a(g10
g10
tp1023
a(g183
VNN
p1024
tp1025
a(g186
VPOS
p1026
tp1027
a(g525
VNN
p1028
tp1029
a(g183
VNN
p1030
tp1031
a(g225
VSYM
p1032
tp1033
a(g227
VNN
p1034
tp1035
a(g195
VNN
p1036
tp1037
a(g227
VNN
p1038
tp1039
a(g186
V''
p1040
tp1041
a(g10
g10
tp1042
a(g183
VNN
p1043
tp1044
a(g186
VPOS
p1045
tp1046
a(g315
VNN
p1047
tp1048
a(g225
VSYM
p1049
tp1050
a(g222
VNN
p1051
tp1052
a(g186
V''
p1053
tp1054
a(g10
g10
tp1055
a(g183
VNN
p1056
tp1057
a(g186
VPOS
p1058
tp1059
a(g209
VNN
p1060
tp1061
a(g206
VFW
p1062
tp1063
a(g525
VNN
p1064
tp1065
a(g190
VNN
p1066
tp1067
a(g195
VNN
p1068
tp1069
a(g96
g96
tp1070
a(g186
V''
p1071
tp1072
a(g10
g10
tp1073
a(g183
VNN
p1074
tp1075
a(g186
V''
p1076
tp1077
a(VE
p1078
VNN
p1079
tp1080
a(g193
VDT
p1081
tp1082
a(g271
VNN
p1083
tp1084
a(g190
VNN
p1085
tp1086
a(g186
V''
p1087
tp1088
a(g10
g10
tp1089
a(g183
VNN
p1090
tp1091
a(g186
VPOS
p1092
tp1093
a(g271
VNN
p1094
tp1095
a(g251
VNN
p1096
tp1097
a(g183
VNN
p1098
tp1099
a(g222
VNN
p1100
tp1101
a(g227
VVBZ
p1102
tp1103
a(g225
VLS
p1104
tp1105
a(g186
V''
p1106
tp1107
a(g10
g10
tp1108
a(g183
VNN
p1109
tp1110
a(g186
VPOS
p1111
tp1112
a(g315
VNN
p1113
tp1114
a(g222
VNN
p1115
tp1116
a(g225
VSYM
p1117
tp1118
a(g227
VVBZ
p1119
tp1120
a(g225
VLS
p1121
tp1122
a(g209
VNN
p1123
tp1124
a(g195
VNN
p1125
tp1126
a(g225
VSYM
p1127
tp1128
a(g296
VFW
p1129
tp1130
a(g186
V''
p1131
tp1132
a(g10
g10
tp1133
a(g183
VNN
p1134
tp1135
a(g186
VPOS
p1136
tp1137
a(g366
VNN
p1138
tp1139
a(g225
VSYM
p1140
tp1141
a(g193
VFW
p1142
tp1143
a(g183
VFW
p1144
tp1145
a(g195
VNN
p1146
tp1147
a(g206
VFW
p1148
tp1149
a(g254
VFW
p1150
tp1151
a(g183
VFW
p1152
tp1153
a(g446
VNN
p1154
tp1155
a(g446
VNN
p1156
tp1157
a(g212
VNN
p1158
tp1159
a(g186
V''
p1160
tp1161
a(g10
g10
tp1162
a(g183
VNN
p1163
tp1164
a(g186
V''
p1165
tp1166
a(g357
VPRP
p1167
tp1168
a(g186
V''
p1169
tp1170
a(g10
g10
tp1171
a(g183
VNN
p1172
tp1173
a(g186
V''
p1174
tp1175
a(g193
VDT
p1176
tp1177
a(g271
VNN
p1178
tp1179
a(g195
VNN
p1180
tp1181
a(g183
VNN
p1182
tp1183
a(g193
VDT
p1184
tp1185
a(g446
VNN
p1186
tp1187
a(g446
VNN
p1188
tp1189
a(g212
VNN
p1190
tp1191
a(g186
V''
p1192
tp1193
a(g10
g10
tp1194
a(g183
VNN
p1195
tp1196
a(g186
VPOS
p1197
tp1198
a(g195
VNN
p1199
tp1200
a(g251
VNN
p1201
tp1202
a(g251
VNN
p1203
tp1204
a(g930
VNN
p1205
tp1206
a(g186
V''
p1207
tp1208
a(g10
g10
tp1209
a(g183
VNN
p1210
tp1211
a(g186
VPOS
p1212
tp1213
a(g315
VNN
p1214
tp1215
a(g206
VFW
p1216
tp1217
a(g271
VNN
p1218
tp1219
a(g195
VNN
p1220
tp1221
a(g183
VNN
p1222
tp1223
a(g222
VNN
p1224
tp1225
a(g225
VSYM
p1226
tp1227
a(g227
VNN
p1228
tp1229
a(g96
g96
tp1230
a(g186
V''
p1231
tp1232
a(g10
g10
tp1233
a(g183
VNN
p1234
tp1235
a(g186
VPOS
p1236
tp1237
a(VU
p1238
VNN
p1239
tp1240
a(g209
VNN
p1241
tp1242
a(g206
VFW
p1243
tp1244
a(Vq
p1245
VFW
p1246
tp1247
a(g183
VFW
p1248
tp1249
a(g225
VLS
p1250
tp1251
a(g186
V''
p1252
tp1253
a(g10
g10
tp1254
a(g183
VNN
p1255
tp1256
a(g186
V''
p1257
tp1258
a(g10
g10
tp1259
a(g186
V''
p1260
tp1261
a(g10
g10
tp1262
a(g183
VNN
p1263
tp1264
a(g186
V''
p1265
tp1266
a(g195
VNN
p1267
tp1268
a(g193
VDT
p1269
tp1270
a(g227
VNN
p1271
tp1272
a(g195
VNN
p1273
tp1274
a(g212
VNN
p1275
tp1276
a(g186
V''
p1277
tp1278
a(g10
g10
tp1279
a(g183
VNN
p1280
tp1281
a(g186
VPOS
p1282
tp1283
a(g710
VNN
p1284
tp1285
a(g225
VSYM
p1286
tp1287
a(g446
VNN
p1288
tp1289
a(g446
VNN
p1290
tp1291
a(g186
V''
p1292
tp1293
a(g10
g10
tp1294
a(g183
VNN
p1295
tp1296
a(g186
VPOS
p1297
tp1298
a(g710
VNN
p1299
tp1300
a(g251
VNN
p1301
tp1302
a(g222
VNN
p1303
tp1304
a(g195
VNN
p1305
tp1306
a(g190
VNN
p1307
tp1308
a(g186
V''
p1309
tp1310
a(g10
g10
tp1311
a(g183
VNN
p1312
tp1313
a(g186
VPOS
p1314
tp1315
a(g227
VNN
p1316
tp1317
a(g190
VNN
p1318
tp1319
a(g251
VNN
p1320
tp1321
a(g222
VNN
p1322
tp1323
a(g195
VNN
p1324
tp1325
a(g186
V''
p1326
tp1327
a(g10
g10
tp1328
a(g183
VNN
p1329
tp1330
a(g186
VPOS
p1331
tp1332
a(g195
VNN
p1333
tp1334
a(g193
VDT
p1335
tp1336
a(Vx
p1337
VNN
p1338
tp1339
a(g206
VFW
p1340
tp1341
a(g186
V''
p1342
tp1343
a(g10
g10
tp1344
a(g183
VNN
p1345
tp1346
a(g186
VPOS
p1347
tp1348
a(g222
VNN
p1349
tp1350
a(g206
VFW
p1351
tp1352
a(g296
VFW
p1353
tp1354
a(g225
VLS
p1355
tp1356
a(g186
V''
p1357
tp1358
a(g10
g10
tp1359
a(g183
VNN
p1360
tp1361
a(g186
VPOS
p1362
tp1363
a(g251
VNN
p1364
tp1365
a(g446
VNN
p1366
tp1367
a(g296
VNN
p1368
tp1369
a(g186
V''
p1370
tp1371
a(g10
g10
tp1372
a(g183
VNN
p1373
tp1374
a(g186
V''
p1375
tp1376
a(VQ
p1377
g170
tp1378
a(g183
VNN
p1379
tp1380
a(g225
VSYM
p1381
tp1382
a(g366
VLS
p1383
tp1384
a(g225
VLS
p1385
tp1386
a(g271
VNN
p1387
tp1388
a(g96
g96
tp1389
a(g186
V''
p1390
tp1391
a(g10
g10
tp1392
a(g183
VNN
p1393
tp1394
a(g186
VPOS
p1395
tp1396
a(VA
p1397
VNN
p1398
tp1399
a(g186
V''
p1400
tp1401
a(g10
g10
tp1402
a(g183
VNN
p1403
tp1404
a(g186
VPOS
p1405
tp1406
a(g195
VNN
p1407
tp1408
a(g222
VNN
p1409
tp1410
a(g183
VNN
p1411
tp1412
a(g446
VNN
p1413
tp1414
a(g212
VNN
p1415
tp1416
a(g186
V''
p1417
tp1418
a(g10
g10
tp1419
a(g183
VNN
p1420
tp1421
a(g186
VPOS
p1422
tp1423
a(g710
VNN
p1424
tp1425
a(g251
VNN
p1426
tp1427
a(g222
VNN
p1428
tp1429
a(g195
VNN
p1430
tp1431
a(g190
VNN
p1432
tp1433
a(g710
VNN
p1434
tp1435
a(g190
VNN
p1436
tp1437
a(g206
VFW
p1438
tp1439
a(g446
VNN
p1440
tp1441
a(g225
VSYM
p1442
tp1443
a(g186
V''
p1444
tp1445
a(g10
g10
tp1446
a(g183
VNN
p1447
tp1448
a(g186
V''
p1449
tp1450
a(g225
VLS
p1451
tp1452
a(g1337
VNN
p1453
tp1454
a(g315
VNN
p1455
tp1456
a(g225
VSYM
p1457
tp1458
a(g222
VSYM
p1459
tp1460
a(g206
VFW
p1461
tp1462
a(g225
VLS
p1463
tp1464
a(g209
VNN
p1465
tp1466
a(g271
VNN
p1467
tp1468
a(g225
VSYM
p1469
tp1470
a(g186
V''
p1471
tp1472
a(g10
g10
tp1473
a(g183
VNN
p1474
tp1475
a(g186
V''
p1476
tp1477
a(g96
g96
tp1478
a(g186
V''
p1479
tp1480
a(V]
p1481
VNN
p1482
tp1483
asS'tagged_title'
p1484
(lp1485
(g181
VFW
p1486
tp1487
a(g183
VFW
p1488
tp1489
a(g186
VPOS
p1490
tp1491
a(VC
p1492
VNN
p1493
tp1494
a(g222
VNN
p1495
tp1496
a(g225
VSYM
p1497
tp1498
a(g193
VDT
p1499
tp1500
a(g195
VNN
p1501
tp1502
a(g206
VFW
p1503
tp1504
a(g284
VLS
p1505
tp1506
a(g225
VLS
p1507
tp1508
a(g186
V''
p1509
tp1510
a(g10
g10
tp1511
a(g183
VNN
p1512
tp1513
a(g186
V''
p1514
tp1515
a(g10
g10
tp1516
a(g186
V''
p1517
tp1518
a(g10
g10
tp1519
a(g183
VNN
p1520
tp1521
a(g186
VPOS
p1522
tp1523
a(g296
VNN
p1524
tp1525
a(g225
VSYM
p1526
tp1527
a(g446
VNN
p1528
tp1529
a(g206
VFW
p1530
tp1531
a(g271
VSYM
p1532
tp1533
a(g206
VFW
p1534
tp1535
a(g251
VNN
p1536
tp1537
a(g183
VNN
p1538
tp1539
a(g227
VNN
p1540
tp1541
a(g186
V''
p1542
tp1543
a(g10
g10
tp1544
a(g183
VNN
p1545
tp1546
a(g186
V''
p1547
tp1548
a(g296
VFW
p1549
tp1550
a(g206
VFW
p1551
tp1552
a(g227
VNN
p1553
tp1554
a(g190
VNN
p1555
tp1556
a(g225
VSYM
p1557
tp1558
a(g227
VNNS
p1559
tp1560
a(g186
VPOS
p1561
tp1562
a(g1481
VNN
p1563
tp1564
asVtotal_points
p1565
V102
p1566
sVdate
p1567
V9/16/2015
p1568
sVtaObjectUrl
p1569
Vhttp://www.tripadvisor.com/Restaurant_Review-g155033-d3476688-Reviews-IX_pour_Bistro-Quebec_City_Quebec.html
p1570
sVtype
p1571
VRestaurants
p1572
sS'pos_unigram'
p1573
(lp1574
g164
ag184
ag167
ag163
ag191
ag173
ag196
ag168
ag10
ag200
ag202
ag204
ag207
ag210
ag213
ag215
ag10
ag218
ag220
ag223
ag166
ag228
ag230
ag232
ag234
ag236
ag238
ag240
ag242
ag244
ag10
ag247
ag249
ag252
ag255
ag257
ag171
ag260
ag262
ag264
ag10
ag267
ag269
ag272
ag274
ag276
ag278
ag280
ag282
ag285
ag287
ag289
ag10
ag292
ag294
ag297
ag299
ag301
ag303
ag305
ag174
ag308
ag10
ag311
ag313
ag316
ag318
ag320
ag322
ag324
ag326
ag328
ag10
ag331
ag333
ag335
ag337
ag339
ag341
ag343
ag345
ag347
ag96
ag350
ag10
ag353
ag355
ag175
ag359
ag10
ag362
ag364
ag367
ag369
ag371
ag373
ag10
ag376
ag378
ag380
ag382
ag384
ag386
ag10
ag389
ag391
ag393
ag395
ag172
ag398
ag400
ag402
ag404
ag406
ag408
ag410
ag412
ag414
ag10
ag417
ag419
ag421
ag423
ag425
ag427
ag429
ag431
ag433
ag10
ag436
ag438
ag440
ag442
ag444
ag447
ag449
ag96
ag452
ag10
ag455
ag457
ag459
ag461
ag463
ag10
ag466
ag468
ag470
ag472
ag474
ag476
ag478
ag480
ag10
ag483
ag485
ag487
ag489
ag491
ag493
ag495
ag498
ag500
ag502
ag504
ag506
ag10
ag509
ag511
ag513
ag515
ag517
ag519
ag521
ag523
ag526
ag528
ag10
ag531
ag533
ag535
ag537
ag539
ag541
ag543
ag10
ag546
ag548
ag550
ag552
ag554
ag556
ag558
ag10
ag561
ag563
ag565
ag567
ag569
ag571
ag573
ag575
ag577
ag579
ag581
ag583
ag10
ag586
ag588
ag590
ag592
ag594
ag596
ag10
ag599
ag601
ag603
ag605
ag607
ag609
ag611
ag613
ag615
ag617
ag619
ag10
ag622
ag624
ag626
ag628
ag630
ag632
ag634
ag636
ag638
ag640
ag642
ag10
ag645
ag647
ag649
ag651
ag653
ag655
ag657
ag10
ag660
ag662
ag664
ag666
ag668
ag670
ag672
ag674
ag676
ag678
ag10
ag681
ag683
ag685
ag687
ag689
ag691
ag693
ag695
ag10
ag698
ag700
ag10
ag703
ag10
ag706
ag708
ag711
ag713
ag715
ag717
ag719
ag10
ag722
ag724
ag726
ag728
ag730
ag732
ag734
ag736
ag738
ag740
ag742
ag744
ag746
ag10
ag749
ag751
ag753
ag755
ag757
ag759
ag96
ag762
ag10
ag765
ag767
ag770
ag772
ag774
ag776
ag778
ag780
ag10
ag783
ag785
ag787
ag789
ag791
ag793
ag795
ag797
ag10
ag800
ag802
ag804
ag806
ag808
ag810
ag96
ag813
ag10
ag816
ag818
ag821
ag823
ag825
ag827
ag829
ag831
ag10
ag834
ag836
ag838
ag840
ag842
ag844
ag846
ag10
ag849
ag851
ag853
ag855
ag857
ag859
ag861
ag863
ag10
ag866
ag868
ag870
ag872
ag874
ag876
ag10
ag879
ag881
ag10
ag884
ag10
ag887
ag889
ag165
ag892
ag10
ag895
ag897
ag899
ag901
ag903
ag905
ag907
ag909
ag10
ag912
ag914
ag162
ag917
ag10
ag920
ag922
ag924
ag926
ag928
ag931
ag933
ag96
ag936
ag10
ag939
ag941
ag944
ag946
ag948
ag950
ag10
ag953
ag955
ag957
ag959
ag961
ag963
ag965
ag967
ag969
ag971
ag10
ag974
ag976
ag978
ag980
ag982
ag984
ag10
ag987
ag989
ag991
ag993
ag995
ag997
ag999
ag1001
ag10
ag1004
ag1006
ag10
ag1009
ag10
ag1012
ag1014
ag169
ag1019
ag1021
ag10
ag1024
ag1026
ag1028
ag1030
ag1032
ag1034
ag1036
ag1038
ag1040
ag10
ag1043
ag1045
ag1047
ag1049
ag1051
ag1053
ag10
ag1056
ag1058
ag1060
ag1062
ag1064
ag1066
ag1068
ag96
ag1071
ag10
ag1074
ag1076
ag1079
ag1081
ag1083
ag1085
ag1087
ag10
ag1090
ag1092
ag1094
ag1096
ag1098
ag1100
ag1102
ag1104
ag1106
ag10
ag1109
ag1111
ag1113
ag1115
ag1117
ag1119
ag1121
ag1123
ag1125
ag1127
ag1129
ag1131
ag10
ag1134
ag1136
ag1138
ag1140
ag1142
ag1144
ag1146
ag1148
ag1150
ag1152
ag1154
ag1156
ag1158
ag1160
ag10
ag1163
ag1165
ag1167
ag1169
ag10
ag1172
ag1174
ag1176
ag1178
ag1180
ag1182
ag1184
ag1186
ag1188
ag1190
ag1192
ag10
ag1195
ag1197
ag1199
ag1201
ag1203
ag1205
ag1207
ag10
ag1210
ag1212
ag1214
ag1216
ag1218
ag1220
ag1222
ag1224
ag1226
ag1228
ag96
ag1231
ag10
ag1234
ag1236
ag1239
ag1241
ag1243
ag1246
ag1248
ag1250
ag1252
ag10
ag1255
ag1257
ag10
ag1260
ag10
ag1263
ag1265
ag1267
ag1269
ag1271
ag1273
ag1275
ag1277
ag10
ag1280
ag1282
ag1284
ag1286
ag1288
ag1290
ag1292
ag10
ag1295
ag1297
ag1299
ag1301
ag1303
ag1305
ag1307
ag1309
ag10
ag1312
ag1314
ag1316
ag1318
ag1320
ag1322
ag1324
ag1326
ag10
ag1329
ag1331
ag1333
ag1335
ag1338
ag1340
ag1342
ag10
ag1345
ag1347
ag1349
ag1351
ag1353
ag1355
ag1357
ag10
ag1360
ag1362
ag1364
ag1366
ag1368
ag1370
ag10
ag1373
ag1375
ag170
ag1379
ag1381
ag1383
ag1385
ag1387
ag96
ag1390
ag10
ag1393
ag1395
ag1398
ag1400
ag10
ag1403
ag1405
ag1407
ag1409
ag1411
ag1413
ag1415
ag1417
ag10
ag1420
ag1422
ag1424
ag1426
ag1428
ag1430
ag1432
ag1434
ag1436
ag1438
ag1440
ag1442
ag1444
ag10
ag1447
ag1449
ag1451
ag1453
ag1455
ag1457
ag1459
ag1461
ag1463
ag1465
ag1467
ag1469
ag1471
ag10
ag1474
ag1476
ag96
ag1479
ag1482
asVhelpfulness
p1575
V2
p1576
sVtaObjectCity
p1577
VQuebec City
p1578
s.(dp0
Vrating
p1
V5
p2
sVtext
p3
VThis swanky restaurant is located on a very festive block outside of the old city wall. We ate outside and were very comfortable. The pre fix menu was more than ample and every course an instant favorite. We were at this restaurant 15 years ago and had a memorable meal so we wanted to try this place again. Success! No tourist trap here! We had some stellar meals this trip and this one was my favorite.
p4
sS'title_length'
p5
I404
sS'bigram_counts'
p6
ccollections
Counter
p7
((dp8
(Vtrap
p9
V!
p10
tp11
I1
s(Vwanted
p12
Vtry
p13
tp14
I1
s(Vswanky
p15
Vrestaurant
p16
tp17
I1
s(Vblock
p18
Voutside
p19
tp20
I1
s(Vold
p21
Vcity
p22
tp23
I1
s(Vmemorable
p24
Vmeal
p25
tp26
I1
s(Vfavorite
p27
V.
p28
tp29
I1
s(Vplace
p30
Vagain.
p31
tp32
I1
s(Vmeals
p33
Vtrip
p34
tp35
I1
s(Voutside
p36
Vcomfortable.
p37
tp38
I1
s(Vstellar
p39
g33
tp40
I1
s(g19
g21
tp41
I1
s(g22
Vwall.
p42
tp43
I1
s(Vrestaurant
p44
V15
p45
tp46
I1
s(g10
Vtourist
p47
tp48
I1
s(g37
Vpre
p49
tp50
I1
s(g13
g30
tp51
I1
s(Vmenu
p52
Vample
p53
tp54
I1
s(Vinstant
p55
Vfavorite.
p56
tp57
I1
s(g47
g9
tp58
I1
s(Vone
p59
g27
tp60
I1
s(g56
g44
tp61
I1
s(g31
Vsuccess
p62
tp63
I1
s(g45
Vyears
p64
tp65
I1
s(Vfix
p66
g52
tp67
I1
s(g64
Vago
p68
tp69
I1
s(g62
g10
tp70
I1
s(Vfestive
p71
g18
tp72
I1
s(g34
g59
tp73
I1
s(Vevery
p74
Vcourse
p75
tp76
I1
s(Vlocated
p77
g71
tp78
I1
s(g68
g24
tp79
I1
s(g42
Vate
p80
tp81
I1
s(g53
g74
tp82
I1
s(g80
g36
tp83
I1
s(g10
g39
tp84
I1
s(g49
g66
tp85
I1
s(g16
g77
tp86
I1
s(g25
g12
tp87
I1
s(g75
g55
tp88
I1
stp89
Rp90
sS'rev_unigrams'
p91
(lp92
g15
ag16
ag77
ag71
ag18
ag19
ag21
ag22
ag42
ag80
ag36
ag37
ag49
ag66
ag52
ag53
ag74
ag75
ag55
ag56
ag44
ag45
ag64
ag68
ag24
ag25
ag12
ag13
ag30
ag31
ag62
ag10
ag47
ag9
ag10
ag39
ag33
ag34
ag59
ag27
ag28
asVid
p93
V284
p94
sVtaObject
p95
VRestaurant Le Graffiti
p96
sVtitle
p97
VWorthy selection for your limited time in Quebec.
p98
sS'unigram_counts'
p99
g7
((dp100
g49
I1
sg21
I1
sg56
I1
sg15
I1
sg59
I1
sg75
I1
sg64
I1
sg45
I1
sg34
I1
sg10
I2
sg22
I1
sg12
I1
sg52
I1
sg66
I1
sg37
I1
sg28
I1
sg77
I1
sg19
I2
sg31
I1
sg47
I1
sg53
I1
sg71
I1
sg39
I1
sg74
I1
sg24
I1
sg42
I1
sg33
I1
sg68
I1
sg80
I1
sg55
I1
sg62
I1
sg16
I2
sg27
I1
sg13
I1
sg30
I1
sg9
I1
sg25
I1
sg18
I1
stp101
Rp102
sS'rev_bigrams'
p103
(lp104
g17
ag86
ag78
ag72
ag20
ag41
ag23
ag43
ag81
ag83
ag38
ag50
ag85
ag67
ag54
ag82
ag76
ag88
ag57
ag61
ag46
ag65
ag69
ag79
ag26
ag87
ag14
ag51
ag32
ag63
ag70
ag48
ag58
ag11
ag84
ag40
ag35
ag73
ag60
ag29
asS'pos_count'
p105
ccollections
defaultdict
p106
(c__builtin__
int
p107
tp108
Rp109
VNN
p110
I188
sVFW
p111
I25
sV,
p112
I46
sVSYM
p113
I22
sVPOS
p114
I32
sV''
p115
I62
sVCD
p116
I2
sVLS
p117
I18
sVVBZ
p118
I1
sVDT
p119
I19
sg28
I7
sVNNS
p120
I1
ssS'rev_length'
p121
I404
sVusername
p122
V19822011
p123
sS'tagged_text'
p124
(lp125
(V[
p126
g111
tp127
a(Vu
p128
VFW
p129
tp130
a(V'
p131
g114
tp132
a(VT
p133
g110
tp134
a(Vh
p135
VNN
p136
tp137
a(Vi
p138
g117
tp139
a(Vs
p140
g120
tp141
a(g131
VPOS
p142
tp143
a(g112
g112
tp144
a(g128
VNN
p145
tp146
a(g131
VPOS
p147
tp148
a(g140
VNN
p149
tp150
a(Vw
p151
VNN
p152
tp153
a(Va
p154
g119
tp155
a(Vn
p156
VNN
p157
tp158
a(Vk
p159
VNN
p160
tp161
a(Vy
p162
VNN
p163
tp164
a(g131
g115
tp165
a(g112
g112
tp166
a(g128
VNN
p167
tp168
a(g131
VPOS
p169
tp170
a(Vr
p171
VNN
p172
tp173
a(Ve
p174
g113
tp175
a(g140
VNN
p176
tp177
a(Vt
p178
VNN
p179
tp180
a(g154
VFW
p181
tp182
a(g128
VFW
p183
tp184
a(g171
VNN
p185
tp186
a(g154
VDT
p187
tp188
a(g156
VNN
p189
tp190
a(g178
VNN
p191
tp192
a(g131
V''
p193
tp194
a(g112
g112
tp195
a(g128
VNN
p196
tp197
a(g131
VPOS
p198
tp199
a(Vl
p200
VNN
p201
tp202
a(Vo
p203
VNN
p204
tp205
a(Vc
p206
VNN
p207
tp208
a(g154
VDT
p209
tp210
a(g178
VNN
p211
tp212
a(g174
VSYM
p213
tp214
a(Vd
p215
VFW
p216
tp217
a(g131
V''
p218
tp219
a(g112
g112
tp220
a(g128
VNN
p221
tp222
a(g131
V''
p223
tp224
a(Vf
p225
VLS
p226
tp227
a(g174
VLS
p228
tp229
a(g140
VNN
p230
tp231
a(g178
VNN
p232
tp233
a(g138
VFW
p234
tp235
a(Vv
p236
VLS
p237
tp238
a(g174
VLS
p239
tp240
a(g131
V''
p241
tp242
a(g112
g112
tp243
a(g128
VNN
p244
tp245
a(g131
VPOS
p246
tp247
a(Vb
p248
VNN
p249
tp250
a(g200
VNN
p251
tp252
a(g203
VNN
p253
tp254
a(g206
VNN
p255
tp256
a(g159
VNN
p257
tp258
a(g131
V''
p259
tp260
a(g112
g112
tp261
a(g128
VNN
p262
tp263
a(g131
VPOS
p264
tp265
a(g203
VNN
p266
tp267
a(g128
VNN
p268
tp269
a(g178
VNN
p270
tp271
a(g140
VNN
p272
tp273
a(g138
VFW
p274
tp275
a(g215
VFW
p276
tp277
a(g174
VLS
p278
tp279
a(g131
V''
p280
tp281
a(g112
g112
tp282
a(g128
VNN
p283
tp284
a(g131
VPOS
p285
tp286
a(g203
VNN
p287
tp288
a(g200
VNN
p289
tp290
a(g215
VNN
p291
tp292
a(g131
V''
p293
tp294
a(g112
g112
tp295
a(g128
VNN
p296
tp297
a(g131
VPOS
p298
tp299
a(g206
VNN
p300
tp301
a(g138
VFW
p302
tp303
a(g178
VNN
p304
tp305
a(g162
VNN
p306
tp307
a(g131
V''
p308
tp309
a(g112
g112
tp310
a(g128
VNN
p311
tp312
a(g131
V''
p313
tp314
a(g151
VNN
p315
tp316
a(g154
VDT
p317
tp318
a(g200
VNN
p319
tp320
a(g200
VNN
p321
tp322
a(g28
g28
tp323
a(g131
V''
p324
tp325
a(g112
g112
tp326
a(g128
VNN
p327
tp328
a(g131
VPOS
p329
tp330
a(VW
p331
VNN
p332
tp333
a(g174
VSYM
p334
tp335
a(g131
V''
p336
tp337
a(g112
g112
tp338
a(g128
VNN
p339
tp340
a(g131
V''
p341
tp342
a(g154
VDT
p343
tp344
a(g178
VNN
p345
tp346
a(g174
VSYM
p347
tp348
a(g131
V''
p349
tp350
a(g112
g112
tp351
a(g128
VNN
p352
tp353
a(g131
VPOS
p354
tp355
a(g203
VNN
p356
tp357
a(g128
VNN
p358
tp359
a(g178
VNN
p360
tp361
a(g140
VNN
p362
tp363
a(g138
VFW
p364
tp365
a(g215
VFW
p366
tp367
a(g174
VLS
p368
tp369
a(g131
V''
p370
tp371
a(g112
g112
tp372
a(g128
VNN
p373
tp374
a(g131
VPOS
p375
tp376
a(g206
VNN
p377
tp378
a(g203
VNN
p379
tp380
a(Vm
p381
VNN
p382
tp383
a(g225
VFW
p384
tp385
a(g203
VNN
p386
tp387
a(g171
VNN
p388
tp389
a(g178
VNN
p390
tp391
a(g154
VDT
p392
tp393
a(g248
VNN
p394
tp395
a(g200
VNN
p396
tp397
a(g174
VLS
p398
tp399
a(g28
g28
tp400
a(g131
V''
p401
tp402
a(g112
g112
tp403
a(g128
VNN
p404
tp405
a(g131
VPOS
p406
tp407
a(g133
VNN
p408
tp409
a(g135
VNN
p410
tp411
a(g174
VSYM
p412
tp413
a(g131
V''
p414
tp415
a(g112
g112
tp416
a(g128
VNN
p417
tp418
a(g131
VPOS
p419
tp420
a(Vp
p421
VNN
p422
tp423
a(g171
VNN
p424
tp425
a(g174
VSYM
p426
tp427
a(g131
V''
p428
tp429
a(g112
g112
tp430
a(g128
VNN
p431
tp432
a(g131
V''
p433
tp434
a(g225
VFW
p435
tp436
a(g138
VFW
p437
tp438
a(Vx
p439
VNN
p440
tp441
a(g131
V''
p442
tp443
a(g112
g112
tp444
a(g128
VNN
p445
tp446
a(g131
VPOS
p447
tp448
a(g381
VNN
p449
tp450
a(g174
VSYM
p451
tp452
a(g156
VNN
p453
tp454
a(g128
VNN
p455
tp456
a(g131
V''
p457
tp458
a(g112
g112
tp459
a(g128
VNN
p460
tp461
a(g131
V''
p462
tp463
a(g154
VDT
p464
tp465
a(g381
VNN
p466
tp467
a(g421
VNN
p468
tp469
a(g200
VNN
p470
tp471
a(g174
VSYM
p472
tp473
a(g131
V''
p474
tp475
a(g112
g112
tp476
a(g128
VNN
p477
tp478
a(g131
V''
p479
tp480
a(g174
VLS
p481
tp482
a(g236
VLS
p483
tp484
a(g174
VLS
p485
tp486
a(g171
VNN
p487
tp488
a(g162
VNN
p489
tp490
a(g131
V''
p491
tp492
a(g112
g112
tp493
a(g128
VNN
p494
tp495
a(g131
VPOS
p496
tp497
a(g206
VNN
p498
tp499
a(g203
VNN
p500
tp501
a(g128
VNN
p502
tp503
a(g171
VNN
p504
tp505
a(g140
g118
tp506
a(g174
VLS
p507
tp508
a(g131
V''
p509
tp510
a(g112
g112
tp511
a(g128
VNN
p512
tp513
a(g131
V''
p514
tp515
a(g138
VLS
p516
tp517
a(g156
VNN
p518
tp519
a(g140
VNN
p520
tp521
a(g178
VNN
p522
tp523
a(g154
VDT
p524
tp525
a(g156
VNN
p526
tp527
a(g178
VNN
p528
tp529
a(g131
V''
p530
tp531
a(g112
g112
tp532
a(g128
VNN
p533
tp534
a(g131
V''
p535
tp536
a(g225
VFW
p537
tp538
a(g154
VFW
p539
tp540
a(g236
VLS
p541
tp542
a(g203
VNN
p543
tp544
a(g171
VNN
p545
tp546
a(g138
VLS
p547
tp548
a(g178
VNN
p549
tp550
a(g174
VLS
p551
tp552
a(g28
g28
tp553
a(g131
V''
p554
tp555
a(g112
g112
tp556
a(g128
VNN
p557
tp558
a(g131
VPOS
p559
tp560
a(g331
VNN
p561
tp562
a(g174
VSYM
p563
tp564
a(g131
V''
p565
tp566
a(g112
g112
tp567
a(g128
VNN
p568
tp569
a(g131
VPOS
p570
tp571
a(g171
VNN
p572
tp573
a(g174
VSYM
p574
tp575
a(g140
VNN
p576
tp577
a(g178
VNN
p578
tp579
a(g154
VFW
p580
tp581
a(g128
VFW
p582
tp583
a(g171
VNN
p584
tp585
a(g154
VDT
p586
tp587
a(g156
VNN
p588
tp589
a(g178
VNN
p590
tp591
a(g131
V''
p592
tp593
a(g112
g112
tp594
a(g128
VNN
p595
tp596
a(g131
V''
p597
tp598
a(V1
p599
g116
tp600
a(V5
p601
VCD
p602
tp603
a(g131
V''
p604
tp605
a(g112
g112
tp606
a(g128
VNN
p607
tp608
a(g131
VPOS
p609
tp610
a(g162
VNN
p611
tp612
a(g174
VSYM
p613
tp614
a(g154
VDT
p615
tp616
a(g171
VNN
p617
tp618
a(g140
VNN
p619
tp620
a(g131
V''
p621
tp622
a(g112
g112
tp623
a(g128
VNN
p624
tp625
a(g131
V''
p626
tp627
a(g154
VDT
p628
tp629
a(Vg
p630
VNN
p631
tp632
a(g203
VNN
p633
tp634
a(g131
V''
p635
tp636
a(g112
g112
tp637
a(g128
VNN
p638
tp639
a(g131
VPOS
p640
tp641
a(g381
VNN
p642
tp643
a(g174
VSYM
p644
tp645
a(g381
VNN
p646
tp647
a(g203
VNN
p648
tp649
a(g171
VNN
p650
tp651
a(g154
VDT
p652
tp653
a(g248
VNN
p654
tp655
a(g200
VNN
p656
tp657
a(g174
VSYM
p658
tp659
a(g131
V''
p660
tp661
a(g112
g112
tp662
a(g128
VNN
p663
tp664
a(g131
VPOS
p665
tp666
a(g381
VNN
p667
tp668
a(g174
VSYM
p669
tp670
a(g154
VDT
p671
tp672
a(g200
VNN
p673
tp674
a(g131
V''
p675
tp676
a(g112
g112
tp677
a(g128
VNN
p678
tp679
a(g131
V''
p680
tp681
a(g151
VNN
p682
tp683
a(g154
VDT
p684
tp685
a(g156
VNN
p686
tp687
a(g178
VNN
p688
tp689
a(g174
VSYM
p690
tp691
a(g215
VFW
p692
tp693
a(g131
V''
p694
tp695
a(g112
g112
tp696
a(g128
VNN
p697
tp698
a(g131
VPOS
p699
tp700
a(g178
VNN
p701
tp702
a(g171
VNN
p703
tp704
a(g162
VNN
p705
tp706
a(g131
V''
p707
tp708
a(g112
g112
tp709
a(g128
VNN
p710
tp711
a(g131
VPOS
p712
tp713
a(g421
VNN
p714
tp715
a(g200
VNN
p716
tp717
a(g154
VDT
p718
tp719
a(g206
VNN
p720
tp721
a(g174
VSYM
p722
tp723
a(g131
V''
p724
tp725
a(g112
g112
tp726
a(g128
VNN
p727
tp728
a(g131
V''
p729
tp730
a(g154
VDT
p731
tp732
a(g630
VNN
p733
tp734
a(g154
VFW
p735
tp736
a(g138
VFW
p737
tp738
a(g156
VNN
p739
tp740
a(g28
g28
tp741
a(g131
V''
p742
tp743
a(g112
g112
tp744
a(g128
VNN
p745
tp746
a(g131
VPOS
p747
tp748
a(VS
p749
VNN
p750
tp751
a(g128
VNN
p752
tp753
a(g206
VNN
p754
tp755
a(g206
VNN
p756
tp757
a(g174
VSYM
p758
tp759
a(g140
VNN
p760
tp761
a(g140
VNN
p762
tp763
a(g131
V''
p764
tp765
a(g112
g112
tp766
a(g128
VNN
p767
tp768
a(g131
V''
p769
tp770
a(g10
g28
tp771
a(g131
V''
p772
tp773
a(g112
g112
tp774
a(g128
VNN
p775
tp776
a(g131
VPOS
p777
tp778
a(VN
p779
VNN
p780
tp781
a(g203
VNN
p782
tp783
a(g131
V''
p784
tp785
a(g112
g112
tp786
a(g128
VNN
p787
tp788
a(g131
VPOS
p789
tp790
a(g178
VNN
p791
tp792
a(g203
VNN
p793
tp794
a(g128
VNN
p795
tp796
a(g171
VNN
p797
tp798
a(g138
VFW
p799
tp800
a(g140
VNN
p801
tp802
a(g178
VNN
p803
tp804
a(g131
V''
p805
tp806
a(g112
g112
tp807
a(g128
VNN
p808
tp809
a(g131
VPOS
p810
tp811
a(g178
VNN
p812
tp813
a(g171
VNN
p814
tp815
a(g154
VDT
p816
tp817
a(g421
VNN
p818
tp819
a(g131
V''
p820
tp821
a(g112
g112
tp822
a(g128
VNN
p823
tp824
a(g131
V''
p825
tp826
a(g10
g28
tp827
a(g131
V''
p828
tp829
a(g112
g112
tp830
a(g128
VNN
p831
tp832
a(g131
VPOS
p833
tp834
a(g331
VNN
p835
tp836
a(g174
VSYM
p837
tp838
a(g131
V''
p839
tp840
a(g112
g112
tp841
a(g128
VNN
p842
tp843
a(g131
VPOS
p844
tp845
a(g140
VNN
p846
tp847
a(g178
VNN
p848
tp849
a(g174
VSYM
p850
tp851
a(g200
VNN
p852
tp853
a(g200
VNN
p854
tp855
a(g154
VDT
p856
tp857
a(g171
VNN
p858
tp859
a(g131
V''
p860
tp861
a(g112
g112
tp862
a(g128
VNN
p863
tp864
a(g131
VPOS
p865
tp866
a(g381
VNN
p867
tp868
a(g174
VSYM
p869
tp870
a(g154
VDT
p871
tp872
a(g200
VNN
p873
tp874
a(g140
VNN
p875
tp876
a(g131
V''
p877
tp878
a(g112
g112
tp879
a(g128
VNN
p880
tp881
a(g131
VPOS
p882
tp883
a(g178
VNN
p884
tp885
a(g171
VNN
p886
tp887
a(g138
VFW
p888
tp889
a(g421
VNN
p890
tp891
a(g131
V''
p892
tp893
a(g112
g112
tp894
a(g128
VNN
p895
tp896
a(g131
VPOS
p897
tp898
a(g203
VNN
p899
tp900
a(g156
VNN
p901
tp902
a(g174
VSYM
p903
tp904
a(g131
V''
p905
tp906
a(g112
g112
tp907
a(g128
VNN
p908
tp909
a(g131
V''
p910
tp911
a(g225
VFW
p912
tp913
a(g154
VFW
p914
tp915
a(g236
VLS
p916
tp917
a(g203
VNN
p918
tp919
a(g171
VNN
p920
tp921
a(g138
VLS
p922
tp923
a(g178
VNN
p924
tp925
a(g174
VSYM
p926
tp927
a(g131
V''
p928
tp929
a(g112
g112
tp930
a(g128
VNN
p931
tp932
a(g131
V''
p933
tp934
a(g28
g28
tp935
a(g131
V''
p936
tp937
a(V]
p938
VNN
p939
tp940
asS'tagged_title'
p941
(lp942
(g126
VFW
p943
tp944
a(g128
VFW
p945
tp946
a(g131
VPOS
p947
tp948
a(g331
VNN
p949
tp950
a(g203
VNN
p951
tp952
a(g171
VNN
p953
tp954
a(g178
VNN
p955
tp956
a(g135
VNN
p957
tp958
a(g162
VNN
p959
tp960
a(g131
V''
p961
tp962
a(g112
g112
tp963
a(g128
VNN
p964
tp965
a(g131
VPOS
p966
tp967
a(g140
VNN
p968
tp969
a(g174
VSYM
p970
tp971
a(g200
VNN
p972
tp973
a(g174
VSYM
p974
tp975
a(g206
VNN
p976
tp977
a(g178
VNN
p978
tp979
a(g138
VFW
p980
tp981
a(g203
VNN
p982
tp983
a(g156
VNN
p984
tp985
a(g131
V''
p986
tp987
a(g112
g112
tp988
a(g128
VNN
p989
tp990
a(g131
V''
p991
tp992
a(g225
VLS
p993
tp994
a(g203
VNN
p995
tp996
a(g171
VNN
p997
tp998
a(g131
V''
p999
tp1000
a(g112
g112
tp1001
a(g128
VNN
p1002
tp1003
a(g131
VPOS
p1004
tp1005
a(g162
VNN
p1006
tp1007
a(g203
VNN
p1008
tp1009
a(g128
VNN
p1010
tp1011
a(g171
VNN
p1012
tp1013
a(g131
V''
p1014
tp1015
a(g112
g112
tp1016
a(g128
VNN
p1017
tp1018
a(g131
VPOS
p1019
tp1020
a(g200
VNN
p1021
tp1022
a(g138
VFW
p1023
tp1024
a(g381
VNN
p1025
tp1026
a(g138
VLS
p1027
tp1028
a(g178
VNN
p1029
tp1030
a(g174
VSYM
p1031
tp1032
a(g215
VFW
p1033
tp1034
a(g131
V''
p1035
tp1036
a(g112
g112
tp1037
a(g128
VNN
p1038
tp1039
a(g131
VPOS
p1040
tp1041
a(g178
VNN
p1042
tp1043
a(g138
VFW
p1044
tp1045
a(g381
VNN
p1046
tp1047
a(g174
VSYM
p1048
tp1049
a(g131
V''
p1050
tp1051
a(g112
g112
tp1052
a(g128
VNN
p1053
tp1054
a(g131
V''
p1055
tp1056
a(g138
VLS
p1057
tp1058
a(g156
VNN
p1059
tp1060
a(g131
V''
p1061
tp1062
a(g112
g112
tp1063
a(g128
VNN
p1064
tp1065
a(g131
V''
p1066
tp1067
a(VQ
p1068
VNNP
p1069
tp1070
a(g128
VNN
p1071
tp1072
a(g174
VSYM
p1073
tp1074
a(g248
VLS
p1075
tp1076
a(g174
VLS
p1077
tp1078
a(g206
VNN
p1079
tp1080
a(g131
V''
p1081
tp1082
a(g112
g112
tp1083
a(g128
VNN
p1084
tp1085
a(g131
V''
p1086
tp1087
a(g28
g28
tp1088
a(g131
V''
p1089
tp1090
a(g938
VNN
p1091
tp1092
asVtotal_points
p1093
V103
p1094
sVdate
p1095
V9/16/2015
p1096
sVtaObjectUrl
p1097
Vhttp://www.tripadvisor.com/Restaurant_Review-g155033-d708333-Reviews-Restaurant_Le_Graffiti-Quebec_City_Quebec.html
p1098
sVtype
p1099
VRestaurants
p1100
sS'pos_unigram'
p1101
(lp1102
g111
ag129
ag114
ag110
ag136
ag117
ag120
ag142
ag112
ag145
ag147
ag149
ag152
ag119
ag157
ag160
ag163
ag115
ag112
ag167
ag169
ag172
ag113
ag176
ag179
ag181
ag183
ag185
ag187
ag189
ag191
ag193
ag112
ag196
ag198
ag201
ag204
ag207
ag209
ag211
ag213
ag216
ag218
ag112
ag221
ag223
ag226
ag228
ag230
ag232
ag234
ag237
ag239
ag241
ag112
ag244
ag246
ag249
ag251
ag253
ag255
ag257
ag259
ag112
ag262
ag264
ag266
ag268
ag270
ag272
ag274
ag276
ag278
ag280
ag112
ag283
ag285
ag287
ag289
ag291
ag293
ag112
ag296
ag298
ag300
ag302
ag304
ag306
ag308
ag112
ag311
ag313
ag315
ag317
ag319
ag321
ag28
ag324
ag112
ag327
ag329
ag332
ag334
ag336
ag112
ag339
ag341
ag343
ag345
ag347
ag349
ag112
ag352
ag354
ag356
ag358
ag360
ag362
ag364
ag366
ag368
ag370
ag112
ag373
ag375
ag377
ag379
ag382
ag384
ag386
ag388
ag390
ag392
ag394
ag396
ag398
ag28
ag401
ag112
ag404
ag406
ag408
ag410
ag412
ag414
ag112
ag417
ag419
ag422
ag424
ag426
ag428
ag112
ag431
ag433
ag435
ag437
ag440
ag442
ag112
ag445
ag447
ag449
ag451
ag453
ag455
ag457
ag112
ag460
ag462
ag464
ag466
ag468
ag470
ag472
ag474
ag112
ag477
ag479
ag481
ag483
ag485
ag487
ag489
ag491
ag112
ag494
ag496
ag498
ag500
ag502
ag504
ag118
ag507
ag509
ag112
ag512
ag514
ag516
ag518
ag520
ag522
ag524
ag526
ag528
ag530
ag112
ag533
ag535
ag537
ag539
ag541
ag543
ag545
ag547
ag549
ag551
ag28
ag554
ag112
ag557
ag559
ag561
ag563
ag565
ag112
ag568
ag570
ag572
ag574
ag576
ag578
ag580
ag582
ag584
ag586
ag588
ag590
ag592
ag112
ag595
ag597
ag116
ag602
ag604
ag112
ag607
ag609
ag611
ag613
ag615
ag617
ag619
ag621
ag112
ag624
ag626
ag628
ag631
ag633
ag635
ag112
ag638
ag640
ag642
ag644
ag646
ag648
ag650
ag652
ag654
ag656
ag658
ag660
ag112
ag663
ag665
ag667
ag669
ag671
ag673
ag675
ag112
ag678
ag680
ag682
ag684
ag686
ag688
ag690
ag692
ag694
ag112
ag697
ag699
ag701
ag703
ag705
ag707
ag112
ag710
ag712
ag714
ag716
ag718
ag720
ag722
ag724
ag112
ag727
ag729
ag731
ag733
ag735
ag737
ag739
ag28
ag742
ag112
ag745
ag747
ag750
ag752
ag754
ag756
ag758
ag760
ag762
ag764
ag112
ag767
ag769
ag28
ag772
ag112
ag775
ag777
ag780
ag782
ag784
ag112
ag787
ag789
ag791
ag793
ag795
ag797
ag799
ag801
ag803
ag805
ag112
ag808
ag810
ag812
ag814
ag816
ag818
ag820
ag112
ag823
ag825
ag28
ag828
ag112
ag831
ag833
ag835
ag837
ag839
ag112
ag842
ag844
ag846
ag848
ag850
ag852
ag854
ag856
ag858
ag860
ag112
ag863
ag865
ag867
ag869
ag871
ag873
ag875
ag877
ag112
ag880
ag882
ag884
ag886
ag888
ag890
ag892
ag112
ag895
ag897
ag899
ag901
ag903
ag905
ag112
ag908
ag910
ag912
ag914
ag916
ag918
ag920
ag922
ag924
ag926
ag928
ag112
ag931
ag933
ag28
ag936
ag939
asVhelpfulness
p1103
V3
p1104
sVtaObjectCity
p1105
VQuebec City
p1106
s.(dp0
Vrating
p1
V4
p2
sVtext
p3
Vcreative burgers with great fries, individual crispy pizzas, mac and cheese...just great tavern food. and the choices of micro brews on tap are always changing. samples offered before you make your choice of brew which allows for trying all sorts of styles. very affordable too. i&acute;ve seen all ages...families and couples in their 70&acute;s.
p4
sS'title_length'
p5
I347
sS'bigram_counts'
p6
ccollections
Counter
p7
((dp8
(V...
p9
Vgreat
p10
tp11
I1
s(Vstyles.
p12
Vaffordable
p13
tp14
I1
s(Vacute
p15
V;
p16
tp17
I2
s(Vseen
p18
Vages
p19
tp20
I1
s(Vfamilies
p21
Vcouples
p22
tp23
I1
s(Vmicro
p24
Vbrews
p25
tp26
I1
s(Vcheese
p27
g9
tp28
I1
s(g19
V...
p29
tp30
I1
s(Vsamples
p31
Voffered
p32
tp33
I1
s(Vfood.
p34
Vchoices
p35
tp36
I1
s(g35
g24
tp37
I1
s(Vburgers
p38
Vgreat
p39
tp40
I1
s(Vtrying
p41
Vsorts
p42
tp43
I1
s(g13
Vtoo.
p44
tp45
I1
s(Valways
p46
Vchanging.
p47
tp48
I1
s(g32
Vmake
p49
tp50
I1
s(Vtavern
p51
g34
tp52
I1
s(Vbrew
p53
Vallows
p54
tp55
I1
s(g16
g18
tp56
I1
s(Vtap
p57
g46
tp58
I1
s(Vcrispy
p59
Vpizzas
p60
tp61
I1
s(V&
p62
g15
tp63
I2
s(g10
g51
tp64
I1
s(g29
g21
tp65
I1
s(g25
g57
tp66
I1
s(Vchoice
p67
g53
tp68
I1
s(V,
p69
Vmac
p70
tp71
I1
s(g22
V70
p72
tp73
I1
s(g47
g31
tp74
I1
s(g70
g27
tp75
I1
s(Vcreative
p76
g38
tp77
I1
s(g16
V.
p78
tp79
I1
s(g42
g12
tp80
I1
s(g54
g41
tp81
I1
s(Vindividual
p82
g59
tp83
I1
s(g60
g69
tp84
I1
s(g49
g67
tp85
I1
s(Vfries
p86
g69
tp87
I1
s(g44
g62
tp88
I1
s(g69
g82
tp89
I1
s(g72
g62
tp90
I1
s(g39
g86
tp91
I1
stp92
Rp93
sS'rev_unigrams'
p94
(lp95
g76
ag38
ag39
ag86
ag69
ag82
ag59
ag60
ag69
ag70
ag27
ag9
ag10
ag51
ag34
ag35
ag24
ag25
ag57
ag46
ag47
ag31
ag32
ag49
ag67
ag53
ag54
ag41
ag42
ag12
ag13
ag44
ag62
ag15
ag16
ag18
ag19
ag29
ag21
ag22
ag72
ag62
aVacute
p96
ag16
ag78
asVid
p97
V285
p98
sVtaObject
p99
Vthe Lark
p100
sVtitle
p101
Vmore than a dozen micro brews on tap and fresh, tasty tavern food
p102
sS'unigram_counts'
p103
g7
((dp104
g27
I1
sg25
I1
sg57
I1
sg44
I1
sg86
I1
sg19
I1
sg22
I1
sg82
I1
sg47
I1
sg18
I1
sg76
I1
sg59
I1
sg60
I1
sg62
I2
sg49
I1
sg69
I2
sg78
I1
sg31
I1
sg42
I1
sg13
I1
sg9
I2
sg21
I1
sg32
I1
sg67
I1
sg70
I1
sg34
I1
sg72
I1
sg41
I1
sg16
I2
sg15
I2
sg39
I2
sg51
I1
sg46
I1
sg54
I1
sg35
I1
sg24
I1
sg38
I1
sg53
I1
sg12
I1
stp105
Rp106
sS'rev_bigrams'
p107
(lp108
g77
ag40
ag91
ag87
ag89
ag83
ag61
ag84
ag71
ag75
ag28
ag11
ag64
ag52
ag36
ag37
ag26
ag66
ag58
ag48
ag74
ag33
ag50
ag85
ag68
ag55
ag81
ag43
ag80
ag14
ag45
ag88
ag63
ag17
ag56
ag20
ag30
ag65
ag23
ag73
ag90
a(g62
g96
tp109
a(g96
g16
tp110
ag79
asS'pos_count'
p111
ccollections
defaultdict
p112
(c__builtin__
int
p113
tp114
Rp115
V:
p116
I2
sVNN
p117
I161
sVFW
p118
I23
sVCC
p119
I2
sVPOS
p120
I28
sVSYM
p121
I22
sg69
I46
sV''
p122
I62
sVCD
p123
I2
sVLS
p124
I15
sVVBZ
p125
I2
sVDT
p126
I20
sg78
I11
sVNNS
p127
I6
ssS'rev_length'
p128
I347
sVusername
p129
V19822011
p130
sS'tagged_text'
p131
(lp132
(V[
p133
g118
tp134
a(Vu
p135
VFW
p136
tp137
a(V'
p138
g120
tp139
a(Vc
p140
g117
tp141
a(Vr
p142
VNN
p143
tp144
a(Ve
p145
g121
tp146
a(Va
p147
g126
tp148
a(Vt
p149
VNN
p150
tp151
a(Vi
p152
VFW
p153
tp154
a(Vv
p155
g124
tp156
a(g145
VLS
p157
tp158
a(g138
g122
tp159
a(g69
g69
tp160
a(g135
VNN
p161
tp162
a(g138
VPOS
p163
tp164
a(Vb
p165
VNN
p166
tp167
a(g135
VNN
p168
tp169
a(g142
VNN
p170
tp171
a(Vg
p172
VNN
p173
tp174
a(g145
VSYM
p175
tp176
a(g142
VNN
p177
tp178
a(Vs
p179
VNN
p180
tp181
a(g138
V''
p182
tp183
a(g69
g69
tp184
a(g135
VNN
p185
tp186
a(g138
VPOS
p187
tp188
a(g172
VNN
p189
tp190
a(g142
VNN
p191
tp192
a(g145
VSYM
p193
tp194
a(g147
VDT
p195
tp196
a(g149
VNN
p197
tp198
a(g138
V''
p199
tp200
a(g69
g69
tp201
a(g135
VNN
p202
tp203
a(g138
V''
p204
tp205
a(Vf
p206
VLS
p207
tp208
a(g142
VNN
p209
tp210
a(g152
VFW
p211
tp212
a(g145
VLS
p213
tp214
a(g179
g127
tp215
a(g138
VPOS
p216
tp217
a(g69
g69
tp218
a(g135
VNN
p219
tp220
a(g138
V''
p221
tp222
a(g69
g69
tp223
a(g138
V''
p224
tp225
a(g69
g69
tp226
a(g135
VNN
p227
tp228
a(g138
V''
p229
tp230
a(g152
VLS
p231
tp232
a(Vn
p233
VNN
p234
tp235
a(Vd
p236
VFW
p237
tp238
a(g152
VFW
p239
tp240
a(g155
VLS
p241
tp242
a(g152
VFW
p243
tp244
a(g236
VFW
p245
tp246
a(g135
VFW
p247
tp248
a(g147
VDT
p249
tp250
a(Vl
p251
VNN
p252
tp253
a(g138
V''
p254
tp255
a(g69
g69
tp256
a(g135
VNN
p257
tp258
a(g138
VPOS
p259
tp260
a(g140
VNN
p261
tp262
a(g142
VNN
p263
tp264
a(g152
VFW
p265
tp266
a(g179
VNN
p267
tp268
a(Vp
p269
VNN
p270
tp271
a(Vy
p272
VNN
p273
tp274
a(g138
V''
p275
tp276
a(g69
g69
tp277
a(g135
VNN
p278
tp279
a(g138
VPOS
p280
tp281
a(g269
VNN
p282
tp283
a(g152
VFW
p284
tp285
a(Vz
p286
VSYM
p287
tp288
a(g286
VSYM
p289
tp290
a(g147
VDT
p291
tp292
a(g179
VNN
p293
tp294
a(g138
V''
p295
tp296
a(g69
g69
tp297
a(g135
VNN
p298
tp299
a(g138
V''
p300
tp301
a(g69
g69
tp302
a(g138
V''
p303
tp304
a(g69
g69
tp305
a(g135
VNN
p306
tp307
a(g138
V''
p308
tp309
a(Vm
p310
VNN
p311
tp312
a(g147
VDT
p313
tp314
a(g140
VNN
p315
tp316
a(g138
V''
p317
tp318
a(g69
g69
tp319
a(g135
VNN
p320
tp321
a(g138
VPOS
p322
tp323
a(g140
VNN
p324
tp325
a(Vh
p326
VNN
p327
tp328
a(g145
VSYM
p329
tp330
a(g145
VSYM
p331
tp332
a(g179
g125
tp333
a(g145
VLS
p334
tp335
a(g138
V''
p336
tp337
a(g69
g69
tp338
a(g135
VNN
p339
tp340
a(g138
V''
p341
tp342
a(g78
g78
tp343
a(g78
g78
tp344
a(g78
g78
tp345
a(g138
V''
p346
tp347
a(g69
g69
tp348
a(g135
VNN
p349
tp350
a(g138
VPOS
p351
tp352
a(g172
VNN
p353
tp354
a(g142
VNN
p355
tp356
a(g145
VSYM
p357
tp358
a(g147
VDT
p359
tp360
a(g149
VNN
p361
tp362
a(g138
V''
p363
tp364
a(g69
g69
tp365
a(g135
VNN
p366
tp367
a(g138
VPOS
p368
tp369
a(g149
VNN
p370
tp371
a(g147
VDT
p372
tp373
a(g155
VLS
p374
tp375
a(g145
VLS
p376
tp377
a(g142
VNN
p378
tp379
a(g233
VNN
p380
tp381
a(g138
V''
p382
tp383
a(g69
g69
tp384
a(g135
VNN
p385
tp386
a(g138
V''
p387
tp388
a(g206
VLS
p389
tp390
a(Vo
p391
VNN
p392
tp393
a(g391
VNN
p394
tp395
a(g236
VNN
p396
tp397
a(g78
g78
tp398
a(g138
V''
p399
tp400
a(g69
g69
tp401
a(g135
VNN
p402
tp403
a(g138
VPOS
p404
tp405
a(g140
VNN
p406
tp407
a(g326
VNN
p408
tp409
a(g391
VNN
p410
tp411
a(g152
VFW
p412
tp413
a(g140
VNN
p414
tp415
a(g145
VSYM
p416
tp417
a(g179
VNNS
p418
tp419
a(g138
VPOS
p420
tp421
a(g69
g69
tp422
a(g135
VNN
p423
tp424
a(g138
VPOS
p425
tp426
a(g310
VNN
p427
tp428
a(g152
VFW
p429
tp430
a(g140
VNN
p431
tp432
a(g142
VNN
p433
tp434
a(g391
VNN
p435
tp436
a(g138
V''
p437
tp438
a(g69
g69
tp439
a(g135
VNN
p440
tp441
a(g138
VPOS
p442
tp443
a(g165
VNN
p444
tp445
a(g142
VNN
p446
tp447
a(g145
VSYM
p448
tp449
a(Vw
p450
VNN
p451
tp452
a(g179
VNN
p453
tp454
a(g138
V''
p455
tp456
a(g69
g69
tp457
a(g135
VNN
p458
tp459
a(g138
VPOS
p460
tp461
a(g149
VNN
p462
tp463
a(g147
VDT
p464
tp465
a(g269
VNN
p466
tp467
a(g138
V''
p468
tp469
a(g69
g69
tp470
a(g135
VNN
p471
tp472
a(g138
V''
p473
tp474
a(g147
VDT
p475
tp476
a(g251
VNN
p477
tp478
a(g450
VNN
p479
tp480
a(g147
VDT
p481
tp482
a(g272
VNN
p483
tp484
a(g179
VNN
p485
tp486
a(g138
V''
p487
tp488
a(g69
g69
tp489
a(g135
VNN
p490
tp491
a(g138
VPOS
p492
tp493
a(g140
VNN
p494
tp495
a(g326
VNN
p496
tp497
a(g147
VDT
p498
tp499
a(g233
VNN
p500
tp501
a(g172
VNN
p502
tp503
a(g152
VFW
p504
tp505
a(g233
VNN
p506
tp507
a(g172
VNN
p508
tp509
a(g78
g78
tp510
a(g138
V''
p511
tp512
a(g69
g69
tp513
a(g135
VNN
p514
tp515
a(g138
V''
p516
tp517
a(g179
VVBZ
p518
tp519
a(g147
VDT
p520
tp521
a(g310
VNN
p522
tp523
a(g269
VNN
p524
tp525
a(g251
VNN
p526
tp527
a(g145
VSYM
p528
tp529
a(g179
VNNS
p530
tp531
a(g138
VPOS
p532
tp533
a(g69
g69
tp534
a(g135
VNN
p535
tp536
a(g138
VPOS
p537
tp538
a(g391
VNN
p539
tp540
a(g206
VFW
p541
tp542
a(g206
VFW
p543
tp544
a(g145
VLS
p545
tp546
a(g142
VNN
p547
tp548
a(g145
VSYM
p549
tp550
a(g236
VFW
p551
tp552
a(g138
V''
p553
tp554
a(g69
g69
tp555
a(g135
VNN
p556
tp557
a(g138
V''
p558
tp559
a(g310
VNN
p560
tp561
a(g147
VDT
p562
tp563
a(Vk
p564
VNN
p565
tp566
a(g145
VSYM
p567
tp568
a(g138
V''
p569
tp570
a(g69
g69
tp571
a(g135
VNN
p572
tp573
a(g138
VPOS
p574
tp575
a(g140
VNN
p576
tp577
a(g326
VNN
p578
tp579
a(g391
VNN
p580
tp581
a(g152
VLS
p582
tp583
a(g140
VNN
p584
tp585
a(g145
VSYM
p586
tp587
a(g138
V''
p588
tp589
a(g69
g69
tp590
a(g135
VNN
p591
tp592
a(g138
VPOS
p593
tp594
a(g165
VNN
p595
tp596
a(g142
VNN
p597
tp598
a(g145
VSYM
p599
tp600
a(g450
VNN
p601
tp602
a(g138
V''
p603
tp604
a(g69
g69
tp605
a(g135
VNN
p606
tp607
a(g138
V''
p608
tp609
a(g147
VDT
p610
tp611
a(g251
VNN
p612
tp613
a(g251
VNN
p614
tp615
a(g391
VNN
p616
tp617
a(g450
VNN
p618
tp619
a(g179
VNN
p620
tp621
a(g138
V''
p622
tp623
a(g69
g69
tp624
a(g135
VNN
p625
tp626
a(g138
VPOS
p627
tp628
a(g149
VNN
p629
tp630
a(g142
VNN
p631
tp632
a(g272
VFW
p633
tp634
a(g152
VFW
p635
tp636
a(g233
VNN
p637
tp638
a(g172
VNN
p639
tp640
a(g138
V''
p641
tp642
a(g69
g69
tp643
a(g135
VNN
p644
tp645
a(g138
VPOS
p646
tp647
a(g179
VNN
p648
tp649
a(g391
VNN
p650
tp651
a(g142
VNN
p652
tp653
a(g149
VNN
p654
tp655
a(g179
VNN
p656
tp657
a(g138
V''
p658
tp659
a(g69
g69
tp660
a(g135
VNN
p661
tp662
a(g138
VPOS
p663
tp664
a(g179
VNN
p665
tp666
a(g149
VNN
p667
tp668
a(g272
VNN
p669
tp670
a(g251
VNN
p671
tp672
a(g145
VSYM
p673
tp674
a(g179
VNN
p675
tp676
a(g78
g78
tp677
a(g138
V''
p678
tp679
a(g69
g69
tp680
a(g135
VNN
p681
tp682
a(g138
V''
p683
tp684
a(g147
VDT
p685
tp686
a(g206
VFW
p687
tp688
a(g206
VFW
p689
tp690
a(g391
VNN
p691
tp692
a(g142
VNN
p693
tp694
a(g236
VNN
p695
tp696
a(g147
VDT
p697
tp698
a(g165
VNN
p699
tp700
a(g251
VNN
p701
tp702
a(g145
VSYM
p703
tp704
a(g138
V''
p705
tp706
a(g69
g69
tp707
a(g135
VNN
p708
tp709
a(g138
VPOS
p710
tp711
a(g149
VNN
p712
tp713
a(g391
VNN
p714
tp715
a(g391
VNN
p716
tp717
a(g78
g78
tp718
a(g138
V''
p719
tp720
a(g69
g69
tp721
a(g135
VNN
p722
tp723
a(g138
V''
p724
tp725
a(g62
g119
tp726
a(g138
V''
p727
tp728
a(g69
g69
tp729
a(g135
VNN
p730
tp731
a(g138
V''
p732
tp733
a(g147
VDT
p734
tp735
a(g140
VNN
p736
tp737
a(g135
VNN
p738
tp739
a(g149
VNN
p740
tp741
a(g145
VSYM
p742
tp743
a(g138
V''
p744
tp745
a(g69
g69
tp746
a(g135
VNN
p747
tp748
a(g138
V''
p749
tp750
a(g16
g116
tp751
a(g138
V''
p752
tp753
a(g69
g69
tp754
a(g135
VNN
p755
tp756
a(g138
VPOS
p757
tp758
a(g179
VNN
p759
tp760
a(g145
VSYM
p761
tp762
a(g145
VLS
p763
tp764
a(g233
VNN
p765
tp766
a(g138
V''
p767
tp768
a(g69
g69
tp769
a(g135
VNN
p770
tp771
a(g138
V''
p772
tp773
a(g147
VDT
p774
tp775
a(g172
VNN
p776
tp777
a(g145
VSYM
p778
tp779
a(g179
VNNS
p780
tp781
a(g138
VPOS
p782
tp783
a(g69
g69
tp784
a(g135
VNN
p785
tp786
a(g138
V''
p787
tp788
a(g78
g78
tp789
a(g78
g78
tp790
a(g78
g78
tp791
a(g138
V''
p792
tp793
a(g69
g69
tp794
a(g135
VNN
p795
tp796
a(g138
V''
p797
tp798
a(g206
VLS
p799
tp800
a(g147
VDT
p801
tp802
a(g310
VNN
p803
tp804
a(g152
VFW
p805
tp806
a(g251
VNN
p807
tp808
a(g152
VFW
p809
tp810
a(g145
VLS
p811
tp812
a(g179
VNNS
p813
tp814
a(g138
VPOS
p815
tp816
a(g69
g69
tp817
a(g135
VNN
p818
tp819
a(g138
VPOS
p820
tp821
a(g140
VNN
p822
tp823
a(g391
VNN
p824
tp825
a(g135
VNN
p826
tp827
a(g269
VNN
p828
tp829
a(g251
VNN
p830
tp831
a(g145
VSYM
p832
tp833
a(g179
VNNS
p834
tp835
a(g138
VPOS
p836
tp837
a(g69
g69
tp838
a(g135
VNN
p839
tp840
a(g138
V''
p841
tp842
a(V7
p843
g123
tp844
a(V0
p845
VCD
p846
tp847
a(g138
V''
p848
tp849
a(g69
g69
tp850
a(g135
VNN
p851
tp852
a(g138
V''
p853
tp854
a(g62
VCC
p855
tp856
a(g138
V''
p857
tp858
a(g69
g69
tp859
a(g135
VNN
p860
tp861
a(g138
V''
p862
tp863
a(g147
VDT
p864
tp865
a(g140
VNN
p866
tp867
a(g135
VNN
p868
tp869
a(g149
VNN
p870
tp871
a(g145
VSYM
p872
tp873
a(g138
V''
p874
tp875
a(g69
g69
tp876
a(g135
VNN
p877
tp878
a(g138
V''
p879
tp880
a(g16
g116
tp881
a(g138
V''
p882
tp883
a(g69
g69
tp884
a(g135
VNN
p885
tp886
a(g138
V''
p887
tp888
a(g78
g78
tp889
a(g138
V''
p890
tp891
a(V]
p892
VNN
p893
tp894
asS'tagged_title'
p895
(lp896
(g133
VFW
p897
tp898
a(g135
VFW
p899
tp900
a(g138
VPOS
p901
tp902
a(g310
VNN
p903
tp904
a(g391
VNN
p905
tp906
a(g142
VNN
p907
tp908
a(g145
VSYM
p909
tp910
a(g138
V''
p911
tp912
a(g69
g69
tp913
a(g135
VNN
p914
tp915
a(g138
VPOS
p916
tp917
a(g149
VNN
p918
tp919
a(g326
VNN
p920
tp921
a(g147
VDT
p922
tp923
a(g233
VNN
p924
tp925
a(g138
V''
p926
tp927
a(g69
g69
tp928
a(g135
VNN
p929
tp930
a(g138
V''
p931
tp932
a(g147
VDT
p933
tp934
a(g138
V''
p935
tp936
a(g69
g69
tp937
a(g135
VNN
p938
tp939
a(g138
VPOS
p940
tp941
a(g236
VNN
p942
tp943
a(g391
VNN
p944
tp945
a(g286
VSYM
p946
tp947
a(g145
VLS
p948
tp949
a(g233
VNN
p950
tp951
a(g138
V''
p952
tp953
a(g69
g69
tp954
a(g135
VNN
p955
tp956
a(g138
VPOS
p957
tp958
a(g310
VNN
p959
tp960
a(g152
VFW
p961
tp962
a(g140
VNN
p963
tp964
a(g142
VNN
p965
tp966
a(g391
VNN
p967
tp968
a(g138
V''
p969
tp970
a(g69
g69
tp971
a(g135
VNN
p972
tp973
a(g138
VPOS
p974
tp975
a(g165
VNN
p976
tp977
a(g142
VNN
p978
tp979
a(g145
VSYM
p980
tp981
a(g450
VNN
p982
tp983
a(g179
VNN
p984
tp985
a(g138
V''
p986
tp987
a(g69
g69
tp988
a(g135
VNN
p989
tp990
a(g138
VPOS
p991
tp992
a(g391
VNN
p993
tp994
a(g233
VNN
p995
tp996
a(g138
V''
p997
tp998
a(g69
g69
tp999
a(g135
VNN
p1000
tp1001
a(g138
VPOS
p1002
tp1003
a(g149
VNN
p1004
tp1005
a(g147
VDT
p1006
tp1007
a(g269
VNN
p1008
tp1009
a(g138
V''
p1010
tp1011
a(g69
g69
tp1012
a(g135
VNN
p1013
tp1014
a(g138
V''
p1015
tp1016
a(g147
VDT
p1017
tp1018
a(g233
VNN
p1019
tp1020
a(g236
VNN
p1021
tp1022
a(g138
V''
p1023
tp1024
a(g69
g69
tp1025
a(g135
VNN
p1026
tp1027
a(g138
V''
p1028
tp1029
a(g206
VLS
p1030
tp1031
a(g142
VNN
p1032
tp1033
a(g145
VSYM
p1034
tp1035
a(g179
VNN
p1036
tp1037
a(g326
VNN
p1038
tp1039
a(g138
V''
p1040
tp1041
a(g69
g69
tp1042
a(g135
VNN
p1043
tp1044
a(g138
V''
p1045
tp1046
a(g69
g69
tp1047
a(g138
V''
p1048
tp1049
a(g69
g69
tp1050
a(g135
VNN
p1051
tp1052
a(g138
V''
p1053
tp1054
a(g149
VNN
p1055
tp1056
a(g147
VDT
p1057
tp1058
a(g179
VNN
p1059
tp1060
a(g149
VNN
p1061
tp1062
a(g272
VNN
p1063
tp1064
a(g138
V''
p1065
tp1066
a(g69
g69
tp1067
a(g135
VNN
p1068
tp1069
a(g138
VPOS
p1070
tp1071
a(g149
VNN
p1072
tp1073
a(g147
VDT
p1074
tp1075
a(g155
VLS
p1076
tp1077
a(g145
VLS
p1078
tp1079
a(g142
VNN
p1080
tp1081
a(g233
VNN
p1082
tp1083
a(g138
V''
p1084
tp1085
a(g69
g69
tp1086
a(g135
VNN
p1087
tp1088
a(g138
V''
p1089
tp1090
a(g206
VLS
p1091
tp1092
a(g391
VNN
p1093
tp1094
a(g391
VNN
p1095
tp1096
a(g236
VNN
p1097
tp1098
a(g138
V''
p1099
tp1100
a(g892
VNN
p1101
tp1102
asVtotal_points
p1103
V100
p1104
sVdate
p1105
V2/26/2013
p1106
sVtaObjectUrl
p1107
Vhttp://www.tripadvisor.com/Restaurant_Review-g47639-d3908818-Reviews-The_Lark-East_Northport_Long_Island_New_York.html
p1108
sVtype
p1109
VRestaurants
p1110
sS'pos_unigram'
p1111
(lp1112
g118
ag136
ag120
ag117
ag143
ag121
ag126
ag150
ag153
ag124
ag157
ag122
ag69
ag161
ag163
ag166
ag168
ag170
ag173
ag175
ag177
ag180
ag182
ag69
ag185
ag187
ag189
ag191
ag193
ag195
ag197
ag199
ag69
ag202
ag204
ag207
ag209
ag211
ag213
ag127
ag216
ag69
ag219
ag221
ag69
ag224
ag69
ag227
ag229
ag231
ag234
ag237
ag239
ag241
ag243
ag245
ag247
ag249
ag252
ag254
ag69
ag257
ag259
ag261
ag263
ag265
ag267
ag270
ag273
ag275
ag69
ag278
ag280
ag282
ag284
ag287
ag289
ag291
ag293
ag295
ag69
ag298
ag300
ag69
ag303
ag69
ag306
ag308
ag311
ag313
ag315
ag317
ag69
ag320
ag322
ag324
ag327
ag329
ag331
ag125
ag334
ag336
ag69
ag339
ag341
ag78
ag78
ag78
ag346
ag69
ag349
ag351
ag353
ag355
ag357
ag359
ag361
ag363
ag69
ag366
ag368
ag370
ag372
ag374
ag376
ag378
ag380
ag382
ag69
ag385
ag387
ag389
ag392
ag394
ag396
ag78
ag399
ag69
ag402
ag404
ag406
ag408
ag410
ag412
ag414
ag416
ag418
ag420
ag69
ag423
ag425
ag427
ag429
ag431
ag433
ag435
ag437
ag69
ag440
ag442
ag444
ag446
ag448
ag451
ag453
ag455
ag69
ag458
ag460
ag462
ag464
ag466
ag468
ag69
ag471
ag473
ag475
ag477
ag479
ag481
ag483
ag485
ag487
ag69
ag490
ag492
ag494
ag496
ag498
ag500
ag502
ag504
ag506
ag508
ag78
ag511
ag69
ag514
ag516
ag518
ag520
ag522
ag524
ag526
ag528
ag530
ag532
ag69
ag535
ag537
ag539
ag541
ag543
ag545
ag547
ag549
ag551
ag553
ag69
ag556
ag558
ag560
ag562
ag565
ag567
ag569
ag69
ag572
ag574
ag576
ag578
ag580
ag582
ag584
ag586
ag588
ag69
ag591
ag593
ag595
ag597
ag599
ag601
ag603
ag69
ag606
ag608
ag610
ag612
ag614
ag616
ag618
ag620
ag622
ag69
ag625
ag627
ag629
ag631
ag633
ag635
ag637
ag639
ag641
ag69
ag644
ag646
ag648
ag650
ag652
ag654
ag656
ag658
ag69
ag661
ag663
ag665
ag667
ag669
ag671
ag673
ag675
ag78
ag678
ag69
ag681
ag683
ag685
ag687
ag689
ag691
ag693
ag695
ag697
ag699
ag701
ag703
ag705
ag69
ag708
ag710
ag712
ag714
ag716
ag78
ag719
ag69
ag722
ag724
ag119
ag727
ag69
ag730
ag732
ag734
ag736
ag738
ag740
ag742
ag744
ag69
ag747
ag749
ag116
ag752
ag69
ag755
ag757
ag759
ag761
ag763
ag765
ag767
ag69
ag770
ag772
ag774
ag776
ag778
ag780
ag782
ag69
ag785
ag787
ag78
ag78
ag78
ag792
ag69
ag795
ag797
ag799
ag801
ag803
ag805
ag807
ag809
ag811
ag813
ag815
ag69
ag818
ag820
ag822
ag824
ag826
ag828
ag830
ag832
ag834
ag836
ag69
ag839
ag841
ag123
ag846
ag848
ag69
ag851
ag853
ag855
ag857
ag69
ag860
ag862
ag864
ag866
ag868
ag870
ag872
ag874
ag69
ag877
ag879
ag116
ag882
ag69
ag885
ag887
ag78
ag890
ag893
asVhelpfulness
p1113
V0
p1114
sVtaObjectCity
p1115
VEast Northport
p1116
s.(dp0
Vrating
p1
V4
p2
sVtext
p3
VTry the fish special of the day. Always fresh n creative. You&acute;re her for the excellent good, not the ambiance.\u000aPasta is made next door n u can even bring in your lasagna pan for sheets to be cut to make at home.\u000aIn a word, AWESOME!
p4
sS'title_length'
p5
I237
sS'bigram_counts'
p6
ccollections
Counter
p7
((dp8
(Vmade
p9
Vnext
p10
tp11
I1
s(Vhome.
p12
Vword
p13
tp14
I1
s(Vtry
p15
Vfish
p16
tp17
I1
s(Vday.
p18
Valways
p19
tp20
I1
s(Vexcellent
p21
Vgood
p22
tp23
I1
s(Vn
p24
Vcreative.
p25
tp26
I1
s(g10
Vdoor
p27
tp28
I1
s(Vu
p29
Veven
p30
tp31
I1
s(g19
Vfresh
p32
tp33
I1
s(Vsheets
p34
Vcut
p35
tp36
I1
s(g16
Vspecial
p37
tp38
I1
s(Vbring
p39
Vlasagna
p40
tp41
I1
s(g13
V,
p42
tp43
I1
s(Vacute
p44
V;
p45
tp46
I1
s(g37
g18
tp47
I1
s(g42
Vambiance.
p48
tp49
I1
s(V&
p50
g44
tp51
I1
s(g24
g29
tp52
I1
s(g27
g24
tp53
I1
s(g25
g50
tp54
I1
s(Vpasta
p55
g9
tp56
I1
s(Vawesome
p57
V!
p58
tp59
I1
s(Vmake
p60
g12
tp61
I1
s(g30
g39
tp62
I1
s(g22
g42
tp63
I1
s(g45
g21
tp64
I1
s(g35
g60
tp65
I1
s(g40
Vpan
p66
tp67
I1
s(g66
g34
tp68
I1
s(g32
g24
tp69
I1
s(g48
g55
tp70
I1
s(g42
g57
tp71
I1
stp72
Rp73
sS'rev_unigrams'
p74
(lp75
g15
ag16
ag37
ag18
ag19
ag32
ag24
ag25
ag50
ag44
ag45
ag21
ag22
ag42
ag48
ag55
ag9
ag10
ag27
ag24
ag29
ag30
ag39
ag40
ag66
ag34
ag35
ag60
ag12
ag13
ag42
ag57
ag58
asVid
p76
V286
p77
sVtaObject
p78
VMascali Restaurant
p79
sVtitle
p80
VIf it&acute;s all about the food then this is the place!
p81
sS'unigram_counts'
p82
g7
((dp83
g58
I1
sg22
I1
sg27
I1
sg16
I1
sg39
I1
sg25
I1
sg9
I1
sg15
I1
sg34
I1
sg21
I1
sg55
I1
sg24
I2
sg37
I1
sg30
I1
sg44
I1
sg35
I1
sg13
I1
sg50
I1
sg19
I1
sg60
I1
sg48
I1
sg42
I2
sg10
I1
sg18
I1
sg32
I1
sg40
I1
sg29
I1
sg45
I1
sg12
I1
sg57
I1
sg66
I1
stp84
Rp85
sS'rev_bigrams'
p86
(lp87
g17
ag38
ag47
ag20
ag33
ag69
ag26
ag54
ag51
ag46
ag64
ag23
ag63
ag49
ag70
ag56
ag11
ag28
ag53
ag52
ag31
ag62
ag41
ag67
ag68
ag36
ag65
ag61
ag14
ag43
ag71
ag59
asS'pos_count'
p88
ccollections
defaultdict
p89
(c__builtin__
int
p90
tp91
Rp92
V:
p93
I1
sVNN
p94
I124
sVFW
p95
I9
sVCC
p96
I1
sg42
I36
sVSYM
p97
I10
sVPOS
p98
I17
sV''
p99
I53
sVLS
p100
I13
sVDT
p101
I15
sV.
p102
I5
ssS'rev_length'
p103
I237
sVusername
p104
V19822011
p105
sS'tagged_text'
p106
(lp107
(V[
p108
g95
tp109
a(g29
VFW
p110
tp111
a(V'
p112
g98
tp113
a(VT
p114
g94
tp115
a(Vr
p116
VNN
p117
tp118
a(Vy
p119
VNN
p120
tp121
a(g112
g99
tp122
a(g42
g42
tp123
a(g29
VNN
p124
tp125
a(g112
V''
p126
tp127
a(Vf
p128
VFW
p129
tp130
a(Vi
p131
VFW
p132
tp133
a(Vs
p134
VNN
p135
tp136
a(Vh
p137
VNN
p138
tp139
a(g112
V''
p140
tp141
a(g42
g42
tp142
a(g29
VNN
p143
tp144
a(g112
VPOS
p145
tp146
a(g134
VNN
p147
tp148
a(Vp
p149
VNN
p150
tp151
a(Ve
p152
g97
tp153
a(Vc
p154
g100
tp155
a(g131
VLS
p156
tp157
a(Va
p158
g101
tp159
a(Vl
p160
VNN
p161
tp162
a(g112
V''
p163
tp164
a(g42
g42
tp165
a(g29
VNN
p166
tp167
a(g112
V''
p168
tp169
a(Vd
p170
VFW
p171
tp172
a(g158
VFW
p173
tp174
a(g119
VFW
p175
tp176
a(g102
g102
tp177
a(g112
V''
p178
tp179
a(g42
g42
tp180
a(g29
VNN
p181
tp182
a(g112
V''
p183
tp184
a(VA
p185
VDT
p186
tp187
a(g160
VNN
p188
tp189
a(Vw
p190
VNN
p191
tp192
a(g158
VDT
p193
tp194
a(g119
VNN
p195
tp196
a(g134
VNN
p197
tp198
a(g112
V''
p199
tp200
a(g42
g42
tp201
a(g29
VNN
p202
tp203
a(g112
V''
p204
tp205
a(g128
VLS
p206
tp207
a(g116
VNN
p208
tp209
a(g152
VSYM
p210
tp211
a(g134
VNN
p212
tp213
a(g137
VNN
p214
tp215
a(g112
V''
p216
tp217
a(g42
g42
tp218
a(g29
VNN
p219
tp220
a(g112
VPOS
p221
tp222
a(g24
VNN
p223
tp224
a(g112
V''
p225
tp226
a(g42
g42
tp227
a(g29
VNN
p228
tp229
a(g112
VPOS
p230
tp231
a(g154
VNN
p232
tp233
a(g116
VNN
p234
tp235
a(g152
VSYM
p236
tp237
a(g158
VDT
p238
tp239
a(Vt
p240
VNN
p241
tp242
a(g131
VFW
p243
tp244
a(Vv
p245
VLS
p246
tp247
a(g152
VLS
p248
tp249
a(g102
g102
tp250
a(g112
V''
p251
tp252
a(g42
g42
tp253
a(g29
VNN
p254
tp255
a(g112
VPOS
p256
tp257
a(VY
p258
VNN
p259
tp260
a(Vo
p261
VNN
p262
tp263
a(g29
VNN
p264
tp265
a(g112
V''
p266
tp267
a(g42
g42
tp268
a(g29
VNN
p269
tp270
a(g112
V''
p271
tp272
a(g50
g96
tp273
a(g112
V''
p274
tp275
a(g42
g42
tp276
a(g29
VNN
p277
tp278
a(g112
V''
p279
tp280
a(g158
VDT
p281
tp282
a(g154
VNN
p283
tp284
a(g29
VNN
p285
tp286
a(g240
VNN
p287
tp288
a(g152
VSYM
p289
tp290
a(g112
V''
p291
tp292
a(g42
g42
tp293
a(g29
VNN
p294
tp295
a(g112
V''
p296
tp297
a(g45
g93
tp298
a(g112
V''
p299
tp300
a(g42
g42
tp301
a(g29
VNN
p302
tp303
a(g112
V''
p304
tp305
a(g152
VLS
p306
tp307
a(Vx
p308
VNN
p309
tp310
a(g154
VNN
p311
tp312
a(g152
VSYM
p313
tp314
a(g160
VNN
p315
tp316
a(g160
VNN
p317
tp318
a(g152
VSYM
p319
tp320
a(g24
VNN
p321
tp322
a(g240
VNN
p323
tp324
a(g112
V''
p325
tp326
a(g42
g42
tp327
a(g29
VNN
p328
tp329
a(g112
VPOS
p330
tp331
a(Vg
p332
VNN
p333
tp334
a(g261
VNN
p335
tp336
a(g261
VNN
p337
tp338
a(g170
VNN
p339
tp340
a(g112
V''
p341
tp342
a(g42
g42
tp343
a(g29
VNN
p344
tp345
a(g112
V''
p346
tp347
a(g42
g42
tp348
a(g112
V''
p349
tp350
a(g42
g42
tp351
a(g29
VNN
p352
tp353
a(g112
V''
p354
tp355
a(g158
VDT
p356
tp357
a(Vm
p358
VNN
p359
tp360
a(Vb
p361
VNN
p362
tp363
a(g131
VLS
p364
tp365
a(g158
VDT
p366
tp367
a(g24
VNN
p368
tp369
a(g154
VNN
p370
tp371
a(g152
VLS
p372
tp373
a(g102
g102
tp374
a(g112
V''
p375
tp376
a(g42
g42
tp377
a(g29
VNN
p378
tp379
a(g112
V''
p380
tp381
a(VP
p382
VNN
p383
tp384
a(g158
VDT
p385
tp386
a(g134
VNN
p387
tp388
a(g240
VNN
p389
tp390
a(g158
VDT
p391
tp392
a(g112
V''
p393
tp394
a(g42
g42
tp395
a(g29
VNN
p396
tp397
a(g112
V''
p398
tp399
a(g358
VNN
p400
tp401
a(g158
VDT
p402
tp403
a(g170
VNN
p404
tp405
a(g152
VSYM
p406
tp407
a(g112
V''
p408
tp409
a(g42
g42
tp410
a(g29
VNN
p411
tp412
a(g112
VPOS
p413
tp414
a(g24
VNN
p415
tp416
a(g152
VSYM
p417
tp418
a(g308
VNN
p419
tp420
a(g240
VNN
p421
tp422
a(g112
V''
p423
tp424
a(g42
g42
tp425
a(g29
VNN
p426
tp427
a(g112
VPOS
p428
tp429
a(g170
VNN
p430
tp431
a(g261
VNN
p432
tp433
a(g261
VNN
p434
tp435
a(g116
VNN
p436
tp437
a(g112
V''
p438
tp439
a(g42
g42
tp440
a(g29
VNN
p441
tp442
a(g112
VPOS
p443
tp444
a(g24
VNN
p445
tp446
a(g112
V''
p447
tp448
a(g42
g42
tp449
a(g29
VNN
p450
tp451
a(g112
VPOS
p452
tp453
a(g29
VNN
p454
tp455
a(g112
V''
p456
tp457
a(g42
g42
tp458
a(g29
VNN
p459
tp460
a(g112
V''
p461
tp462
a(g152
VLS
p463
tp464
a(g245
VLS
p465
tp466
a(g152
VLS
p467
tp468
a(g24
VNN
p469
tp470
a(g112
V''
p471
tp472
a(g42
g42
tp473
a(g29
VNN
p474
tp475
a(g112
VPOS
p476
tp477
a(g361
VNN
p478
tp479
a(g116
VNN
p480
tp481
a(g131
VFW
p482
tp483
a(g24
VNN
p484
tp485
a(g332
VNN
p486
tp487
a(g112
V''
p488
tp489
a(g42
g42
tp490
a(g29
VNN
p491
tp492
a(g112
V''
p493
tp494
a(g160
VNN
p495
tp496
a(g158
VDT
p497
tp498
a(g134
VNN
p499
tp500
a(g158
VDT
p501
tp502
a(g332
VNN
p503
tp504
a(g24
VNN
p505
tp506
a(g158
VDT
p507
tp508
a(g112
V''
p509
tp510
a(g42
g42
tp511
a(g29
VNN
p512
tp513
a(g112
V''
p514
tp515
a(g149
VNN
p516
tp517
a(g158
VDT
p518
tp519
a(g24
VNN
p520
tp521
a(g112
V''
p522
tp523
a(g42
g42
tp524
a(g29
VNN
p525
tp526
a(g112
VPOS
p527
tp528
a(g134
VNN
p529
tp530
a(g137
VNN
p531
tp532
a(g152
VSYM
p533
tp534
a(g152
VLS
p535
tp536
a(g240
VNN
p537
tp538
a(g134
VNN
p539
tp540
a(g112
V''
p541
tp542
a(g42
g42
tp543
a(g29
VNN
p544
tp545
a(g112
VPOS
p546
tp547
a(g154
VNN
p548
tp549
a(g29
VNN
p550
tp551
a(g240
VNN
p552
tp553
a(g112
V''
p554
tp555
a(g42
g42
tp556
a(g29
VNN
p557
tp558
a(g112
V''
p559
tp560
a(g358
VNN
p561
tp562
a(g158
VDT
p563
tp564
a(Vk
p565
VNN
p566
tp567
a(g152
VSYM
p568
tp569
a(g112
V''
p570
tp571
a(g42
g42
tp572
a(g29
VNN
p573
tp574
a(g112
VPOS
p575
tp576
a(g137
VNN
p577
tp578
a(g261
VNN
p579
tp580
a(g358
VNN
p581
tp582
a(g152
VLS
p583
tp584
a(g102
g102
tp585
a(g112
V''
p586
tp587
a(g42
g42
tp588
a(g29
VNN
p589
tp590
a(g112
VPOS
p591
tp592
a(VI
p593
VNN
p594
tp595
a(g24
VNN
p596
tp597
a(g112
V''
p598
tp599
a(g42
g42
tp600
a(g29
VNN
p601
tp602
a(g112
VPOS
p603
tp604
a(g190
VNN
p605
tp606
a(g261
VNN
p607
tp608
a(g116
VNN
p609
tp610
a(g170
VNN
p611
tp612
a(g112
V''
p613
tp614
a(g42
g42
tp615
a(g29
VNN
p616
tp617
a(g112
V''
p618
tp619
a(g42
g42
tp620
a(g112
V''
p621
tp622
a(g42
g42
tp623
a(g29
VNN
p624
tp625
a(g112
VPOS
p626
tp627
a(g185
VNN
p628
tp629
a(VW
p630
VNN
p631
tp632
a(VE
p633
VNN
p634
tp635
a(VS
p636
VNN
p637
tp638
a(VO
p639
VNN
p640
tp641
a(VM
p642
VNN
p643
tp644
a(g633
VNN
p645
tp646
a(g112
V''
p647
tp648
a(g42
g42
tp649
a(g29
VNN
p650
tp651
a(g112
V''
p652
tp653
a(g58
g102
tp654
a(g112
V''
p655
tp656
a(V]
p657
VNN
p658
tp659
asS'tagged_title'
p660
(lp661
(g108
VFW
p662
tp663
a(g29
VFW
p664
tp665
a(g112
V''
p666
tp667
a(g593
VPRP
p668
tp669
a(g128
VFW
p670
tp671
a(g112
V''
p672
tp673
a(g42
g42
tp674
a(g29
VNN
p675
tp676
a(g112
V''
p677
tp678
a(g131
VLS
p679
tp680
a(g240
VNN
p681
tp682
a(g112
V''
p683
tp684
a(g42
g42
tp685
a(g29
VNN
p686
tp687
a(g112
V''
p688
tp689
a(g50
VCC
p690
tp691
a(g112
V''
p692
tp693
a(g42
g42
tp694
a(g29
VNN
p695
tp696
a(g112
V''
p697
tp698
a(g158
VDT
p699
tp700
a(g154
VNN
p701
tp702
a(g29
VNN
p703
tp704
a(g240
VNN
p705
tp706
a(g152
VSYM
p707
tp708
a(g112
V''
p709
tp710
a(g42
g42
tp711
a(g29
VNN
p712
tp713
a(g112
V''
p714
tp715
a(g45
g93
tp716
a(g112
V''
p717
tp718
a(g42
g42
tp719
a(g29
VNN
p720
tp721
a(g112
VPOS
p722
tp723
a(g134
VNN
p724
tp725
a(g112
V''
p726
tp727
a(g42
g42
tp728
a(g29
VNN
p729
tp730
a(g112
V''
p731
tp732
a(g158
VDT
p733
tp734
a(g160
VNN
p735
tp736
a(g160
VNN
p737
tp738
a(g112
V''
p739
tp740
a(g42
g42
tp741
a(g29
VNN
p742
tp743
a(g112
V''
p744
tp745
a(g158
VDT
p746
tp747
a(g361
VNN
p748
tp749
a(g261
VNN
p750
tp751
a(g29
VNN
p752
tp753
a(g240
VNN
p754
tp755
a(g112
V''
p756
tp757
a(g42
g42
tp758
a(g29
VNN
p759
tp760
a(g112
VPOS
p761
tp762
a(g240
VNN
p763
tp764
a(g137
VNN
p765
tp766
a(g152
VSYM
p767
tp768
a(g112
V''
p769
tp770
a(g42
g42
tp771
a(g29
VNN
p772
tp773
a(g112
V''
p774
tp775
a(g128
VLS
p776
tp777
a(g261
VNN
p778
tp779
a(g261
VNN
p780
tp781
a(g170
VNN
p782
tp783
a(g112
V''
p784
tp785
a(g42
g42
tp786
a(g29
VNN
p787
tp788
a(g112
VPOS
p789
tp790
a(g240
VNN
p791
tp792
a(g137
VNN
p793
tp794
a(g152
VSYM
p795
tp796
a(g24
VNN
p797
tp798
a(g112
V''
p799
tp800
a(g42
g42
tp801
a(g29
VNN
p802
tp803
a(g112
VPOS
p804
tp805
a(g240
VNN
p806
tp807
a(g137
VNN
p808
tp809
a(g131
VLS
p810
tp811
a(g134
VNNS
p812
tp813
a(g112
VPOS
p814
tp815
a(g42
g42
tp816
a(g29
VNN
p817
tp818
a(g112
V''
p819
tp820
a(g131
VLS
p821
tp822
a(g134
VNNS
p823
tp824
a(g112
VPOS
p825
tp826
a(g42
g42
tp827
a(g29
VNN
p828
tp829
a(g112
VPOS
p830
tp831
a(g240
VNN
p832
tp833
a(g137
VNN
p834
tp835
a(g152
VSYM
p836
tp837
a(g112
V''
p838
tp839
a(g42
g42
tp840
a(g29
VNN
p841
tp842
a(g112
VPOS
p843
tp844
a(g149
VNN
p845
tp846
a(g160
VNN
p847
tp848
a(g158
VDT
p849
tp850
a(g154
VNN
p851
tp852
a(g152
VSYM
p853
tp854
a(g112
V''
p855
tp856
a(g42
g42
tp857
a(g29
VNN
p858
tp859
a(g112
V''
p860
tp861
a(g58
g102
tp862
a(g112
V''
p863
tp864
a(g657
VNN
p865
tp866
asVtotal_points
p867
V100
p868
sVdate
p869
V2/25/2013
p870
sVtaObjectUrl
p871
Vhttp://www.tripadvisor.com/Restaurant_Review-g47639-d2432540-Reviews-Mascali_Restaurant-East_Northport_Long_Island_New_York.html
p872
sVtype
p873
VRestaurants
p874
sS'pos_unigram'
p875
(lp876
g95
ag110
ag98
ag94
ag117
ag120
ag99
ag42
ag124
ag126
ag129
ag132
ag135
ag138
ag140
ag42
ag143
ag145
ag147
ag150
ag97
ag100
ag156
ag101
ag161
ag163
ag42
ag166
ag168
ag171
ag173
ag175
ag102
ag178
ag42
ag181
ag183
ag186
ag188
ag191
ag193
ag195
ag197
ag199
ag42
ag202
ag204
ag206
ag208
ag210
ag212
ag214
ag216
ag42
ag219
ag221
ag223
ag225
ag42
ag228
ag230
ag232
ag234
ag236
ag238
ag241
ag243
ag246
ag248
ag102
ag251
ag42
ag254
ag256
ag259
ag262
ag264
ag266
ag42
ag269
ag271
ag96
ag274
ag42
ag277
ag279
ag281
ag283
ag285
ag287
ag289
ag291
ag42
ag294
ag296
ag93
ag299
ag42
ag302
ag304
ag306
ag309
ag311
ag313
ag315
ag317
ag319
ag321
ag323
ag325
ag42
ag328
ag330
ag333
ag335
ag337
ag339
ag341
ag42
ag344
ag346
ag42
ag349
ag42
ag352
ag354
ag356
ag359
ag362
ag364
ag366
ag368
ag370
ag372
ag102
ag375
ag42
ag378
ag380
ag383
ag385
ag387
ag389
ag391
ag393
ag42
ag396
ag398
ag400
ag402
ag404
ag406
ag408
ag42
ag411
ag413
ag415
ag417
ag419
ag421
ag423
ag42
ag426
ag428
ag430
ag432
ag434
ag436
ag438
ag42
ag441
ag443
ag445
ag447
ag42
ag450
ag452
ag454
ag456
ag42
ag459
ag461
ag463
ag465
ag467
ag469
ag471
ag42
ag474
ag476
ag478
ag480
ag482
ag484
ag486
ag488
ag42
ag491
ag493
ag495
ag497
ag499
ag501
ag503
ag505
ag507
ag509
ag42
ag512
ag514
ag516
ag518
ag520
ag522
ag42
ag525
ag527
ag529
ag531
ag533
ag535
ag537
ag539
ag541
ag42
ag544
ag546
ag548
ag550
ag552
ag554
ag42
ag557
ag559
ag561
ag563
ag566
ag568
ag570
ag42
ag573
ag575
ag577
ag579
ag581
ag583
ag102
ag586
ag42
ag589
ag591
ag594
ag596
ag598
ag42
ag601
ag603
ag605
ag607
ag609
ag611
ag613
ag42
ag616
ag618
ag42
ag621
ag42
ag624
ag626
ag628
ag631
ag634
ag637
ag640
ag643
ag645
ag647
ag42
ag650
ag652
ag102
ag655
ag658
asVhelpfulness
p877
V0
p878
sVtaObjectCity
p879
VEast Northport
p880
s.(dp0
Vrating
p1
V4
p2
sVtext
p3
VI bought a GroupOn for this place before reading all reviews and was mildly concerned with some of the reviews. We were greeted by friendly staff (in English) and told we were upgraded to a 2-bedroom. We had requested a view of the lake when making the reservation and our living room balcony (and one bedroom balcony) had beautiful views of Lake Mercer. Large, clean quarters, stocked with the basic household items (including plenty of toilet paper!). Comfortable bed. What more to ask for?
p4
sS'title_length'
p5
I492
sS'bigram_counts'
p6
ccollections
Counter
p7
((dp8
(Vbalcony
p9
V)
p10
tp11
I1
s(Vbedroom
p12
g9
tp13
I1
s(Vviews
p14
Vlake
p15
tp16
I1
s(Vview
p17
Vlake
p18
tp19
I1
s(Vgroupon
p20
Vplace
p21
tp22
I1
s(V!
p23
g10
tp24
I1
s(Vhousehold
p25
Vitems
p26
tp27
I1
s(Vincluding
p28
Vplenty
p29
tp30
I1
s(Vask
p31
V?
p32
tp33
I1
s(V,
p34
Vstocked
p35
tp36
I1
s(Vone
p37
g12
tp38
I1
s(Vbed.
p39
g31
tp40
I1
s(g10
Vbeautiful
p41
tp42
I1
s(Vclean
p43
Vquarters
p44
tp45
I1
s(g26
V(
p46
tp47
I1
s(g46
Venglish
p48
tp49
I1
s(Vreading
p50
Vreviews
p51
tp52
I1
s(Vliving
p53
Vroom
p54
tp55
I1
s(Vbought
p56
g20
tp57
I1
s(Vmildly
p58
Vconcerned
p59
tp60
I1
s(Vreservation
p61
g53
tp62
I1
s(Vpaper
p63
g23
tp64
I1
s(g29
Vtoilet
p65
tp66
I1
s(Vgreeted
p67
Vfriendly
p68
tp69
I1
s(g59
Vreviews.
p70
tp71
I1
s(g10
V.
p72
tp73
I1
s(Vrequested
p74
g17
tp75
I1
s(g34
g43
tp76
I1
s(g70
g67
tp77
I1
s(g46
g37
tp78
I1
s(g68
Vstaff
p79
tp80
I1
s(g48
g10
tp81
I1
s(g41
g14
tp82
I1
s(g35
Vbasic
p83
tp84
I1
s(g65
g63
tp85
I1
s(g51
g58
tp86
I1
s(g54
Vbalcony
p87
tp88
I1
s(Vtold
p89
Vupgraded
p90
tp91
I1
s(g72
Vcomfortable
p92
tp93
I1
s(g44
g34
tp94
I1
s(g83
g25
tp95
I1
s(g46
g28
tp96
I1
s(g79
g46
tp97
I1
s(g18
Vmaking
p98
tp99
I1
s(g87
g46
tp100
I1
s(g98
g61
tp101
I1
s(g10
g89
tp102
I1
s(g15
Vmercer.
p103
tp104
I1
s(g90
V2-bedroom.
p105
tp106
I1
s(g105
g74
tp107
I1
s(g103
Vlarge
p108
tp109
I1
s(g108
g34
tp110
I1
s(g21
g50
tp111
I1
s(g92
g39
tp112
I1
stp113
Rp114
sS'rev_unigrams'
p115
(lp116
g56
ag20
ag21
ag50
ag51
ag58
ag59
ag70
ag67
ag68
ag79
ag46
ag48
ag10
ag89
ag90
ag105
ag74
ag17
ag18
ag98
ag61
ag53
ag54
ag87
ag46
ag37
ag12
ag9
ag10
ag41
ag14
ag15
ag103
ag108
ag34
ag43
ag44
ag34
ag35
ag83
ag25
ag26
ag46
ag28
ag29
ag65
ag63
ag23
ag10
ag72
ag92
ag39
ag31
ag32
asVid
p117
V287
p118
sVtaObject
p119
VCap Tremblant Mountain Resort
p120
sVtitle
p121
VPleasant surprise!
p122
sS'unigram_counts'
p123
g7
((dp124
g90
I1
sg41
I1
sg70
I1
sg65
I1
sg25
I1
sg20
I1
sg37
I1
sg63
I1
sg28
I1
sg12
I1
sg79
I1
sg23
I1
sg53
I1
sg92
I1
sg10
I3
sg46
I3
sg59
I1
sg39
I1
sg72
I1
sg83
I1
sg87
I2
sg18
I2
sg32
I1
sg89
I1
sg74
I1
sg35
I1
sg14
I1
sg105
I1
sg67
I1
sg29
I1
sg31
I1
sg61
I1
sg44
I1
sg34
I2
sg50
I1
sg54
I1
sg103
I1
sg26
I1
sg68
I1
sg108
I1
sg51
I1
sg21
I1
sg58
I1
sg43
I1
sg48
I1
sg98
I1
sg56
I1
sg17
I1
stp125
Rp126
sS'rev_bigrams'
p127
(lp128
g57
ag22
ag111
ag52
ag86
ag60
ag71
ag77
ag69
ag80
ag97
ag49
ag81
ag102
ag91
ag106
ag107
ag75
ag19
ag99
ag101
ag62
ag55
ag88
ag100
ag78
ag38
ag13
ag11
ag42
ag82
ag16
ag104
ag109
ag110
ag76
ag45
ag94
ag36
ag84
ag95
ag27
ag47
ag96
ag30
ag66
ag85
ag64
ag24
ag73
ag93
ag112
ag40
ag33
asS'pos_count'
p129
ccollections
defaultdict
p130
(c__builtin__
int
p131
tp132
Rp133
V:
p134
I1
sVNN
p135
I246
sVFW
p136
I32
sVPOS
p137
I39
sVSYM
p138
I31
sg34
I60
sV''
p139
I79
sVCD
p140
I1
sVPRP
p141
I1
sVVBZ
p142
I2
sVDT
p143
I18
sg72
I7
sVLS
p144
I25
ssS'rev_length'
p145
I492
sVusername
p146
V19822011
p147
sS'tagged_text'
p148
(lp149
(V[
p150
g136
tp151
a(Vu
p152
VFW
p153
tp154
a(V'
p155
g139
tp156
a(VI
p157
g141
tp158
a(g155
V''
p159
tp160
a(g34
g34
tp161
a(g152
g135
tp162
a(g155
g137
tp163
a(Vb
p164
VNN
p165
tp166
a(Vo
p167
VNN
p168
tp169
a(g152
VNN
p170
tp171
a(Vg
p172
VNN
p173
tp174
a(Vh
p175
VNN
p176
tp177
a(Vt
p178
VNN
p179
tp180
a(g155
V''
p181
tp182
a(g34
g34
tp183
a(g152
VNN
p184
tp185
a(g155
VPOS
p186
tp187
a(VG
p188
VNN
p189
tp190
a(Vr
p191
VNN
p192
tp193
a(g167
VNN
p194
tp195
a(g152
VNN
p196
tp197
a(Vp
p198
VNN
p199
tp200
a(VO
p201
VNN
p202
tp203
a(Vn
p204
VNN
p205
tp206
a(g155
V''
p207
tp208
a(g34
g34
tp209
a(g152
VNN
p210
tp211
a(g155
VPOS
p212
tp213
a(g198
VNN
p214
tp215
a(Vl
p216
VNN
p217
tp218
a(Va
p219
g143
tp220
a(Vc
p221
VNN
p222
tp223
a(Ve
p224
g138
tp225
a(g155
V''
p226
tp227
a(g34
g34
tp228
a(g152
VNN
p229
tp230
a(g155
VPOS
p231
tp232
a(g191
VNN
p233
tp234
a(g224
VSYM
p235
tp236
a(g219
VDT
p237
tp238
a(Vd
p239
VFW
p240
tp241
a(Vi
p242
VFW
p243
tp244
a(g204
VNN
p245
tp246
a(g172
VNN
p247
tp248
a(g155
V''
p249
tp250
a(g34
g34
tp251
a(g152
VNN
p252
tp253
a(g155
VPOS
p254
tp255
a(g191
VNN
p256
tp257
a(g224
VSYM
p258
tp259
a(Vv
p260
g144
tp261
a(g242
VLS
p262
tp263
a(g224
VLS
p264
tp265
a(Vw
p266
VNN
p267
tp268
a(Vs
p269
VNN
p270
tp271
a(g155
V''
p272
tp273
a(g34
g34
tp274
a(g152
VNN
p275
tp276
a(g155
VPOS
p277
tp278
a(Vm
p279
VNN
p280
tp281
a(g242
VFW
p282
tp283
a(g216
VNN
p284
tp285
a(g239
VNN
p286
tp287
a(g216
VNN
p288
tp289
a(Vy
p290
VNN
p291
tp292
a(g155
V''
p293
tp294
a(g34
g34
tp295
a(g152
VNN
p296
tp297
a(g155
VPOS
p298
tp299
a(g221
VNN
p300
tp301
a(g167
VNN
p302
tp303
a(g204
VNN
p304
tp305
a(g221
VNN
p306
tp307
a(g224
VSYM
p308
tp309
a(g191
VNN
p310
tp311
a(g204
VNN
p312
tp313
a(g224
VSYM
p314
tp315
a(g239
VFW
p316
tp317
a(g155
V''
p318
tp319
a(g34
g34
tp320
a(g152
VNN
p321
tp322
a(g155
VPOS
p323
tp324
a(g191
VNN
p325
tp326
a(g224
VSYM
p327
tp328
a(g260
VLS
p329
tp330
a(g242
VLS
p331
tp332
a(g224
VLS
p333
tp334
a(g266
VNN
p335
tp336
a(g269
VNN
p337
tp338
a(g72
g72
tp339
a(g155
V''
p340
tp341
a(g34
g34
tp342
a(g152
VNN
p343
tp344
a(g155
VPOS
p345
tp346
a(VW
p347
VNN
p348
tp349
a(g224
VSYM
p350
tp351
a(g155
V''
p352
tp353
a(g34
g34
tp354
a(g152
VNN
p355
tp356
a(g155
VPOS
p357
tp358
a(g172
VNN
p359
tp360
a(g191
VNN
p361
tp362
a(g224
VSYM
p363
tp364
a(g224
VLS
p365
tp366
a(g178
VNN
p367
tp368
a(g224
VSYM
p369
tp370
a(g239
VFW
p371
tp372
a(g155
V''
p373
tp374
a(g34
g34
tp375
a(g152
VNN
p376
tp377
a(g155
V''
p378
tp379
a(Vf
p380
VLS
p381
tp382
a(g191
VNN
p383
tp384
a(g242
VFW
p385
tp386
a(g224
VLS
p387
tp388
a(g204
VNN
p389
tp390
a(g239
VNN
p391
tp392
a(g216
VNN
p393
tp394
a(g290
VNN
p395
tp396
a(g155
V''
p397
tp398
a(g34
g34
tp399
a(g152
VNN
p400
tp401
a(g155
VPOS
p402
tp403
a(g269
VNN
p404
tp405
a(g178
VNN
p406
tp407
a(g219
VDT
p408
tp409
a(g380
VFW
p410
tp411
a(g380
VFW
p412
tp413
a(g155
V''
p414
tp415
a(g34
g34
tp416
a(g152
VNN
p417
tp418
a(g155
VPOS
p419
tp420
a(g46
VNN
p421
tp422
a(g155
V''
p423
tp424
a(g34
g34
tp425
a(g152
VNN
p426
tp427
a(g155
VPOS
p428
tp429
a(VE
p430
VNN
p431
tp432
a(g204
VNN
p433
tp434
a(g172
VNN
p435
tp436
a(g216
VNN
p437
tp438
a(g242
VFW
p439
tp440
a(g269
VNN
p441
tp442
a(g175
VNN
p443
tp444
a(g155
V''
p445
tp446
a(g34
g34
tp447
a(g152
VNN
p448
tp449
a(g155
VPOS
p450
tp451
a(g10
VNN
p452
tp453
a(g155
V''
p454
tp455
a(g34
g34
tp456
a(g152
VNN
p457
tp458
a(g155
VPOS
p459
tp460
a(g178
VNN
p461
tp462
a(g167
VNN
p463
tp464
a(g216
VNN
p465
tp466
a(g239
VNN
p467
tp468
a(g155
V''
p469
tp470
a(g34
g34
tp471
a(g152
VNN
p472
tp473
a(g155
VPOS
p474
tp475
a(g152
VNN
p476
tp477
a(g198
VNN
p478
tp479
a(g172
VNN
p480
tp481
a(g191
VNN
p482
tp483
a(g219
VDT
p484
tp485
a(g239
VNN
p486
tp487
a(g224
VSYM
p488
tp489
a(g239
VFW
p490
tp491
a(g155
V''
p492
tp493
a(g34
g34
tp494
a(g152
VNN
p495
tp496
a(g155
V''
p497
tp498
a(V2
p499
g140
tp500
a(V-
p501
g134
tp502
a(g164
VLS
p503
tp504
a(g224
VLS
p505
tp506
a(g239
VNN
p507
tp508
a(g191
VNN
p509
tp510
a(g167
VNN
p511
tp512
a(g167
VNN
p513
tp514
a(g279
VNN
p515
tp516
a(g72
g72
tp517
a(g155
V''
p518
tp519
a(g34
g34
tp520
a(g152
VNN
p521
tp522
a(g155
VPOS
p523
tp524
a(g347
VNN
p525
tp526
a(g224
VSYM
p527
tp528
a(g155
V''
p529
tp530
a(g34
g34
tp531
a(g152
VNN
p532
tp533
a(g155
VPOS
p534
tp535
a(g191
VNN
p536
tp537
a(g224
VSYM
p538
tp539
a(Vq
p540
VFW
p541
tp542
a(g152
VFW
p543
tp544
a(g224
VLS
p545
tp546
a(g269
VNN
p547
tp548
a(g178
VNN
p549
tp550
a(g224
VSYM
p551
tp552
a(g239
VFW
p553
tp554
a(g155
V''
p555
tp556
a(g34
g34
tp557
a(g152
VNN
p558
tp559
a(g155
V''
p560
tp561
a(g260
VLS
p562
tp563
a(g242
VLS
p564
tp565
a(g224
VLS
p566
tp567
a(g266
VNN
p568
tp569
a(g155
V''
p570
tp571
a(g34
g34
tp572
a(g152
VNN
p573
tp574
a(g155
V''
p575
tp576
a(g216
VNN
p577
tp578
a(g219
VDT
p579
tp580
a(Vk
p581
VNN
p582
tp583
a(g224
VSYM
p584
tp585
a(g155
V''
p586
tp587
a(g34
g34
tp588
a(g152
VNN
p589
tp590
a(g155
V''
p591
tp592
a(g279
VNN
p593
tp594
a(g219
VDT
p595
tp596
a(g581
VNN
p597
tp598
a(g242
VFW
p599
tp600
a(g204
VNN
p601
tp602
a(g172
VNN
p603
tp604
a(g155
V''
p605
tp606
a(g34
g34
tp607
a(g152
VNN
p608
tp609
a(g155
VPOS
p610
tp611
a(g191
VNN
p612
tp613
a(g224
VSYM
p614
tp615
a(g269
g142
tp616
a(g224
VLS
p617
tp618
a(g191
VNN
p619
tp620
a(g260
VLS
p621
tp622
a(g219
VDT
p623
tp624
a(g178
VNN
p625
tp626
a(g242
VFW
p627
tp628
a(g167
VNN
p629
tp630
a(g204
VNN
p631
tp632
a(g155
V''
p633
tp634
a(g34
g34
tp635
a(g152
VNN
p636
tp637
a(g155
VPOS
p638
tp639
a(g216
VNN
p640
tp641
a(g242
VFW
p642
tp643
a(g260
VLS
p644
tp645
a(g242
VLS
p646
tp647
a(g204
VNN
p648
tp649
a(g172
VNN
p650
tp651
a(g155
V''
p652
tp653
a(g34
g34
tp654
a(g152
VNN
p655
tp656
a(g155
VPOS
p657
tp658
a(g191
VNN
p659
tp660
a(g167
VNN
p661
tp662
a(g167
VNN
p663
tp664
a(g279
VNN
p665
tp666
a(g155
V''
p667
tp668
a(g34
g34
tp669
a(g152
VNN
p670
tp671
a(g155
VPOS
p672
tp673
a(g164
VNN
p674
tp675
a(g219
VDT
p676
tp677
a(g216
VNN
p678
tp679
a(g221
VNN
p680
tp681
a(g167
VNN
p682
tp683
a(g204
VNN
p684
tp685
a(g290
VNN
p686
tp687
a(g155
V''
p688
tp689
a(g34
g34
tp690
a(g152
VNN
p691
tp692
a(g155
VPOS
p693
tp694
a(g46
VNN
p695
tp696
a(g155
V''
p697
tp698
a(g34
g34
tp699
a(g152
VNN
p700
tp701
a(g155
VPOS
p702
tp703
a(g167
VNN
p704
tp705
a(g204
VNN
p706
tp707
a(g224
VSYM
p708
tp709
a(g155
V''
p710
tp711
a(g34
g34
tp712
a(g152
VNN
p713
tp714
a(g155
VPOS
p715
tp716
a(g164
VNN
p717
tp718
a(g224
VSYM
p719
tp720
a(g239
VNN
p721
tp722
a(g191
VNN
p723
tp724
a(g167
VNN
p725
tp726
a(g167
VNN
p727
tp728
a(g279
VNN
p729
tp730
a(g155
V''
p731
tp732
a(g34
g34
tp733
a(g152
VNN
p734
tp735
a(g155
VPOS
p736
tp737
a(g164
VNN
p738
tp739
a(g219
VDT
p740
tp741
a(g216
VNN
p742
tp743
a(g221
VNN
p744
tp745
a(g167
VNN
p746
tp747
a(g204
VNN
p748
tp749
a(g290
VNN
p750
tp751
a(g155
V''
p752
tp753
a(g34
g34
tp754
a(g152
VNN
p755
tp756
a(g155
VPOS
p757
tp758
a(g10
VNN
p759
tp760
a(g155
V''
p761
tp762
a(g34
g34
tp763
a(g152
VNN
p764
tp765
a(g155
VPOS
p766
tp767
a(g164
VNN
p768
tp769
a(g224
VSYM
p770
tp771
a(g219
VFW
p772
tp773
a(g152
VFW
p774
tp775
a(g178
VNN
p776
tp777
a(g242
VFW
p778
tp779
a(g380
VFW
p780
tp781
a(g152
VFW
p782
tp783
a(g216
VNN
p784
tp785
a(g155
V''
p786
tp787
a(g34
g34
tp788
a(g152
VNN
p789
tp790
a(g155
V''
p791
tp792
a(g260
VLS
p793
tp794
a(g242
VLS
p795
tp796
a(g224
VLS
p797
tp798
a(g266
VNN
p799
tp800
a(g269
VNN
p801
tp802
a(g155
V''
p803
tp804
a(g34
g34
tp805
a(g152
VNN
p806
tp807
a(g155
V''
p808
tp809
a(VL
p810
VNN
p811
tp812
a(g219
VDT
p813
tp814
a(g581
VNN
p815
tp816
a(g224
VSYM
p817
tp818
a(g155
V''
p819
tp820
a(g34
g34
tp821
a(g152
VNN
p822
tp823
a(g155
VPOS
p824
tp825
a(VM
p826
VNN
p827
tp828
a(g224
VSYM
p829
tp830
a(g191
VNN
p831
tp832
a(g221
VNN
p833
tp834
a(g224
VSYM
p835
tp836
a(g191
VNN
p837
tp838
a(g72
g72
tp839
a(g155
V''
p840
tp841
a(g34
g34
tp842
a(g152
VNN
p843
tp844
a(g155
V''
p845
tp846
a(g810
VNN
p847
tp848
a(g219
VDT
p849
tp850
a(g191
VNN
p851
tp852
a(g172
VNN
p853
tp854
a(g224
VSYM
p855
tp856
a(g155
V''
p857
tp858
a(g34
g34
tp859
a(g152
VNN
p860
tp861
a(g155
V''
p862
tp863
a(g34
g34
tp864
a(g155
V''
p865
tp866
a(g34
g34
tp867
a(g152
VNN
p868
tp869
a(g155
VPOS
p870
tp871
a(g221
VNN
p872
tp873
a(g216
VNN
p874
tp875
a(g224
VSYM
p876
tp877
a(g219
VDT
p878
tp879
a(g204
VNN
p880
tp881
a(g155
V''
p882
tp883
a(g34
g34
tp884
a(g152
VNN
p885
tp886
a(g155
V''
p887
tp888
a(g540
VFW
p889
tp890
a(g152
VFW
p891
tp892
a(g219
VDT
p893
tp894
a(g191
VNN
p895
tp896
a(g178
VNN
p897
tp898
a(g224
VSYM
p899
tp900
a(g191
VNN
p901
tp902
a(g269
VNN
p903
tp904
a(g155
V''
p905
tp906
a(g34
g34
tp907
a(g152
VNN
p908
tp909
a(g155
V''
p910
tp911
a(g34
g34
tp912
a(g155
V''
p913
tp914
a(g34
g34
tp915
a(g152
VNN
p916
tp917
a(g155
VPOS
p918
tp919
a(g269
VNN
p920
tp921
a(g178
VNN
p922
tp923
a(g167
VNN
p924
tp925
a(g221
VNN
p926
tp927
a(g581
VNN
p928
tp929
a(g224
VSYM
p930
tp931
a(g239
VFW
p932
tp933
a(g155
V''
p934
tp935
a(g34
g34
tp936
a(g152
VNN
p937
tp938
a(g155
V''
p939
tp940
a(g164
VNN
p941
tp942
a(g219
VDT
p943
tp944
a(g269
VNN
p945
tp946
a(g242
VFW
p947
tp948
a(g221
VNN
p949
tp950
a(g155
V''
p951
tp952
a(g34
g34
tp953
a(g152
VNN
p954
tp955
a(g155
VPOS
p956
tp957
a(g175
VNN
p958
tp959
a(g167
VNN
p960
tp961
a(g152
VNN
p962
tp963
a(g269
VVBZ
p964
tp965
a(g224
VLS
p966
tp967
a(g175
VNN
p968
tp969
a(g167
VNN
p970
tp971
a(g216
VNN
p972
tp973
a(g239
VNN
p974
tp975
a(g155
V''
p976
tp977
a(g34
g34
tp978
a(g152
VNN
p979
tp980
a(g155
V''
p981
tp982
a(g242
VLS
p983
tp984
a(g178
VNN
p985
tp986
a(g224
VSYM
p987
tp988
a(g279
VNN
p989
tp990
a(g269
VNN
p991
tp992
a(g155
V''
p993
tp994
a(g34
g34
tp995
a(g152
VNN
p996
tp997
a(g155
VPOS
p998
tp999
a(g46
VNN
p1000
tp1001
a(g155
V''
p1002
tp1003
a(g34
g34
tp1004
a(g152
VNN
p1005
tp1006
a(g155
V''
p1007
tp1008
a(g242
VLS
p1009
tp1010
a(g204
VNN
p1011
tp1012
a(g221
VNN
p1013
tp1014
a(g216
VNN
p1015
tp1016
a(g152
VFW
p1017
tp1018
a(g239
VFW
p1019
tp1020
a(g242
VFW
p1021
tp1022
a(g204
VNN
p1023
tp1024
a(g172
VNN
p1025
tp1026
a(g155
V''
p1027
tp1028
a(g34
g34
tp1029
a(g152
VNN
p1030
tp1031
a(g155
VPOS
p1032
tp1033
a(g198
VNN
p1034
tp1035
a(g216
VNN
p1036
tp1037
a(g224
VSYM
p1038
tp1039
a(g204
VNN
p1040
tp1041
a(g178
VNN
p1042
tp1043
a(g290
VNN
p1044
tp1045
a(g155
V''
p1046
tp1047
a(g34
g34
tp1048
a(g152
VNN
p1049
tp1050
a(g155
VPOS
p1051
tp1052
a(g178
VNN
p1053
tp1054
a(g167
VNN
p1055
tp1056
a(g242
VFW
p1057
tp1058
a(g216
VNN
p1059
tp1060
a(g224
VSYM
p1061
tp1062
a(g178
VNN
p1063
tp1064
a(g155
V''
p1065
tp1066
a(g34
g34
tp1067
a(g152
VNN
p1068
tp1069
a(g155
V''
p1070
tp1071
a(g198
VNN
p1072
tp1073
a(g219
VDT
p1074
tp1075
a(g198
VNN
p1076
tp1077
a(g224
VSYM
p1078
tp1079
a(g191
VNN
p1080
tp1081
a(g155
V''
p1082
tp1083
a(g34
g34
tp1084
a(g152
VNN
p1085
tp1086
a(g155
V''
p1087
tp1088
a(g23
g72
tp1089
a(g155
V''
p1090
tp1091
a(g34
g34
tp1092
a(g152
VNN
p1093
tp1094
a(g155
VPOS
p1095
tp1096
a(g10
VNN
p1097
tp1098
a(g155
V''
p1099
tp1100
a(g34
g34
tp1101
a(g152
VNN
p1102
tp1103
a(g155
V''
p1104
tp1105
a(g72
g72
tp1106
a(g155
V''
p1107
tp1108
a(g34
g34
tp1109
a(g152
VNN
p1110
tp1111
a(g155
VPOS
p1112
tp1113
a(VC
p1114
VNN
p1115
tp1116
a(g167
VNN
p1117
tp1118
a(g279
VNN
p1119
tp1120
a(g380
VFW
p1121
tp1122
a(g167
VNN
p1123
tp1124
a(g191
VNN
p1125
tp1126
a(g178
VNN
p1127
tp1128
a(g219
VDT
p1129
tp1130
a(g164
VNN
p1131
tp1132
a(g216
VNN
p1133
tp1134
a(g224
VSYM
p1135
tp1136
a(g155
V''
p1137
tp1138
a(g34
g34
tp1139
a(g152
VNN
p1140
tp1141
a(g155
VPOS
p1142
tp1143
a(g164
VNN
p1144
tp1145
a(g224
VSYM
p1146
tp1147
a(g239
VNN
p1148
tp1149
a(g72
g72
tp1150
a(g155
V''
p1151
tp1152
a(g34
g34
tp1153
a(g152
VNN
p1154
tp1155
a(g155
VPOS
p1156
tp1157
a(g347
VNN
p1158
tp1159
a(g175
VNN
p1160
tp1161
a(g219
VDT
p1162
tp1163
a(g178
VNN
p1164
tp1165
a(g155
V''
p1166
tp1167
a(g34
g34
tp1168
a(g152
VNN
p1169
tp1170
a(g155
V''
p1171
tp1172
a(g219
VDT
p1173
tp1174
a(g269
VNN
p1175
tp1176
a(g581
VNN
p1177
tp1178
a(g155
V''
p1179
tp1180
a(g34
g34
tp1181
a(g152
VNN
p1182
tp1183
a(g155
V''
p1184
tp1185
a(g32
g72
tp1186
a(g155
V''
p1187
tp1188
a(V]
p1189
VNN
p1190
tp1191
asS'tagged_title'
p1192
(lp1193
(g150
VFW
p1194
tp1195
a(g152
VFW
p1196
tp1197
a(g155
VPOS
p1198
tp1199
a(VP
p1200
VNN
p1201
tp1202
a(g216
VNN
p1203
tp1204
a(g224
VSYM
p1205
tp1206
a(g219
VDT
p1207
tp1208
a(g269
VNN
p1209
tp1210
a(g219
VDT
p1211
tp1212
a(g204
VNN
p1213
tp1214
a(g178
VNN
p1215
tp1216
a(g155
V''
p1217
tp1218
a(g34
g34
tp1219
a(g152
VNN
p1220
tp1221
a(g155
VPOS
p1222
tp1223
a(g269
VNN
p1224
tp1225
a(g152
VNN
p1226
tp1227
a(g191
VNN
p1228
tp1229
a(g198
VNN
p1230
tp1231
a(g191
VNN
p1232
tp1233
a(g242
VFW
p1234
tp1235
a(g269
VVBZ
p1236
tp1237
a(g224
VLS
p1238
tp1239
a(g155
V''
p1240
tp1241
a(g34
g34
tp1242
a(g152
VNN
p1243
tp1244
a(g155
V''
p1245
tp1246
a(g23
g72
tp1247
a(g155
V''
p1248
tp1249
a(g1189
VNN
p1250
tp1251
asVtotal_points
p1252
V100
p1253
sVdate
p1254
V9/4/2012
p1255
sVtaObjectUrl
p1256
Vhttp://www.tripadvisor.com/Hotel_Review-g182183-d570104-Reviews-Cap_Tremblant_Mountain_Resort-Mont_Tremblant_Quebec.html
p1257
sVtype
p1258
VHotels
p1259
sS'pos_unigram'
p1260
(lp1261
g136
ag153
ag139
ag141
ag159
ag34
ag135
ag137
ag165
ag168
ag170
ag173
ag176
ag179
ag181
ag34
ag184
ag186
ag189
ag192
ag194
ag196
ag199
ag202
ag205
ag207
ag34
ag210
ag212
ag214
ag217
ag143
ag222
ag138
ag226
ag34
ag229
ag231
ag233
ag235
ag237
ag240
ag243
ag245
ag247
ag249
ag34
ag252
ag254
ag256
ag258
ag144
ag262
ag264
ag267
ag270
ag272
ag34
ag275
ag277
ag280
ag282
ag284
ag286
ag288
ag291
ag293
ag34
ag296
ag298
ag300
ag302
ag304
ag306
ag308
ag310
ag312
ag314
ag316
ag318
ag34
ag321
ag323
ag325
ag327
ag329
ag331
ag333
ag335
ag337
ag72
ag340
ag34
ag343
ag345
ag348
ag350
ag352
ag34
ag355
ag357
ag359
ag361
ag363
ag365
ag367
ag369
ag371
ag373
ag34
ag376
ag378
ag381
ag383
ag385
ag387
ag389
ag391
ag393
ag395
ag397
ag34
ag400
ag402
ag404
ag406
ag408
ag410
ag412
ag414
ag34
ag417
ag419
ag421
ag423
ag34
ag426
ag428
ag431
ag433
ag435
ag437
ag439
ag441
ag443
ag445
ag34
ag448
ag450
ag452
ag454
ag34
ag457
ag459
ag461
ag463
ag465
ag467
ag469
ag34
ag472
ag474
ag476
ag478
ag480
ag482
ag484
ag486
ag488
ag490
ag492
ag34
ag495
ag497
ag140
ag134
ag503
ag505
ag507
ag509
ag511
ag513
ag515
ag72
ag518
ag34
ag521
ag523
ag525
ag527
ag529
ag34
ag532
ag534
ag536
ag538
ag541
ag543
ag545
ag547
ag549
ag551
ag553
ag555
ag34
ag558
ag560
ag562
ag564
ag566
ag568
ag570
ag34
ag573
ag575
ag577
ag579
ag582
ag584
ag586
ag34
ag589
ag591
ag593
ag595
ag597
ag599
ag601
ag603
ag605
ag34
ag608
ag610
ag612
ag614
ag142
ag617
ag619
ag621
ag623
ag625
ag627
ag629
ag631
ag633
ag34
ag636
ag638
ag640
ag642
ag644
ag646
ag648
ag650
ag652
ag34
ag655
ag657
ag659
ag661
ag663
ag665
ag667
ag34
ag670
ag672
ag674
ag676
ag678
ag680
ag682
ag684
ag686
ag688
ag34
ag691
ag693
ag695
ag697
ag34
ag700
ag702
ag704
ag706
ag708
ag710
ag34
ag713
ag715
ag717
ag719
ag721
ag723
ag725
ag727
ag729
ag731
ag34
ag734
ag736
ag738
ag740
ag742
ag744
ag746
ag748
ag750
ag752
ag34
ag755
ag757
ag759
ag761
ag34
ag764
ag766
ag768
ag770
ag772
ag774
ag776
ag778
ag780
ag782
ag784
ag786
ag34
ag789
ag791
ag793
ag795
ag797
ag799
ag801
ag803
ag34
ag806
ag808
ag811
ag813
ag815
ag817
ag819
ag34
ag822
ag824
ag827
ag829
ag831
ag833
ag835
ag837
ag72
ag840
ag34
ag843
ag845
ag847
ag849
ag851
ag853
ag855
ag857
ag34
ag860
ag862
ag34
ag865
ag34
ag868
ag870
ag872
ag874
ag876
ag878
ag880
ag882
ag34
ag885
ag887
ag889
ag891
ag893
ag895
ag897
ag899
ag901
ag903
ag905
ag34
ag908
ag910
ag34
ag913
ag34
ag916
ag918
ag920
ag922
ag924
ag926
ag928
ag930
ag932
ag934
ag34
ag937
ag939
ag941
ag943
ag945
ag947
ag949
ag951
ag34
ag954
ag956
ag958
ag960
ag962
ag964
ag966
ag968
ag970
ag972
ag974
ag976
ag34
ag979
ag981
ag983
ag985
ag987
ag989
ag991
ag993
ag34
ag996
ag998
ag1000
ag1002
ag34
ag1005
ag1007
ag1009
ag1011
ag1013
ag1015
ag1017
ag1019
ag1021
ag1023
ag1025
ag1027
ag34
ag1030
ag1032
ag1034
ag1036
ag1038
ag1040
ag1042
ag1044
ag1046
ag34
ag1049
ag1051
ag1053
ag1055
ag1057
ag1059
ag1061
ag1063
ag1065
ag34
ag1068
ag1070
ag1072
ag1074
ag1076
ag1078
ag1080
ag1082
ag34
ag1085
ag1087
ag72
ag1090
ag34
ag1093
ag1095
ag1097
ag1099
ag34
ag1102
ag1104
ag72
ag1107
ag34
ag1110
ag1112
ag1115
ag1117
ag1119
ag1121
ag1123
ag1125
ag1127
ag1129
ag1131
ag1133
ag1135
ag1137
ag34
ag1140
ag1142
ag1144
ag1146
ag1148
ag72
ag1151
ag34
ag1154
ag1156
ag1158
ag1160
ag1162
ag1164
ag1166
ag34
ag1169
ag1171
ag1173
ag1175
ag1177
ag1179
ag34
ag1182
ag1184
ag72
ag1187
ag1190
asVhelpfulness
p1262
V0
p1263
sVtaObjectCity
p1264
VMont Tremblant
p1265
s.(dp0
Vrating
p1
V5
p2
sVtext
p3
Vwe were a group of six, managed to find room at one of the long tables in the back, sharing with others. had a blast. each half of the group got into great conversation with different local people. wouldn&acute;t have missed this night.
p4
sS'title_length'
p5
I236
sS'bigram_counts'
p6
ccollections
Counter
p7
((dp8
(Vblast.
p9
Vhalf
p10
tp11
I1
s(Vmanaged
p12
Vfind
p13
tp14
I1
s(V,
p15
Vsharing
p16
tp17
I1
s(Vacute
p18
V;
p19
tp20
I1
s(Vlocal
p21
Vpeople.
p22
tp23
I1
s(Vgroup
p24
Vgot
p25
tp26
I1
s(g16
Vothers.
p27
tp28
I1
s(Vmissed
p29
Vnight
p30
tp31
I1
s(g13
Vroom
p32
tp33
I1
s(Vgreat
p34
Vconversation
p35
tp36
I1
s(Vdifferent
p37
g21
tp38
I1
s(g10
g24
tp39
I1
s(Vback
p40
g15
tp41
I1
s(g22
V&
p42
tp43
I1
s(Vtables
p44
g40
tp45
I1
s(g15
g12
tp46
I1
s(g42
g18
tp47
I1
s(Vlong
p48
g44
tp49
I1
s(g35
g37
tp50
I1
s(Vsix
p51
g15
tp52
I1
s(g19
g29
tp53
I1
s(g32
Vone
p54
tp55
I1
s(Vgroup
p56
g51
tp57
I1
s(g25
g34
tp58
I1
s(g54
g48
tp59
I1
s(g30
V.
p60
tp61
I1
s(g27
g9
tp62
I1
stp63
Rp64
sS'rev_unigrams'
p65
(lp66
g56
ag51
ag15
ag12
ag13
ag32
ag54
ag48
ag44
ag40
ag15
ag16
ag27
ag9
ag10
ag24
ag25
ag34
ag35
ag37
ag21
ag22
ag42
ag18
ag19
ag29
ag30
ag60
asVid
p67
V288
p68
sVtaObject
p69
VBrouwerij 't IJ
p70
sVtitle
p71
Vfriendly, fun with many brews to choose from
p72
sS'unigram_counts'
p73
g7
((dp74
g16
I1
sg12
I1
sg18
I1
sg34
I1
sg40
I1
sg54
I1
sg10
I1
sg27
I1
sg13
I1
sg32
I1
sg44
I1
sg37
I1
sg56
I2
sg29
I1
sg42
I1
sg22
I1
sg51
I1
sg15
I2
sg48
I1
sg60
I1
sg35
I1
sg9
I1
sg30
I1
sg25
I1
sg19
I1
sg21
I1
stp75
Rp76
sS'rev_bigrams'
p77
(lp78
g57
ag52
ag46
ag14
ag33
ag55
ag59
ag49
ag45
ag41
ag17
ag28
ag62
ag11
ag39
ag26
ag58
ag36
ag50
ag38
ag23
ag43
ag47
ag20
ag53
ag31
ag61
asS'pos_count'
p79
ccollections
defaultdict
p80
(c__builtin__
int
p81
tp82
Rp83
V:
p84
I1
sVNN
p85
I111
sVFW
p86
I16
sVCC
p87
I1
sg15
I29
sVSYM
p88
I9
sVPOS
p89
I19
sV''
p90
I37
sVLS
p91
I4
sVVBZ
p92
I1
sVDT
p93
I11
sg60
I4
sVNNS
p94
I1
ssS'rev_length'
p95
I236
sVusername
p96
V19822011
p97
sS'tagged_text'
p98
(lp99
(V[
p100
g86
tp101
a(Vu
p102
VFW
p103
tp104
a(V'
p105
g89
tp106
a(Vg
p107
g85
tp108
a(Vr
p109
VNN
p110
tp111
a(Vo
p112
VNN
p113
tp114
a(g102
VNN
p115
tp116
a(Vp
p117
VNN
p118
tp119
a(g105
g90
tp120
a(g15
g15
tp121
a(g102
VNN
p122
tp123
a(g105
VPOS
p124
tp125
a(Vs
p126
VNN
p127
tp128
a(Vi
p129
VFW
p130
tp131
a(Vx
p132
VNN
p133
tp134
a(g105
V''
p135
tp136
a(g15
g15
tp137
a(g102
VNN
p138
tp139
a(g105
V''
p140
tp141
a(g15
g15
tp142
a(g105
V''
p143
tp144
a(g15
g15
tp145
a(g102
VNN
p146
tp147
a(g105
V''
p148
tp149
a(Vm
p150
VNN
p151
tp152
a(Va
p153
g93
tp154
a(Vn
p155
VNN
p156
tp157
a(g153
VDT
p158
tp159
a(g107
VNN
p160
tp161
a(Ve
p162
g88
tp163
a(Vd
p164
VFW
p165
tp166
a(g105
V''
p167
tp168
a(g15
g15
tp169
a(g102
VNN
p170
tp171
a(g105
V''
p172
tp173
a(Vf
p174
VFW
p175
tp176
a(g129
VFW
p177
tp178
a(g155
VNN
p179
tp180
a(g164
VNN
p181
tp182
a(g105
V''
p183
tp184
a(g15
g15
tp185
a(g102
VNN
p186
tp187
a(g105
VPOS
p188
tp189
a(g109
VNN
p190
tp191
a(g112
VNN
p192
tp193
a(g112
VNN
p194
tp195
a(g150
VNN
p196
tp197
a(g105
V''
p198
tp199
a(g15
g15
tp200
a(g102
VNN
p201
tp202
a(g105
VPOS
p203
tp204
a(g112
VNN
p205
tp206
a(g155
VNN
p207
tp208
a(g162
VSYM
p209
tp210
a(g105
V''
p211
tp212
a(g15
g15
tp213
a(g102
VNN
p214
tp215
a(g105
VPOS
p216
tp217
a(Vl
p218
VNN
p219
tp220
a(g112
VNN
p221
tp222
a(g155
VNN
p223
tp224
a(g107
VNN
p225
tp226
a(g105
V''
p227
tp228
a(g15
g15
tp229
a(g102
VNN
p230
tp231
a(g105
VPOS
p232
tp233
a(Vt
p234
VNN
p235
tp236
a(g153
VDT
p237
tp238
a(Vb
p239
VNN
p240
tp241
a(g218
VNN
p242
tp243
a(g162
VSYM
p244
tp245
a(g126
g94
tp246
a(g105
VPOS
p247
tp248
a(g15
g15
tp249
a(g102
VNN
p250
tp251
a(g105
VPOS
p252
tp253
a(g239
VNN
p254
tp255
a(g153
VDT
p256
tp257
a(Vc
p258
VNN
p259
tp260
a(Vk
p261
VNN
p262
tp263
a(g105
V''
p264
tp265
a(g15
g15
tp266
a(g102
VNN
p267
tp268
a(g105
V''
p269
tp270
a(g15
g15
tp271
a(g105
V''
p272
tp273
a(g15
g15
tp274
a(g102
VNN
p275
tp276
a(g105
VPOS
p277
tp278
a(g126
VNN
p279
tp280
a(Vh
p281
VNN
p282
tp283
a(g153
VDT
p284
tp285
a(g109
VNN
p286
tp287
a(g129
VFW
p288
tp289
a(g155
VNN
p290
tp291
a(g107
VNN
p292
tp293
a(g105
V''
p294
tp295
a(g15
g15
tp296
a(g102
VNN
p297
tp298
a(g105
VPOS
p299
tp300
a(g112
VNN
p301
tp302
a(g234
VNN
p303
tp304
a(g281
VNN
p305
tp306
a(g162
VSYM
p307
tp308
a(g109
VNN
p309
tp310
a(g126
VNN
p311
tp312
a(g60
g60
tp313
a(g105
V''
p314
tp315
a(g15
g15
tp316
a(g102
VNN
p317
tp318
a(g105
VPOS
p319
tp320
a(g239
VNN
p321
tp322
a(g218
VNN
p323
tp324
a(g153
VDT
p325
tp326
a(g126
VNN
p327
tp328
a(g234
VNN
p329
tp330
a(g60
g60
tp331
a(g105
V''
p332
tp333
a(g15
g15
tp334
a(g102
VNN
p335
tp336
a(g105
V''
p337
tp338
a(g281
VNN
p339
tp340
a(g153
VDT
p341
tp342
a(g218
VNN
p343
tp344
a(g174
VFW
p345
tp346
a(g105
V''
p347
tp348
a(g15
g15
tp349
a(g102
VNN
p350
tp351
a(g105
VPOS
p352
tp353
a(g107
VNN
p354
tp355
a(g109
VNN
p356
tp357
a(g112
VNN
p358
tp359
a(g102
VNN
p360
tp361
a(g117
VNN
p362
tp363
a(g105
V''
p364
tp365
a(g15
g15
tp366
a(g102
VNN
p367
tp368
a(g105
VPOS
p369
tp370
a(g107
VNN
p371
tp372
a(g112
VNN
p373
tp374
a(g234
VNN
p375
tp376
a(g105
V''
p377
tp378
a(g15
g15
tp379
a(g102
VNN
p380
tp381
a(g105
VPOS
p382
tp383
a(g107
VNN
p384
tp385
a(g109
VNN
p386
tp387
a(g162
VSYM
p388
tp389
a(g153
VDT
p390
tp391
a(g234
VNN
p392
tp393
a(g105
V''
p394
tp395
a(g15
g15
tp396
a(g102
VNN
p397
tp398
a(g105
VPOS
p399
tp400
a(g258
VNN
p401
tp402
a(g112
VNN
p403
tp404
a(g155
VNN
p405
tp406
a(Vv
p407
g91
tp408
a(g162
VLS
p409
tp410
a(g109
VNN
p411
tp412
a(g126
g92
tp413
a(g153
VDT
p414
tp415
a(g234
VNN
p416
tp417
a(g129
VFW
p418
tp419
a(g112
VNN
p420
tp421
a(g155
VNN
p422
tp423
a(g105
V''
p424
tp425
a(g15
g15
tp426
a(g102
VNN
p427
tp428
a(g105
V''
p429
tp430
a(g164
VFW
p431
tp432
a(g129
VFW
p433
tp434
a(g174
VFW
p435
tp436
a(g174
VFW
p437
tp438
a(g162
VLS
p439
tp440
a(g109
VNN
p441
tp442
a(g162
VSYM
p443
tp444
a(g155
VNN
p445
tp446
a(g234
VNN
p447
tp448
a(g105
V''
p449
tp450
a(g15
g15
tp451
a(g102
VNN
p452
tp453
a(g105
VPOS
p454
tp455
a(g218
VNN
p456
tp457
a(g112
VNN
p458
tp459
a(g258
VNN
p460
tp461
a(g153
VDT
p462
tp463
a(g218
VNN
p464
tp465
a(g105
V''
p466
tp467
a(g15
g15
tp468
a(g102
VNN
p469
tp470
a(g105
VPOS
p471
tp472
a(g117
VNN
p473
tp474
a(g162
VSYM
p475
tp476
a(g112
VNN
p477
tp478
a(g117
VNN
p479
tp480
a(g218
VNN
p481
tp482
a(g162
VLS
p483
tp484
a(g60
g60
tp485
a(g105
V''
p486
tp487
a(g15
g15
tp488
a(g102
VNN
p489
tp490
a(g105
V''
p491
tp492
a(g42
g87
tp493
a(g105
V''
p494
tp495
a(g15
g15
tp496
a(g102
VNN
p497
tp498
a(g105
V''
p499
tp500
a(g153
VDT
p501
tp502
a(g258
VNN
p503
tp504
a(g102
VNN
p505
tp506
a(g234
VNN
p507
tp508
a(g162
VSYM
p509
tp510
a(g105
V''
p511
tp512
a(g15
g15
tp513
a(g102
VNN
p514
tp515
a(g105
V''
p516
tp517
a(g19
g84
tp518
a(g105
V''
p519
tp520
a(g15
g15
tp521
a(g102
VNN
p522
tp523
a(g105
VPOS
p524
tp525
a(g150
VNN
p526
tp527
a(g129
VFW
p528
tp529
a(g126
VNN
p530
tp531
a(g126
VNN
p532
tp533
a(g162
VSYM
p534
tp535
a(g164
VFW
p536
tp537
a(g105
V''
p538
tp539
a(g15
g15
tp540
a(g102
VNN
p541
tp542
a(g105
VPOS
p543
tp544
a(g155
VNN
p545
tp546
a(g129
VFW
p547
tp548
a(g107
VNN
p549
tp550
a(g281
VNN
p551
tp552
a(g234
VNN
p553
tp554
a(g105
V''
p555
tp556
a(g15
g15
tp557
a(g102
VNN
p558
tp559
a(g105
V''
p560
tp561
a(g60
g60
tp562
a(g105
V''
p563
tp564
a(V]
p565
VNN
p566
tp567
asS'tagged_title'
p568
(lp569
(g100
VFW
p570
tp571
a(g102
VFW
p572
tp573
a(g105
V''
p574
tp575
a(g174
VLS
p576
tp577
a(g109
VNN
p578
tp579
a(g129
VFW
p580
tp581
a(g162
VLS
p582
tp583
a(g155
VNN
p584
tp585
a(g164
VNN
p586
tp587
a(g218
VNN
p588
tp589
a(Vy
p590
VNN
p591
tp592
a(g105
V''
p593
tp594
a(g15
g15
tp595
a(g102
VNN
p596
tp597
a(g105
V''
p598
tp599
a(g15
g15
tp600
a(g105
V''
p601
tp602
a(g15
g15
tp603
a(g102
VNN
p604
tp605
a(g105
V''
p606
tp607
a(g174
VFW
p608
tp609
a(g102
VFW
p610
tp611
a(g155
VNN
p612
tp613
a(g105
V''
p614
tp615
a(g15
g15
tp616
a(g102
VNN
p617
tp618
a(g105
V''
p619
tp620
a(Vw
p621
VFW
p622
tp623
a(g129
VFW
p624
tp625
a(g234
VNN
p626
tp627
a(g281
VNN
p628
tp629
a(g105
V''
p630
tp631
a(g15
g15
tp632
a(g102
VNN
p633
tp634
a(g105
V''
p635
tp636
a(g150
VNN
p637
tp638
a(g153
VDT
p639
tp640
a(g155
VNN
p641
tp642
a(g590
VNN
p643
tp644
a(g105
V''
p645
tp646
a(g15
g15
tp647
a(g102
VNN
p648
tp649
a(g105
VPOS
p650
tp651
a(g239
VNN
p652
tp653
a(g109
VNN
p654
tp655
a(g162
VSYM
p656
tp657
a(g621
VNN
p658
tp659
a(g126
VNN
p660
tp661
a(g105
V''
p662
tp663
a(g15
g15
tp664
a(g102
VNN
p665
tp666
a(g105
VPOS
p667
tp668
a(g234
VNN
p669
tp670
a(g112
VNN
p671
tp672
a(g105
V''
p673
tp674
a(g15
g15
tp675
a(g102
VNN
p676
tp677
a(g105
VPOS
p678
tp679
a(g258
VNN
p680
tp681
a(g281
VNN
p682
tp683
a(g112
VNN
p684
tp685
a(g112
VNN
p686
tp687
a(g126
VVBZ
p688
tp689
a(g162
VLS
p690
tp691
a(g105
V''
p692
tp693
a(g15
g15
tp694
a(g102
VNN
p695
tp696
a(g105
V''
p697
tp698
a(g174
VLS
p699
tp700
a(g109
VNN
p701
tp702
a(g112
VNN
p703
tp704
a(g150
VNN
p705
tp706
a(g105
V''
p707
tp708
a(g565
VNN
p709
tp710
asVtotal_points
p711
V100
p712
sVdate
p713
V3/8/2011
p714
sVtaObjectUrl
p715
Vhttp://www.tripadvisor.com/Attraction_Review-g188590-d591008-Reviews-Brouwerij_t_IJ-Amsterdam_North_Holland_Province.html
p716
sVtype
p717
VAttractions
p718
sS'pos_unigram'
p719
(lp720
g86
ag103
ag89
ag85
ag110
ag113
ag115
ag118
ag90
ag15
ag122
ag124
ag127
ag130
ag133
ag135
ag15
ag138
ag140
ag15
ag143
ag15
ag146
ag148
ag151
ag93
ag156
ag158
ag160
ag88
ag165
ag167
ag15
ag170
ag172
ag175
ag177
ag179
ag181
ag183
ag15
ag186
ag188
ag190
ag192
ag194
ag196
ag198
ag15
ag201
ag203
ag205
ag207
ag209
ag211
ag15
ag214
ag216
ag219
ag221
ag223
ag225
ag227
ag15
ag230
ag232
ag235
ag237
ag240
ag242
ag244
ag94
ag247
ag15
ag250
ag252
ag254
ag256
ag259
ag262
ag264
ag15
ag267
ag269
ag15
ag272
ag15
ag275
ag277
ag279
ag282
ag284
ag286
ag288
ag290
ag292
ag294
ag15
ag297
ag299
ag301
ag303
ag305
ag307
ag309
ag311
ag60
ag314
ag15
ag317
ag319
ag321
ag323
ag325
ag327
ag329
ag60
ag332
ag15
ag335
ag337
ag339
ag341
ag343
ag345
ag347
ag15
ag350
ag352
ag354
ag356
ag358
ag360
ag362
ag364
ag15
ag367
ag369
ag371
ag373
ag375
ag377
ag15
ag380
ag382
ag384
ag386
ag388
ag390
ag392
ag394
ag15
ag397
ag399
ag401
ag403
ag405
ag91
ag409
ag411
ag92
ag414
ag416
ag418
ag420
ag422
ag424
ag15
ag427
ag429
ag431
ag433
ag435
ag437
ag439
ag441
ag443
ag445
ag447
ag449
ag15
ag452
ag454
ag456
ag458
ag460
ag462
ag464
ag466
ag15
ag469
ag471
ag473
ag475
ag477
ag479
ag481
ag483
ag60
ag486
ag15
ag489
ag491
ag87
ag494
ag15
ag497
ag499
ag501
ag503
ag505
ag507
ag509
ag511
ag15
ag514
ag516
ag84
ag519
ag15
ag522
ag524
ag526
ag528
ag530
ag532
ag534
ag536
ag538
ag15
ag541
ag543
ag545
ag547
ag549
ag551
ag553
ag555
ag15
ag558
ag560
ag60
ag563
ag566
asVhelpfulness
p721
V0
p722
sVtaObjectCity
p723
VAmsterdam
p724
s.(dp0
Vrating
p1
V3
p2
sVtext
p3
Vthis is truely a 2 star hotel. very basic with no frills. but clean and the beds were comfortable. the location is not near most attractions so that may or may not be appealing. we ate at two cafes on the same block and both had good food.
p4
sS'title_length'
p5
I239
sS'bigram_counts'
p6
ccollections
Counter
p7
((dp8
(Vcafes
p9
Vblock
p10
tp11
I1
s(Vate
p12
Vtwo
p13
tp14
I1
s(Vattractions
p15
Vmay
p16
tp17
I1
s(Vmay
p18
Vappealing.
p19
tp20
I1
s(g19
g12
tp21
I1
s(Vhotel.
p22
Vbasic
p23
tp24
I1
s(Vfrills.
p25
Vclean
p26
tp27
I1
s(Vnear
p28
g15
tp29
I1
s(Vstar
p30
g22
tp31
I1
s(Vbeds
p32
Vcomfortable.
p33
tp34
I1
s(Vlocation
p35
g28
tp36
I1
s(Vfood
p37
V.
p38
tp39
I1
s(Vtruely
p40
V2
p41
tp42
I1
s(g23
g25
tp43
I1
s(g10
Vgood
p44
tp45
I1
s(g41
g30
tp46
I1
s(g26
g32
tp47
I1
s(g44
g37
tp48
I1
s(g16
g18
tp49
I1
s(g33
g35
tp50
I1
s(g13
g9
tp51
I1
stp52
Rp53
sS'rev_unigrams'
p54
(lp55
g40
ag41
ag30
ag22
ag23
ag25
ag26
ag32
ag33
ag35
ag28
ag15
ag16
ag18
ag19
ag12
ag13
ag9
ag10
ag44
ag37
ag38
asVid
p56
V289
p57
sVtaObject
p58
VComfort Hotel Lamarck
p59
sVtitle
p60
Vbasic but clean
p61
sS'unigram_counts'
p62
g7
((dp63
g22
I1
sg44
I1
sg30
I1
sg37
I1
sg15
I1
sg40
I1
sg19
I1
sg12
I1
sg25
I1
sg9
I1
sg13
I1
sg33
I1
sg38
I1
sg32
I1
sg16
I2
sg28
I1
sg41
I1
sg35
I1
sg26
I1
sg23
I1
sg10
I1
stp64
Rp65
sS'rev_bigrams'
p66
(lp67
g42
ag46
ag31
ag24
ag43
ag27
ag47
ag34
ag50
ag36
ag29
ag17
ag49
ag20
ag21
ag14
ag51
ag11
ag45
ag48
ag39
asS'pos_count'
p68
ccollections
defaultdict
p69
(c__builtin__
int
p70
tp71
Rp72
VNN
p73
I97
sVFW
p74
I10
sV,
p75
I21
sVSYM
p76
I7
sVPOS
p77
I13
sV''
p78
I31
sg38
I5
sVLS
p79
I4
sVDT
p80
I13
sVCD
p81
I1
sVNNS
p82
I1
ssS'rev_length'
p83
I239
sVusername
p84
V19822011
p85
sS'tagged_text'
p86
(lp87
(V[
p88
g74
tp89
a(Vu
p90
VFW
p91
tp92
a(V'
p93
g77
tp94
a(Vt
p95
g73
tp96
a(Vr
p97
VNN
p98
tp99
a(g90
VNN
p100
tp101
a(Ve
p102
g76
tp103
a(Vl
p104
VNN
p105
tp106
a(Vy
p107
VNN
p108
tp109
a(g93
g78
tp110
a(g75
g75
tp111
a(g90
VNN
p112
tp113
a(g93
V''
p114
tp115
a(g41
g81
tp116
a(g93
V''
p117
tp118
a(g75
g75
tp119
a(g90
VNN
p120
tp121
a(g93
VPOS
p122
tp123
a(Vs
p124
VNN
p125
tp126
a(g95
VNN
p127
tp128
a(Va
p129
g80
tp130
a(g97
VNN
p131
tp132
a(g93
V''
p133
tp134
a(g75
g75
tp135
a(g90
VNN
p136
tp137
a(g93
VPOS
p138
tp139
a(Vh
p140
VNN
p141
tp142
a(Vo
p143
VNN
p144
tp145
a(g95
VNN
p146
tp147
a(g102
VSYM
p148
tp149
a(g104
VNN
p150
tp151
a(g38
g38
tp152
a(g93
V''
p153
tp154
a(g75
g75
tp155
a(g90
VNN
p156
tp157
a(g93
V''
p158
tp159
a(Vb
p160
VNN
p161
tp162
a(g129
VDT
p163
tp164
a(g124
VNN
p165
tp166
a(Vi
p167
VFW
p168
tp169
a(Vc
p170
VNN
p171
tp172
a(g93
V''
p173
tp174
a(g75
g75
tp175
a(g90
VNN
p176
tp177
a(g93
V''
p178
tp179
a(Vf
p180
g79
tp181
a(g97
VNN
p182
tp183
a(g167
VFW
p184
tp185
a(g104
VNN
p186
tp187
a(g104
VNN
p188
tp189
a(g124
VNN
p190
tp191
a(g38
g38
tp192
a(g93
V''
p193
tp194
a(g75
g75
tp195
a(g90
VNN
p196
tp197
a(g93
VPOS
p198
tp199
a(g170
VNN
p200
tp201
a(g104
VNN
p202
tp203
a(g102
VSYM
p204
tp205
a(g129
VDT
p206
tp207
a(Vn
p208
VNN
p209
tp210
a(g93
V''
p211
tp212
a(g75
g75
tp213
a(g90
VNN
p214
tp215
a(g93
VPOS
p216
tp217
a(g160
VNN
p218
tp219
a(g102
VSYM
p220
tp221
a(Vd
p222
VNN
p223
tp224
a(g124
VNN
p225
tp226
a(g93
V''
p227
tp228
a(g75
g75
tp229
a(g90
VNN
p230
tp231
a(g93
VPOS
p232
tp233
a(g170
VNN
p234
tp235
a(g143
VNN
p236
tp237
a(Vm
p238
VNN
p239
tp240
a(g180
VFW
p241
tp242
a(g143
VNN
p243
tp244
a(g97
VNN
p245
tp246
a(g95
VNN
p247
tp248
a(g129
VDT
p249
tp250
a(g160
VNN
p251
tp252
a(g104
VNN
p253
tp254
a(g102
VLS
p255
tp256
a(g38
g38
tp257
a(g93
V''
p258
tp259
a(g75
g75
tp260
a(g90
VNN
p261
tp262
a(g93
VPOS
p263
tp264
a(g104
VNN
p265
tp266
a(g143
VNN
p267
tp268
a(g170
VNN
p269
tp270
a(g129
VDT
p271
tp272
a(g95
VNN
p273
tp274
a(g167
VFW
p275
tp276
a(g143
VNN
p277
tp278
a(g208
VNN
p279
tp280
a(g93
V''
p281
tp282
a(g75
g75
tp283
a(g90
VNN
p284
tp285
a(g93
VPOS
p286
tp287
a(g208
VNN
p288
tp289
a(g102
VSYM
p290
tp291
a(g129
VDT
p292
tp293
a(g97
VNN
p294
tp295
a(g93
V''
p296
tp297
a(g75
g75
tp298
a(g90
VNN
p299
tp300
a(g93
V''
p301
tp302
a(g129
VDT
p303
tp304
a(g95
VNN
p305
tp306
a(g95
VNN
p307
tp308
a(g97
VNN
p309
tp310
a(g129
VDT
p311
tp312
a(g170
VNN
p313
tp314
a(g95
VNN
p315
tp316
a(g167
VFW
p317
tp318
a(g143
VNN
p319
tp320
a(g208
VNN
p321
tp322
a(g124
VNN
p323
tp324
a(g93
V''
p325
tp326
a(g75
g75
tp327
a(g90
VNN
p328
tp329
a(g93
V''
p330
tp331
a(g238
VNN
p332
tp333
a(g129
VDT
p334
tp335
a(g107
VNN
p336
tp337
a(g93
V''
p338
tp339
a(g75
g75
tp340
a(g90
VNN
p341
tp342
a(g93
V''
p343
tp344
a(g238
VNN
p345
tp346
a(g129
VDT
p347
tp348
a(g107
VNN
p349
tp350
a(g93
V''
p351
tp352
a(g75
g75
tp353
a(g90
VNN
p354
tp355
a(g93
V''
p356
tp357
a(g129
VDT
p358
tp359
a(Vp
p360
VNN
p361
tp362
a(g360
VNN
p363
tp364
a(g102
VSYM
p365
tp366
a(g129
VDT
p367
tp368
a(g104
VNN
p369
tp370
a(g167
VFW
p371
tp372
a(g208
VNN
p373
tp374
a(Vg
p375
VNN
p376
tp377
a(g38
g38
tp378
a(g93
V''
p379
tp380
a(g75
g75
tp381
a(g90
VNN
p382
tp383
a(g93
V''
p384
tp385
a(g129
VDT
p386
tp387
a(g95
VNN
p388
tp389
a(g102
VSYM
p390
tp391
a(g93
V''
p392
tp393
a(g75
g75
tp394
a(g90
VNN
p395
tp396
a(g93
VPOS
p397
tp398
a(g95
VNN
p399
tp400
a(Vw
p401
VNN
p402
tp403
a(g143
VNN
p404
tp405
a(g93
V''
p406
tp407
a(g75
g75
tp408
a(g90
VNN
p409
tp410
a(g93
VPOS
p411
tp412
a(g170
VNN
p413
tp414
a(g129
VFW
p415
tp416
a(g180
VFW
p417
tp418
a(g102
VLS
p419
tp420
a(g124
g82
tp421
a(g93
VPOS
p422
tp423
a(g75
g75
tp424
a(g90
VNN
p425
tp426
a(g93
VPOS
p427
tp428
a(g160
VNN
p429
tp430
a(g104
VNN
p431
tp432
a(g143
VNN
p433
tp434
a(g170
VNN
p435
tp436
a(Vk
p437
VNN
p438
tp439
a(g93
V''
p440
tp441
a(g75
g75
tp442
a(g90
VNN
p443
tp444
a(g93
VPOS
p445
tp446
a(g375
VNN
p447
tp448
a(g143
VNN
p449
tp450
a(g143
VNN
p451
tp452
a(g222
VNN
p453
tp454
a(g93
V''
p455
tp456
a(g75
g75
tp457
a(g90
VNN
p458
tp459
a(g93
V''
p460
tp461
a(g180
VLS
p462
tp463
a(g143
VNN
p464
tp465
a(g143
VNN
p466
tp467
a(g222
VNN
p468
tp469
a(g93
V''
p470
tp471
a(g75
g75
tp472
a(g90
VNN
p473
tp474
a(g93
V''
p475
tp476
a(g38
g38
tp477
a(g93
V''
p478
tp479
a(V]
p480
VNN
p481
tp482
asS'tagged_title'
p483
(lp484
(g88
VFW
p485
tp486
a(g90
VFW
p487
tp488
a(g93
VPOS
p489
tp490
a(g160
VNN
p491
tp492
a(g129
VDT
p493
tp494
a(g124
VNN
p495
tp496
a(g167
VFW
p497
tp498
a(g170
VNN
p499
tp500
a(g93
V''
p501
tp502
a(g75
g75
tp503
a(g90
VNN
p504
tp505
a(g93
VPOS
p506
tp507
a(g160
VNN
p508
tp509
a(g90
VNN
p510
tp511
a(g95
VNN
p512
tp513
a(g93
V''
p514
tp515
a(g75
g75
tp516
a(g90
VNN
p517
tp518
a(g93
VPOS
p519
tp520
a(g170
VNN
p521
tp522
a(g104
VNN
p523
tp524
a(g102
VSYM
p525
tp526
a(g129
VDT
p527
tp528
a(g208
VNN
p529
tp530
a(g93
VPOS
p531
tp532
a(g480
VNN
p533
tp534
asVtotal_points
p535
V100
p536
sVdate
p537
V3/8/2011
p538
sVtaObjectUrl
p539
Vhttp://www.tripadvisor.com/Hotel_Review-g187147-d269116-Reviews-Comfort_Hotel_Lamarck-Paris_Ile_de_France.html
p540
sVtype
p541
VHotels
p542
sS'pos_unigram'
p543
(lp544
g74
ag91
ag77
ag73
ag98
ag100
ag76
ag105
ag108
ag78
ag75
ag112
ag114
ag81
ag117
ag75
ag120
ag122
ag125
ag127
ag80
ag131
ag133
ag75
ag136
ag138
ag141
ag144
ag146
ag148
ag150
ag38
ag153
ag75
ag156
ag158
ag161
ag163
ag165
ag168
ag171
ag173
ag75
ag176
ag178
ag79
ag182
ag184
ag186
ag188
ag190
ag38
ag193
ag75
ag196
ag198
ag200
ag202
ag204
ag206
ag209
ag211
ag75
ag214
ag216
ag218
ag220
ag223
ag225
ag227
ag75
ag230
ag232
ag234
ag236
ag239
ag241
ag243
ag245
ag247
ag249
ag251
ag253
ag255
ag38
ag258
ag75
ag261
ag263
ag265
ag267
ag269
ag271
ag273
ag275
ag277
ag279
ag281
ag75
ag284
ag286
ag288
ag290
ag292
ag294
ag296
ag75
ag299
ag301
ag303
ag305
ag307
ag309
ag311
ag313
ag315
ag317
ag319
ag321
ag323
ag325
ag75
ag328
ag330
ag332
ag334
ag336
ag338
ag75
ag341
ag343
ag345
ag347
ag349
ag351
ag75
ag354
ag356
ag358
ag361
ag363
ag365
ag367
ag369
ag371
ag373
ag376
ag38
ag379
ag75
ag382
ag384
ag386
ag388
ag390
ag392
ag75
ag395
ag397
ag399
ag402
ag404
ag406
ag75
ag409
ag411
ag413
ag415
ag417
ag419
ag82
ag422
ag75
ag425
ag427
ag429
ag431
ag433
ag435
ag438
ag440
ag75
ag443
ag445
ag447
ag449
ag451
ag453
ag455
ag75
ag458
ag460
ag462
ag464
ag466
ag468
ag470
ag75
ag473
ag475
ag38
ag478
ag481
asVhelpfulness
p545
V0
p546
sVtaObjectCity
p547
VParis
p548
s.(dp0
Vrating
p1
V3
p2
sVtext
p3
Vthis is a 2-star hotel but is clean, newly renovated rooms so all is fresh, and the location is easy access to all. staff are either business cordial or very friendly, depending on who happens to be working. the small bar is convenient for the night&acute;s lasts beer. watch out for the stairs...take the lift. as in all amsterdam staircases, this one is very steep.
p4
sS'title_length'
p5
I367
sS'bigram_counts'
p6
ccollections
Counter
p7
((dp8
(V2-star
p9
Vhotel
p10
tp11
I1
s(Vaccess
p12
Vall.
p13
tp14
I1
s(V,
p15
Vnewly
p16
tp17
I1
s(Vone
p18
Vsteep
p19
tp20
I1
s(Vstairs
p21
V...
p22
tp23
I1
s(g15
Vlocation
p24
tp25
I1
s(Vstaircases
p26
g15
tp27
I1
s(g22
Vtake
p28
tp29
I1
s(Vdepending
p30
Vhappens
p31
tp32
I1
s(Vbusiness
p33
Vcordial
p34
tp35
I1
s(Veasy
p36
g12
tp37
I1
s(Vconvenient
p38
Vnight
p39
tp40
I1
s(Vacute
p41
V;
p42
tp43
I1
s(g16
Vrenovated
p44
tp45
I1
s(g15
g30
tp46
I1
s(Vamsterdam
p47
g26
tp48
I1
s(g13
Vstaff
p49
tp50
I1
s(Veither
p51
g33
tp52
I1
s(Vwatch
p53
g21
tp54
I1
s(Vbeer.
p55
g53
tp56
I1
s(g28
Vlift.
p57
tp58
I1
s(Vrooms
p59
Vfresh
p60
tp61
I1
s(Vclean
p62
g15
tp63
I1
s(V&
p64
g41
tp65
I1
s(g57
g47
tp66
I1
s(g42
Vlasts
p67
tp68
I1
s(g10
g62
tp69
I1
s(Vsmall
p70
Vbar
p71
tp72
I1
s(g67
g55
tp73
I1
s(Vfriendly
p74
g15
tp75
I1
s(g71
g38
tp76
I1
s(g39
g64
tp77
I1
s(g24
g36
tp78
I1
s(g15
g18
tp79
I1
s(Vworking.
p80
g70
tp81
I1
s(g60
g15
tp82
I1
s(g19
V.
p83
tp84
I1
s(g31
g80
tp85
I1
s(g44
g59
tp86
I1
s(g34
g74
tp87
I1
s(g49
g51
tp88
I1
stp89
Rp90
sS'rev_unigrams'
p91
(lp92
g9
ag10
ag62
ag15
ag16
ag44
ag59
ag60
ag15
ag24
ag36
ag12
ag13
ag49
ag51
ag33
ag34
ag74
ag15
ag30
ag31
ag80
ag70
ag71
ag38
ag39
ag64
ag41
ag42
ag67
ag55
ag53
ag21
ag22
ag28
ag57
ag47
ag26
ag15
ag18
ag19
ag83
asVid
p93
V290
p94
sVtaObject
p95
VMax Brown Hotel Museum Square
p96
sVtitle
p97
Vclean, newly renovated
p98
sS'unigram_counts'
p99
g7
((dp100
g34
I1
sg80
I1
sg55
I1
sg18
I1
sg9
I1
sg59
I1
sg47
I1
sg49
I1
sg31
I1
sg44
I1
sg30
I1
sg38
I1
sg15
I4
sg83
I1
sg12
I1
sg24
I1
sg36
I1
sg16
I1
sg74
I1
sg28
I1
sg22
I1
sg33
I1
sg10
I1
sg53
I1
sg26
I1
sg67
I1
sg21
I1
sg42
I1
sg41
I1
sg71
I1
sg13
I1
sg64
I1
sg57
I1
sg51
I1
sg62
I1
sg39
I1
sg70
I1
sg60
I1
sg19
I1
stp101
Rp102
sS'rev_bigrams'
p103
(lp104
g11
ag69
ag63
ag17
ag45
ag86
ag61
ag82
ag25
ag78
ag37
ag14
ag50
ag88
ag52
ag35
ag87
ag75
ag46
ag32
ag85
ag81
ag72
ag76
ag40
ag77
ag65
ag43
ag68
ag73
ag56
ag54
ag23
ag29
ag58
ag66
ag48
ag27
ag79
ag20
ag84
asS'pos_count'
p105
ccollections
defaultdict
p106
(c__builtin__
int
p107
tp108
Rp109
VNN
p110
I169
sVFW
p111
I21
sVCC
p112
I1
sVPOS
p113
I22
sg15
I45
sVSYM
p114
I20
sVCD
p115
I1
sV''
p116
I62
sg83
I8
sVLS
p117
I11
sVVBZ
p118
I2
sVDT
p119
I19
sV:
p120
I2
sVNNS
p121
I1
ssS'rev_length'
p122
I367
sVusername
p123
V19822011
p124
sS'tagged_text'
p125
(lp126
(V[
p127
g111
tp128
a(Vu
p129
VFW
p130
tp131
a(V'
p132
g116
tp133
a(V2
p134
g115
tp135
a(V-
p136
g120
tp137
a(Vs
p138
g118
tp139
a(Vt
p140
g110
tp141
a(Va
p142
g119
tp143
a(Vr
p144
VNN
p145
tp146
a(g132
V''
p147
tp148
a(g15
g15
tp149
a(g129
VNN
p150
tp151
a(g132
g113
tp152
a(Vh
p153
VNN
p154
tp155
a(Vo
p156
VNN
p157
tp158
a(g140
VNN
p159
tp160
a(Ve
p161
g114
tp162
a(Vl
p163
VNN
p164
tp165
a(g132
V''
p166
tp167
a(g15
g15
tp168
a(g129
VNN
p169
tp170
a(g132
VPOS
p171
tp172
a(Vc
p173
VNN
p174
tp175
a(g163
VNN
p176
tp177
a(g161
VSYM
p178
tp179
a(g142
VDT
p180
tp181
a(Vn
p182
VNN
p183
tp184
a(g132
V''
p185
tp186
a(g15
g15
tp187
a(g129
VNN
p188
tp189
a(g132
V''
p190
tp191
a(g15
g15
tp192
a(g132
V''
p193
tp194
a(g15
g15
tp195
a(g129
VNN
p196
tp197
a(g132
VPOS
p198
tp199
a(g182
VNN
p200
tp201
a(g161
VSYM
p202
tp203
a(Vw
p204
VNN
p205
tp206
a(g163
VNN
p207
tp208
a(Vy
p209
VNN
p210
tp211
a(g132
V''
p212
tp213
a(g15
g15
tp214
a(g129
VNN
p215
tp216
a(g132
VPOS
p217
tp218
a(g144
VNN
p219
tp220
a(g161
VSYM
p221
tp222
a(g182
VNN
p223
tp224
a(g156
VNN
p225
tp226
a(Vv
p227
g117
tp228
a(g142
VDT
p229
tp230
a(g140
VNN
p231
tp232
a(g161
VSYM
p233
tp234
a(Vd
p235
VFW
p236
tp237
a(g132
V''
p238
tp239
a(g15
g15
tp240
a(g129
VNN
p241
tp242
a(g132
VPOS
p243
tp244
a(g144
VNN
p245
tp246
a(g156
VNN
p247
tp248
a(g156
VNN
p249
tp250
a(Vm
p251
VNN
p252
tp253
a(g138
VNN
p254
tp255
a(g132
V''
p256
tp257
a(g15
g15
tp258
a(g129
VNN
p259
tp260
a(g132
V''
p261
tp262
a(Vf
p263
VLS
p264
tp265
a(g144
VNN
p266
tp267
a(g161
VSYM
p268
tp269
a(g138
VNN
p270
tp271
a(g153
VNN
p272
tp273
a(g132
V''
p274
tp275
a(g15
g15
tp276
a(g129
VNN
p277
tp278
a(g132
V''
p279
tp280
a(g15
g15
tp281
a(g132
V''
p282
tp283
a(g15
g15
tp284
a(g129
VNN
p285
tp286
a(g132
VPOS
p287
tp288
a(g163
VNN
p289
tp290
a(g156
VNN
p291
tp292
a(g173
VNN
p293
tp294
a(g142
VDT
p295
tp296
a(g140
VNN
p297
tp298
a(Vi
p299
VFW
p300
tp301
a(g156
VNN
p302
tp303
a(g182
VNN
p304
tp305
a(g132
V''
p306
tp307
a(g15
g15
tp308
a(g129
VNN
p309
tp310
a(g132
V''
p311
tp312
a(g161
VLS
p313
tp314
a(g142
VDT
p315
tp316
a(g138
VNN
p317
tp318
a(g209
VNN
p319
tp320
a(g132
V''
p321
tp322
a(g15
g15
tp323
a(g129
VNN
p324
tp325
a(g132
V''
p326
tp327
a(g142
VDT
p328
tp329
a(g173
VNN
p330
tp331
a(g173
VNN
p332
tp333
a(g161
VSYM
p334
tp335
a(g138
VNN
p336
tp337
a(g138
VNN
p338
tp339
a(g132
V''
p340
tp341
a(g15
g15
tp342
a(g129
VNN
p343
tp344
a(g132
V''
p345
tp346
a(g142
VDT
p347
tp348
a(g163
VNN
p349
tp350
a(g163
VNN
p351
tp352
a(g83
g83
tp353
a(g132
V''
p354
tp355
a(g15
g15
tp356
a(g129
VNN
p357
tp358
a(g132
VPOS
p359
tp360
a(g138
VNN
p361
tp362
a(g140
VNN
p363
tp364
a(g142
VDT
p365
tp366
a(g263
VFW
p367
tp368
a(g263
VFW
p369
tp370
a(g132
V''
p371
tp372
a(g15
g15
tp373
a(g129
VNN
p374
tp375
a(g132
V''
p376
tp377
a(g161
VSYM
p378
tp379
a(g299
VFW
p380
tp381
a(g140
VNN
p382
tp383
a(g153
VNN
p384
tp385
a(g161
VSYM
p386
tp387
a(g144
VNN
p388
tp389
a(g132
V''
p390
tp391
a(g15
g15
tp392
a(g129
VNN
p393
tp394
a(g132
VPOS
p395
tp396
a(Vb
p397
VNN
p398
tp399
a(g129
VNN
p400
tp401
a(g138
VVBZ
p402
tp403
a(g299
VLS
p404
tp405
a(g182
VNN
p406
tp407
a(g161
VSYM
p408
tp409
a(g138
VNN
p410
tp411
a(g138
VNN
p412
tp413
a(g132
V''
p414
tp415
a(g15
g15
tp416
a(g129
VNN
p417
tp418
a(g132
VPOS
p419
tp420
a(g173
VNN
p421
tp422
a(g156
VNN
p423
tp424
a(g144
VNN
p425
tp426
a(g235
VFW
p427
tp428
a(g299
VFW
p429
tp430
a(g142
VDT
p431
tp432
a(g163
VNN
p433
tp434
a(g132
V''
p435
tp436
a(g15
g15
tp437
a(g129
VNN
p438
tp439
a(g132
V''
p440
tp441
a(g263
VLS
p442
tp443
a(g144
VNN
p444
tp445
a(g299
VFW
p446
tp447
a(g161
VLS
p448
tp449
a(g182
VNN
p450
tp451
a(g235
VNN
p452
tp453
a(g163
VNN
p454
tp455
a(g209
VNN
p456
tp457
a(g132
V''
p458
tp459
a(g15
g15
tp460
a(g129
VNN
p461
tp462
a(g132
V''
p463
tp464
a(g15
g15
tp465
a(g132
V''
p466
tp467
a(g15
g15
tp468
a(g129
VNN
p469
tp470
a(g132
VPOS
p471
tp472
a(g235
VNN
p473
tp474
a(g161
VSYM
p475
tp476
a(Vp
p477
VNN
p478
tp479
a(g161
VSYM
p480
tp481
a(g182
VNN
p482
tp483
a(g235
VFW
p484
tp485
a(g299
VFW
p486
tp487
a(g182
VNN
p488
tp489
a(Vg
p490
VNN
p491
tp492
a(g132
V''
p493
tp494
a(g15
g15
tp495
a(g129
VNN
p496
tp497
a(g132
V''
p498
tp499
a(g153
VNN
p500
tp501
a(g142
VDT
p502
tp503
a(g477
VNN
p504
tp505
a(g477
VNN
p506
tp507
a(g161
VSYM
p508
tp509
a(g182
VNN
p510
tp511
a(g138
VNN
p512
tp513
a(g132
V''
p514
tp515
a(g15
g15
tp516
a(g129
VNN
p517
tp518
a(g132
VPOS
p519
tp520
a(g204
VNN
p521
tp522
a(g156
VNN
p523
tp524
a(g144
VNN
p525
tp526
a(Vk
p527
VNN
p528
tp529
a(g299
VFW
p530
tp531
a(g182
VNN
p532
tp533
a(g490
VNN
p534
tp535
a(g83
g83
tp536
a(g132
V''
p537
tp538
a(g15
g15
tp539
a(g129
VNN
p540
tp541
a(g132
VPOS
p542
tp543
a(g138
VNN
p544
tp545
a(g251
VNN
p546
tp547
a(g142
VDT
p548
tp549
a(g163
VNN
p550
tp551
a(g163
VNN
p552
tp553
a(g132
V''
p554
tp555
a(g15
g15
tp556
a(g129
VNN
p557
tp558
a(g132
VPOS
p559
tp560
a(g397
VNN
p561
tp562
a(g142
VDT
p563
tp564
a(g144
VNN
p565
tp566
a(g132
V''
p567
tp568
a(g15
g15
tp569
a(g129
VNN
p570
tp571
a(g132
VPOS
p572
tp573
a(g173
VNN
p574
tp575
a(g156
VNN
p576
tp577
a(g182
VNN
p578
tp579
a(g227
VLS
p580
tp581
a(g161
VLS
p582
tp583
a(g182
VNN
p584
tp585
a(g299
VFW
p586
tp587
a(g161
VLS
p588
tp589
a(g182
VNN
p590
tp591
a(g140
VNN
p592
tp593
a(g132
V''
p594
tp595
a(g15
g15
tp596
a(g129
VNN
p597
tp598
a(g132
VPOS
p599
tp600
a(g182
VNN
p601
tp602
a(g299
VFW
p603
tp604
a(g490
VNN
p605
tp606
a(g153
VNN
p607
tp608
a(g140
VNN
p609
tp610
a(g132
V''
p611
tp612
a(g15
g15
tp613
a(g129
VNN
p614
tp615
a(g132
V''
p616
tp617
a(g64
g112
tp618
a(g132
V''
p619
tp620
a(g15
g15
tp621
a(g129
VNN
p622
tp623
a(g132
V''
p624
tp625
a(g142
VDT
p626
tp627
a(g173
VNN
p628
tp629
a(g129
VNN
p630
tp631
a(g140
VNN
p632
tp633
a(g161
VSYM
p634
tp635
a(g132
V''
p636
tp637
a(g15
g15
tp638
a(g129
VNN
p639
tp640
a(g132
V''
p641
tp642
a(g42
g120
tp643
a(g132
V''
p644
tp645
a(g15
g15
tp646
a(g129
VNN
p647
tp648
a(g132
V''
p649
tp650
a(g163
VNN
p651
tp652
a(g142
VDT
p653
tp654
a(g138
VNN
p655
tp656
a(g140
VNN
p657
tp658
a(g138
VNN
p659
tp660
a(g132
V''
p661
tp662
a(g15
g15
tp663
a(g129
VNN
p664
tp665
a(g132
VPOS
p666
tp667
a(g397
VNN
p668
tp669
a(g161
VSYM
p670
tp671
a(g161
VLS
p672
tp673
a(g144
VNN
p674
tp675
a(g83
g83
tp676
a(g132
V''
p677
tp678
a(g15
g15
tp679
a(g129
VNN
p680
tp681
a(g132
V''
p682
tp683
a(g204
VNN
p684
tp685
a(g142
VDT
p686
tp687
a(g140
VNN
p688
tp689
a(g173
VNN
p690
tp691
a(g153
VNN
p692
tp693
a(g132
V''
p694
tp695
a(g15
g15
tp696
a(g129
VNN
p697
tp698
a(g132
VPOS
p699
tp700
a(g138
VNN
p701
tp702
a(g140
VNN
p703
tp704
a(g142
VFW
p705
tp706
a(g299
VFW
p707
tp708
a(g144
VNN
p709
tp710
a(g138
VNN
p711
tp712
a(g132
V''
p713
tp714
a(g15
g15
tp715
a(g129
VNN
p716
tp717
a(g132
V''
p718
tp719
a(g83
g83
tp720
a(g83
g83
tp721
a(g83
g83
tp722
a(g132
V''
p723
tp724
a(g15
g15
tp725
a(g129
VNN
p726
tp727
a(g132
VPOS
p728
tp729
a(g140
VNN
p730
tp731
a(g142
VDT
p732
tp733
a(g527
VNN
p734
tp735
a(g161
VSYM
p736
tp737
a(g132
V''
p738
tp739
a(g15
g15
tp740
a(g129
VNN
p741
tp742
a(g132
V''
p743
tp744
a(g163
VNN
p745
tp746
a(g299
VFW
p747
tp748
a(g263
VFW
p749
tp750
a(g140
VNN
p751
tp752
a(g83
g83
tp753
a(g132
V''
p754
tp755
a(g15
g15
tp756
a(g129
VNN
p757
tp758
a(g132
V''
p759
tp760
a(g142
VDT
p761
tp762
a(g251
VNN
p763
tp764
a(g138
VNN
p765
tp766
a(g140
VNN
p767
tp768
a(g161
VSYM
p769
tp770
a(g144
VNN
p771
tp772
a(g235
VNN
p773
tp774
a(g142
VDT
p775
tp776
a(g251
VNN
p777
tp778
a(g132
V''
p779
tp780
a(g15
g15
tp781
a(g129
VNN
p782
tp783
a(g132
VPOS
p784
tp785
a(g138
VNN
p786
tp787
a(g140
VNN
p788
tp789
a(g142
VFW
p790
tp791
a(g299
VFW
p792
tp793
a(g144
VNN
p794
tp795
a(g173
VNN
p796
tp797
a(g142
VDT
p798
tp799
a(g138
VNN
p800
tp801
a(g161
VSYM
p802
tp803
a(g138
g121
tp804
a(g132
VPOS
p805
tp806
a(g15
g15
tp807
a(g129
VNN
p808
tp809
a(g132
V''
p810
tp811
a(g15
g15
tp812
a(g132
V''
p813
tp814
a(g15
g15
tp815
a(g129
VNN
p816
tp817
a(g132
VPOS
p818
tp819
a(g156
VNN
p820
tp821
a(g182
VNN
p822
tp823
a(g161
VSYM
p824
tp825
a(g132
V''
p826
tp827
a(g15
g15
tp828
a(g129
VNN
p829
tp830
a(g132
VPOS
p831
tp832
a(g138
VNN
p833
tp834
a(g140
VNN
p835
tp836
a(g161
VSYM
p837
tp838
a(g161
VLS
p839
tp840
a(g477
VNN
p841
tp842
a(g132
V''
p843
tp844
a(g15
g15
tp845
a(g129
VNN
p846
tp847
a(g132
V''
p848
tp849
a(g83
g83
tp850
a(g132
V''
p851
tp852
a(V]
p853
VNN
p854
tp855
asS'tagged_title'
p856
(lp857
(g127
VFW
p858
tp859
a(g129
VFW
p860
tp861
a(g132
VPOS
p862
tp863
a(g173
VNN
p864
tp865
a(g163
VNN
p866
tp867
a(g161
VSYM
p868
tp869
a(g142
VDT
p870
tp871
a(g182
VNN
p872
tp873
a(g132
V''
p874
tp875
a(g15
g15
tp876
a(g129
VNN
p877
tp878
a(g132
V''
p879
tp880
a(g15
g15
tp881
a(g132
V''
p882
tp883
a(g15
g15
tp884
a(g129
VNN
p885
tp886
a(g132
VPOS
p887
tp888
a(g182
VNN
p889
tp890
a(g161
VSYM
p891
tp892
a(g204
VNN
p893
tp894
a(g163
VNN
p895
tp896
a(g209
VNN
p897
tp898
a(g132
V''
p899
tp900
a(g15
g15
tp901
a(g129
VNN
p902
tp903
a(g132
VPOS
p904
tp905
a(g144
VNN
p906
tp907
a(g161
VSYM
p908
tp909
a(g182
VNN
p910
tp911
a(g156
VNN
p912
tp913
a(g227
VLS
p914
tp915
a(g142
VDT
p916
tp917
a(g140
VNN
p918
tp919
a(g161
VSYM
p920
tp921
a(g235
VNN
p922
tp923
a(g132
V''
p924
tp925
a(g853
VNN
p926
tp927
asVtotal_points
p928
V101
p929
sVdate
p930
V3/7/2011
p931
sVtaObjectUrl
p932
Vhttp://www.tripadvisor.com/Hotel_Review-g188590-d238578-Reviews-Max_Brown_Hotel_Museum_Square-Amsterdam_North_Holland_Province.html
p933
sVtype
p934
VHotels
p935
sS'pos_unigram'
p936
(lp937
g111
ag130
ag116
ag115
ag120
ag118
ag110
ag119
ag145
ag147
ag15
ag150
ag113
ag154
ag157
ag159
ag114
ag164
ag166
ag15
ag169
ag171
ag174
ag176
ag178
ag180
ag183
ag185
ag15
ag188
ag190
ag15
ag193
ag15
ag196
ag198
ag200
ag202
ag205
ag207
ag210
ag212
ag15
ag215
ag217
ag219
ag221
ag223
ag225
ag117
ag229
ag231
ag233
ag236
ag238
ag15
ag241
ag243
ag245
ag247
ag249
ag252
ag254
ag256
ag15
ag259
ag261
ag264
ag266
ag268
ag270
ag272
ag274
ag15
ag277
ag279
ag15
ag282
ag15
ag285
ag287
ag289
ag291
ag293
ag295
ag297
ag300
ag302
ag304
ag306
ag15
ag309
ag311
ag313
ag315
ag317
ag319
ag321
ag15
ag324
ag326
ag328
ag330
ag332
ag334
ag336
ag338
ag340
ag15
ag343
ag345
ag347
ag349
ag351
ag83
ag354
ag15
ag357
ag359
ag361
ag363
ag365
ag367
ag369
ag371
ag15
ag374
ag376
ag378
ag380
ag382
ag384
ag386
ag388
ag390
ag15
ag393
ag395
ag398
ag400
ag402
ag404
ag406
ag408
ag410
ag412
ag414
ag15
ag417
ag419
ag421
ag423
ag425
ag427
ag429
ag431
ag433
ag435
ag15
ag438
ag440
ag442
ag444
ag446
ag448
ag450
ag452
ag454
ag456
ag458
ag15
ag461
ag463
ag15
ag466
ag15
ag469
ag471
ag473
ag475
ag478
ag480
ag482
ag484
ag486
ag488
ag491
ag493
ag15
ag496
ag498
ag500
ag502
ag504
ag506
ag508
ag510
ag512
ag514
ag15
ag517
ag519
ag521
ag523
ag525
ag528
ag530
ag532
ag534
ag83
ag537
ag15
ag540
ag542
ag544
ag546
ag548
ag550
ag552
ag554
ag15
ag557
ag559
ag561
ag563
ag565
ag567
ag15
ag570
ag572
ag574
ag576
ag578
ag580
ag582
ag584
ag586
ag588
ag590
ag592
ag594
ag15
ag597
ag599
ag601
ag603
ag605
ag607
ag609
ag611
ag15
ag614
ag616
ag112
ag619
ag15
ag622
ag624
ag626
ag628
ag630
ag632
ag634
ag636
ag15
ag639
ag641
ag120
ag644
ag15
ag647
ag649
ag651
ag653
ag655
ag657
ag659
ag661
ag15
ag664
ag666
ag668
ag670
ag672
ag674
ag83
ag677
ag15
ag680
ag682
ag684
ag686
ag688
ag690
ag692
ag694
ag15
ag697
ag699
ag701
ag703
ag705
ag707
ag709
ag711
ag713
ag15
ag716
ag718
ag83
ag83
ag83
ag723
ag15
ag726
ag728
ag730
ag732
ag734
ag736
ag738
ag15
ag741
ag743
ag745
ag747
ag749
ag751
ag83
ag754
ag15
ag757
ag759
ag761
ag763
ag765
ag767
ag769
ag771
ag773
ag775
ag777
ag779
ag15
ag782
ag784
ag786
ag788
ag790
ag792
ag794
ag796
ag798
ag800
ag802
ag121
ag805
ag15
ag808
ag810
ag15
ag813
ag15
ag816
ag818
ag820
ag822
ag824
ag826
ag15
ag829
ag831
ag833
ag835
ag837
ag839
ag841
ag843
ag15
ag846
ag848
ag83
ag851
ag854
asVhelpfulness
p938
V1
p939
sVtaObjectCity
p940
VAmsterdam
p941
s.