(dp0
Vrating
p1
V5
p2
sVtext
p3
VMy husband and I booked a 3 day package at Machan for a little R & R after trekking in the Everest region and the hustle and bustle of Kathmandu. It wasn&acute;t something we were particularly looking forward to - but it turned out to be a real highlight of out time in Nepal.\u000aThe jungle setting is isolated, and fantastic for wildlife viewing. We were lucky to see rhinos, deer, monkeys, snakes, tons of birds. No tiger spottings though! Accomodations are rustic but very comfortable. The swimming pool was a disappointment, it looked pretty scuzzy.\u000aThe included meals were decent. I enjoyed spending evenings around the bar after nightfall, chatting with other travellers and just listening to the crickets. Quite romantic at dusk - we actually got engaged here!\u000aThe activities included were great. Guests were divided into small groups and activities were printed on the blackboard in the meeting area. i particularly loved the elephant safari (we went twice), and getting "up close and personal" with the mum and baby elephants was delightful. The staff were friendly and enthusiastic if not 100% knowledgeable.
p4
sS'title_length'
p5
I1115
sS'bigram_counts'
p6
ccollections
Counter
p7
((dp8
(Vregion
p9
Vhustle
p10
tp11
I1
s(Vactivities
p12
Vprinted
p13
tp14
I1
s(Vaccomodations
p15
Vrustic
p16
tp17
I1
s(Velephants
p18
Vdelightful.
p19
tp20
I1
s(V)
p21
V,
p22
tp23
I1
s(Vengaged
p24
V!
p25
tp26
I1
s(Vacute
p27
V;
p28
tp29
I1
s(Vtwice
p30
g21
tp31
I1
s(Vromantic
p32
Vdusk
p33
tp34
I1
s(Vgreat.
p35
Vguests
p36
tp37
I1
s(Vblackboard
p38
Vmeeting
p39
tp40
I1
s(Vcrickets.
p41
Vquite
p42
tp43
I1
s(Vtrekking
p44
Veverest
p45
tp46
I1
s(Vthough
p47
g25
tp48
I1
s(Vtons
p49
Vbirds.
p50
tp51
I1
s(Varound
p52
Vbar
p53
tp54
I1
s(Vday
p55
Vpackage
p56
tp57
I1
s(Vcomfortable.
p58
Vswimming
p59
tp60
I1
s(Venjoyed
p61
Vspending
p62
tp63
I1
s(Vlooked
p64
Vpretty
p65
tp66
I1
s(Vreal
p67
Vhighlight
p68
tp69
I1
s(Vincluded
p70
Vmeals
p71
tp72
I1
s(Vbustle
p73
Vkathmandu.
p74
tp75
I1
s(Vgot
p76
g24
tp77
I1
s(Vparticularly
p78
Vlooking
p79
tp80
I1
s(g22
Vchatting
p81
tp82
I1
s(g50
Vtiger
p83
tp84
I1
s(Vlucky
p85
Vsee
p86
tp87
I1
s(V``
p88
Vclose
p89
tp90
I1
s(Vforward
p91
V-
p92
tp93
I1
s(Vsmall
p94
Vgroups
p95
tp96
I1
s(g59
Vpool
p97
tp98
I1
s(g10
g73
tp99
I1
s(g65
Vscuzzy.
p100
tp101
I1
s(g25
Vactivities
p102
tp103
I1
s(g102
Vincluded
p104
tp105
I1
s(V%
p106
Vknowledgeable
p107
tp108
I1
s(Vpersonal
p109
V''
p110
tp111
I1
s(g107
V.
p112
tp113
I1
s(g25
g15
tp114
I1
s(g81
Vtravellers
p115
tp116
I1
s(Vspottings
p117
g47
tp118
I1
s(g92
Vactually
p119
tp120
I1
s(g22
Vsnakes
p121
tp122
I1
s(g39
Varea.
p123
tp124
I1
s(V3
p125
g55
tp126
I1
s(Vmachan
p127
Vlittle
p128
tp129
I1
s(Vfantastic
p130
Vwildlife
p131
tp132
I1
s(g16
g58
tp133
I1
s(g68
Vtime
p134
tp135
I1
s(Vhusband
p136
Vbooked
p137
tp138
I1
s(g22
g130
tp139
I1
s(g13
g38
tp140
I1
s(Vr
p141
V&
p142
tp143
I1
s(Velephant
p144
Vsafari
p145
tp146
I1
s(Vfriendly
p147
Venthusiastic
p148
tp149
I1
s(g45
g9
tp150
I1
s(g145
V(
p151
tp152
I1
s(g22
Vgetting
p153
tp154
I1
s(Vwent
p155
g30
tp156
I1
s(g22
g49
tp157
I1
s(g95
g12
tp158
I1
s(g42
g32
tp159
I1
s(g86
Vrhinos
p160
tp161
I1
s(g89
g109
tp162
I1
s(Vjungle
p163
Vsetting
p164
tp165
I1
s(g22
Vmonkeys
p166
tp167
I1
s(Vdecent.
p168
g61
tp169
I1
s(Visolated
p170
g22
tp171
I1
s(g62
Vevenings
p172
tp173
I1
s(g137
g125
tp174
I1
s(Vlistening
p175
g41
tp176
I1
s(Vviewing.
p177
g85
tp178
I1
s(g36
Vdivided
p179
tp180
I1
s(g134
Vnepal.
p181
tp182
I1
s(g164
g170
tp183
I1
s(g92
Vturned
p184
tp185
I1
s(g74
g142
tp186
I1
s(Vstaff
p187
g147
tp188
I1
s(Vbaby
p189
g18
tp190
I1
s(g184
g67
tp191
I1
s(g33
g92
tp192
I1
s(g142
g27
tp193
I1
s(g142
g141
tp194
I1
s(Vmum
p195
g189
tp196
I1
s(Vnightfall
p197
g22
tp198
I1
s(g166
g22
tp199
I1
s(g148
V100
p200
tp201
I1
s(g83
g117
tp202
I1
s(g19
g187
tp203
I1
s(g179
g94
tp204
I1
s(g153
g88
tp205
I1
s(g151
g155
tp206
I1
s(g22
Vdeer
p207
tp208
I1
s(g172
g52
tp209
I1
s(g97
Vdisappointment
p210
tp211
I1
s(Vloved
p212
g144
tp213
I1
s(g207
g22
tp214
I1
s(Vsomething
p215
g78
tp216
I1
s(g131
g177
tp217
I1
s(g53
g197
tp218
I1
s(g128
g141
tp219
I1
s(g79
g91
tp220
I1
s(Vparticularly
p221
g212
tp222
I1
s(g210
g22
tp223
I1
s(g160
g22
tp224
I1
s(g100
g70
tp225
I1
s(g28
g215
tp226
I1
s(g104
g35
tp227
I1
s(g115
g175
tp228
I1
s(g181
g163
tp229
I1
s(g56
g127
tp230
I1
s(g121
g22
tp231
I1
s(g22
g64
tp232
I1
s(g123
g221
tp233
I1
s(g119
g76
tp234
I1
s(g200
g106
tp235
I1
s(g141
g44
tp236
I1
s(g71
g168
tp237
I1
s(g110
g195
tp238
I1
stp239
Rp240
sS'rev_unigrams'
p241
(lp242
g136
ag137
ag125
ag55
ag56
ag127
ag128
ag141
ag142
ag141
ag44
ag45
ag9
ag10
ag73
ag74
ag142
ag27
ag28
ag215
ag78
ag79
ag91
ag92
ag184
ag67
ag68
ag134
ag181
ag163
ag164
ag170
ag22
ag130
ag131
ag177
ag85
ag86
ag160
ag22
ag207
ag22
ag166
ag22
ag121
ag22
ag49
ag50
ag83
ag117
ag47
ag25
ag15
ag16
ag58
ag59
ag97
ag210
ag22
ag64
ag65
ag100
ag70
ag71
ag168
ag61
ag62
ag172
ag52
ag53
ag197
ag22
ag81
ag115
ag175
ag41
ag42
ag32
ag33
ag92
ag119
ag76
ag24
ag25
ag102
ag104
ag35
ag36
ag179
ag94
ag95
ag12
ag13
ag38
ag39
ag123
ag221
ag212
ag144
ag145
ag151
ag155
ag30
ag21
ag22
ag153
ag88
ag89
ag109
ag110
ag195
ag189
ag18
ag19
ag187
ag147
ag148
ag200
ag106
ag107
ag112
asVid
p243
V16359
p244
sVtaObject
p245
VMachan Wildlife Resort
p246
sVtitle
p247
VA great time
p248
sS'unigram_counts'
p249
g7
((dp250
g137
I1
sg123
I1
sg78
I2
sg175
I1
sg107
I1
sg160
I1
sg130
I1
sg70
I2
sg49
I1
sg36
I1
sg112
I1
sg61
I1
sg187
I1
sg128
I1
sg142
I2
sg109
I1
sg151
I1
sg22
I8
sg117
I1
sg119
I1
sg16
I1
sg65
I1
sg74
I1
sg91
I1
sg39
I1
sg147
I1
sg67
I1
sg102
I2
sg88
I1
sg52
I1
sg81
I1
sg212
I1
sg207
I1
sg172
I1
sg85
I1
sg83
I1
sg41
I1
sg73
I1
sg145
I1
sg189
I1
sg168
I1
sg184
I1
sg35
I1
sg50
I1
sg27
I1
sg53
I1
sg32
I1
sg153
I1
sg30
I1
sg141
I2
sg44
I1
sg94
I1
sg68
I1
sg155
I1
sg148
I1
sg136
I1
sg121
I1
sg18
I1
sg24
I1
sg45
I1
sg110
I1
sg86
I1
sg215
I1
sg89
I1
sg177
I1
sg25
I2
sg181
I1
sg106
I1
sg100
I1
sg21
I1
sg179
I1
sg33
I1
sg92
I2
sg170
I1
sg58
I1
sg79
I1
sg125
I1
sg164
I1
sg144
I1
sg195
I1
sg76
I1
sg28
I1
sg55
I1
sg10
I1
sg47
I1
sg38
I1
sg115
I1
sg163
I1
sg42
I1
sg13
I1
sg95
I1
sg197
I1
sg200
I1
sg71
I1
sg97
I1
sg131
I1
sg56
I1
sg9
I1
sg166
I1
sg64
I1
sg62
I1
sg210
I1
sg19
I1
sg134
I1
sg127
I1
sg15
I1
sg59
I1
stp251
Rp252
sS'rev_bigrams'
p253
(lp254
g138
ag174
ag126
ag57
ag230
ag129
ag219
ag143
ag194
ag236
ag46
ag150
ag11
ag99
ag75
ag186
ag193
ag29
ag226
ag216
ag80
ag220
ag93
ag185
ag191
ag69
ag135
ag182
ag229
ag165
ag183
ag171
ag139
ag132
ag217
ag178
ag87
ag161
ag224
ag208
ag214
ag167
ag199
ag122
ag231
ag157
ag51
ag84
ag202
ag118
ag48
ag114
ag17
ag133
ag60
ag98
ag211
ag223
ag232
ag66
ag101
ag225
ag72
ag237
ag169
ag63
ag173
ag209
ag54
ag218
ag198
ag82
ag116
ag228
ag176
ag43
ag159
ag34
ag192
ag120
ag234
ag77
ag26
ag103
ag105
ag227
ag37
ag180
ag204
ag96
ag158
ag14
ag140
ag40
ag124
ag233
ag222
ag213
ag146
ag152
ag206
ag156
ag31
ag23
ag154
ag205
ag90
ag162
ag111
ag238
ag196
ag190
ag20
ag203
ag188
ag149
ag201
ag235
ag108
ag113
asS'pos_count'
p255
ccollections
defaultdict
p256
(c__builtin__
int
p257
tp258
Rp259
V``
p260
I3
sV:
p261
I3
sVNN
p262
I583
sVFW
p263
I85
sVCC
p264
I2
sg22
I139
sVSYM
p265
I59
sVPOS
p266
I79
sV''
p267
I186
sg112
I14
sVNNP
p268
I1
sVPRP
p269
I2
sVVBZ
p270
I3
sVDT
p271
I49
sVCD
p272
I4
sVNNS
p273
I3
sVLS
p274
I42
ssS'rev_length'
p275
I1115
sVusername
p276
VBrinoabroad
p277
sS'tagged_text'
p278
(lp279
(V[
p280
g263
tp281
a(Vu
p282
VFW
p283
tp284
a(V'
p285
g266
tp286
a(VM
p287
g262
tp288
a(Vy
p289
VNN
p290
tp291
a(g285
g267
tp292
a(g22
g22
tp293
a(g282
VNN
p294
tp295
a(g285
VPOS
p296
tp297
a(Vh
p298
VNN
p299
tp300
a(g282
VNN
p301
tp302
a(Vs
p303
VNN
p304
tp305
a(Vb
p306
VNN
p307
tp308
a(Va
p309
g271
tp310
a(Vn
p311
VNN
p312
tp313
a(Vd
p314
VNN
p315
tp316
a(g285
V''
p317
tp318
a(g22
g22
tp319
a(g282
VNN
p320
tp321
a(g285
V''
p322
tp323
a(VI
p324
g269
tp325
a(g285
V''
p326
tp327
a(g22
g22
tp328
a(g282
VNN
p329
tp330
a(g285
VPOS
p331
tp332
a(g306
VNN
p333
tp334
a(Vo
p335
VNN
p336
tp337
a(g335
VNN
p338
tp339
a(Vk
p340
VNN
p341
tp342
a(Ve
p343
g265
tp344
a(g314
VFW
p345
tp346
a(g285
V''
p347
tp348
a(g22
g22
tp349
a(g282
VNN
p350
tp351
a(g285
V''
p352
tp353
a(g125
g272
tp354
a(g285
V''
p355
tp356
a(g22
g22
tp357
a(g282
VNN
p358
tp359
a(g285
V''
p360
tp361
a(g314
VFW
p362
tp363
a(g309
VFW
p364
tp365
a(g289
VFW
p366
tp367
a(g285
V''
p368
tp369
a(g22
g22
tp370
a(g282
VNN
p371
tp372
a(g285
V''
p373
tp374
a(Vp
p375
VNN
p376
tp377
a(g309
VDT
p378
tp379
a(Vc
p380
VNN
p381
tp382
a(g340
VNN
p383
tp384
a(g309
VDT
p385
tp386
a(Vg
p387
VNN
p388
tp389
a(g343
VSYM
p390
tp391
a(g285
V''
p392
tp393
a(g22
g22
tp394
a(g282
VNN
p395
tp396
a(g285
V''
p397
tp398
a(g287
VNN
p399
tp400
a(g309
VDT
p401
tp402
a(g380
VNN
p403
tp404
a(g298
VNN
p405
tp406
a(g309
VDT
p407
tp408
a(g311
VNN
p409
tp410
a(g285
V''
p411
tp412
a(g22
g22
tp413
a(g282
VNN
p414
tp415
a(g285
VPOS
p416
tp417
a(Vl
p418
VNN
p419
tp420
a(Vi
p421
VFW
p422
tp423
a(Vt
p424
VNN
p425
tp426
a(g424
VNN
p427
tp428
a(g418
VNN
p429
tp430
a(g343
VSYM
p431
tp432
a(g285
V''
p433
tp434
a(g22
g22
tp435
a(g282
VNN
p436
tp437
a(g285
VPOS
p438
tp439
a(VR
p440
VNN
p441
tp442
a(g285
V''
p443
tp444
a(g22
g22
tp445
a(g282
VNN
p446
tp447
a(g285
V''
p448
tp449
a(g142
g264
tp450
a(g285
V''
p451
tp452
a(g22
g22
tp453
a(g282
VNN
p454
tp455
a(g285
VPOS
p456
tp457
a(g440
VNN
p458
tp459
a(g285
V''
p460
tp461
a(g22
g22
tp462
a(g282
VNN
p463
tp464
a(g285
VPOS
p465
tp466
a(g424
VNN
p467
tp468
a(g141
VNN
p469
tp470
a(g343
VSYM
p471
tp472
a(g340
VNN
p473
tp474
a(g340
VNN
p475
tp476
a(g421
VFW
p477
tp478
a(g311
VNN
p479
tp480
a(g387
VNN
p481
tp482
a(g285
V''
p483
tp484
a(g22
g22
tp485
a(g282
VNN
p486
tp487
a(g285
VPOS
p488
tp489
a(VE
p490
VNN
p491
tp492
a(Vv
p493
g274
tp494
a(g343
VLS
p495
tp496
a(g141
VNN
p497
tp498
a(g343
VSYM
p499
tp500
a(g303
VNN
p501
tp502
a(g424
VNN
p503
tp504
a(g285
V''
p505
tp506
a(g22
g22
tp507
a(g282
VNN
p508
tp509
a(g285
VPOS
p510
tp511
a(g141
VNN
p512
tp513
a(g343
VSYM
p514
tp515
a(g387
VNN
p516
tp517
a(g421
VFW
p518
tp519
a(g335
VNN
p520
tp521
a(g311
VNN
p522
tp523
a(g285
V''
p524
tp525
a(g22
g22
tp526
a(g282
VNN
p527
tp528
a(g285
VPOS
p529
tp530
a(g298
VNN
p531
tp532
a(g282
VNN
p533
tp534
a(g303
VNN
p535
tp536
a(g424
VNN
p537
tp538
a(g418
VNN
p539
tp540
a(g343
VSYM
p541
tp542
a(g285
V''
p543
tp544
a(g22
g22
tp545
a(g282
VNN
p546
tp547
a(g285
VPOS
p548
tp549
a(g306
VNN
p550
tp551
a(g282
VNN
p552
tp553
a(g303
VNN
p554
tp555
a(g424
VNN
p556
tp557
a(g418
VNN
p558
tp559
a(g343
VSYM
p560
tp561
a(g285
V''
p562
tp563
a(g22
g22
tp564
a(g282
VNN
p565
tp566
a(g285
V''
p567
tp568
a(VK
p569
VNN
p570
tp571
a(g309
VDT
p572
tp573
a(g424
VNN
p574
tp575
a(g298
VNN
p576
tp577
a(Vm
p578
VNN
p579
tp580
a(g309
VDT
p581
tp582
a(g311
VNN
p583
tp584
a(g314
VNN
p585
tp586
a(g282
VNN
p587
tp588
a(g112
g112
tp589
a(g285
V''
p590
tp591
a(g22
g22
tp592
a(g282
VNN
p593
tp594
a(g285
VPOS
p595
tp596
a(g324
VNN
p597
tp598
a(g424
VNN
p599
tp600
a(g285
V''
p601
tp602
a(g22
g22
tp603
a(g282
VNN
p604
tp605
a(g285
V''
p606
tp607
a(g142
VCC
p608
tp609
a(g285
V''
p610
tp611
a(g22
g22
tp612
a(g282
VNN
p613
tp614
a(g285
V''
p615
tp616
a(g309
VDT
p617
tp618
a(g380
VNN
p619
tp620
a(g282
VNN
p621
tp622
a(g424
VNN
p623
tp624
a(g343
VSYM
p625
tp626
a(g285
V''
p627
tp628
a(g22
g22
tp629
a(g282
VNN
p630
tp631
a(g285
V''
p632
tp633
a(g28
g261
tp634
a(g285
V''
p635
tp636
a(g22
g22
tp637
a(g282
VNN
p638
tp639
a(g285
VPOS
p640
tp641
a(g303
VNN
p642
tp643
a(g335
VNN
p644
tp645
a(g578
VNN
p646
tp647
a(g343
VSYM
p648
tp649
a(g424
VNN
p650
tp651
a(g298
VNN
p652
tp653
a(g421
VFW
p654
tp655
a(g311
VNN
p656
tp657
a(g387
VNN
p658
tp659
a(g285
V''
p660
tp661
a(g22
g22
tp662
a(g282
VNN
p663
tp664
a(g285
V''
p665
tp666
a(g375
VNN
p667
tp668
a(g309
VDT
p669
tp670
a(g141
VNN
p671
tp672
a(g424
VNN
p673
tp674
a(g421
VFW
p675
tp676
a(g380
VNN
p677
tp678
a(g282
VNN
p679
tp680
a(g418
VNN
p681
tp682
a(g309
VDT
p683
tp684
a(g141
VNN
p685
tp686
a(g418
VNN
p687
tp688
a(g289
VNN
p689
tp690
a(g285
V''
p691
tp692
a(g22
g22
tp693
a(g282
VNN
p694
tp695
a(g285
VPOS
p696
tp697
a(g418
VNN
p698
tp699
a(g335
VNN
p700
tp701
a(g335
VNN
p702
tp703
a(g340
VNN
p704
tp705
a(g421
VFW
p706
tp707
a(g311
VNN
p708
tp709
a(g387
VNN
p710
tp711
a(g285
V''
p712
tp713
a(g22
g22
tp714
a(g282
VNN
p715
tp716
a(g285
V''
p717
tp718
a(Vf
p719
VLS
p720
tp721
a(g335
VNN
p722
tp723
a(g141
VNN
p724
tp725
a(Vw
p726
VNN
p727
tp728
a(g309
VDT
p729
tp730
a(g141
VNN
p731
tp732
a(g314
VNN
p733
tp734
a(g285
V''
p735
tp736
a(g22
g22
tp737
a(g282
VNN
p738
tp739
a(g285
V''
p740
tp741
a(g92
g261
tp742
a(g285
V''
p743
tp744
a(g22
g22
tp745
a(g282
VNN
p746
tp747
a(g285
VPOS
p748
tp749
a(g424
VNN
p750
tp751
a(g282
VNN
p752
tp753
a(g141
VNN
p754
tp755
a(g311
VNN
p756
tp757
a(g343
VSYM
p758
tp759
a(g314
VFW
p760
tp761
a(g285
V''
p762
tp763
a(g22
g22
tp764
a(g282
VNN
p765
tp766
a(g285
VPOS
p767
tp768
a(g141
VNN
p769
tp770
a(g343
VSYM
p771
tp772
a(g309
VDT
p773
tp774
a(g418
VNN
p775
tp776
a(g285
V''
p777
tp778
a(g22
g22
tp779
a(g282
VNN
p780
tp781
a(g285
VPOS
p782
tp783
a(g298
VNN
p784
tp785
a(g421
VFW
p786
tp787
a(g387
VNN
p788
tp789
a(g298
VNN
p790
tp791
a(g418
VNN
p792
tp793
a(g421
VFW
p794
tp795
a(g387
VNN
p796
tp797
a(g298
VNN
p798
tp799
a(g424
VNN
p800
tp801
a(g285
V''
p802
tp803
a(g22
g22
tp804
a(g282
VNN
p805
tp806
a(g285
VPOS
p807
tp808
a(g424
VNN
p809
tp810
a(g421
VFW
p811
tp812
a(g578
VNN
p813
tp814
a(g343
VSYM
p815
tp816
a(g285
V''
p817
tp818
a(g22
g22
tp819
a(g282
VNN
p820
tp821
a(g285
VPOS
p822
tp823
a(VN
p824
VNN
p825
tp826
a(g343
VSYM
p827
tp828
a(g375
VNN
p829
tp830
a(g309
VDT
p831
tp832
a(g418
VNN
p833
tp834
a(g112
g112
tp835
a(g285
V''
p836
tp837
a(g22
g22
tp838
a(g282
VNN
p839
tp840
a(g285
VPOS
p841
tp842
a(VT
p843
VNN
p844
tp845
a(g298
VNN
p846
tp847
a(g343
VSYM
p848
tp849
a(g285
V''
p850
tp851
a(g22
g22
tp852
a(g282
VNN
p853
tp854
a(g285
V''
p855
tp856
a(Vj
p857
VFW
p858
tp859
a(g282
VFW
p860
tp861
a(g311
VNN
p862
tp863
a(g387
VNN
p864
tp865
a(g418
VNN
p866
tp867
a(g343
VSYM
p868
tp869
a(g285
V''
p870
tp871
a(g22
g22
tp872
a(g282
VNN
p873
tp874
a(g285
VPOS
p875
tp876
a(g303
VNN
p877
tp878
a(g343
VSYM
p879
tp880
a(g424
VNN
p881
tp882
a(g424
VNN
p883
tp884
a(g421
VFW
p885
tp886
a(g311
VNN
p887
tp888
a(g387
VNN
p889
tp890
a(g285
V''
p891
tp892
a(g22
g22
tp893
a(g282
VNN
p894
tp895
a(g285
V''
p896
tp897
a(g421
VLS
p898
tp899
a(g303
VNN
p900
tp901
a(g335
VNN
p902
tp903
a(g418
VNN
p904
tp905
a(g309
VDT
p906
tp907
a(g424
VNN
p908
tp909
a(g343
VSYM
p910
tp911
a(g314
VFW
p912
tp913
a(g285
V''
p914
tp915
a(g22
g22
tp916
a(g282
VNN
p917
tp918
a(g285
V''
p919
tp920
a(g22
g22
tp921
a(g285
V''
p922
tp923
a(g22
g22
tp924
a(g282
VNN
p925
tp926
a(g285
V''
p927
tp928
a(g719
VLS
p929
tp930
a(g309
VDT
p931
tp932
a(g311
VNN
p933
tp934
a(g424
VNN
p935
tp936
a(g309
VDT
p937
tp938
a(g303
VNN
p939
tp940
a(g424
VNN
p941
tp942
a(g421
VFW
p943
tp944
a(g380
VNN
p945
tp946
a(g285
V''
p947
tp948
a(g22
g22
tp949
a(g282
VNN
p950
tp951
a(g285
V''
p952
tp953
a(g726
VFW
p954
tp955
a(g421
VFW
p956
tp957
a(g418
VNN
p958
tp959
a(g314
VNN
p960
tp961
a(g418
VNN
p962
tp963
a(g421
VFW
p964
tp965
a(g719
VFW
p966
tp967
a(g343
VLS
p968
tp969
a(g285
V''
p970
tp971
a(g22
g22
tp972
a(g282
VNN
p973
tp974
a(g285
V''
p975
tp976
a(g493
VLS
p977
tp978
a(g421
VLS
p979
tp980
a(g343
VSYM
p981
tp982
a(g726
VFW
p983
tp984
a(g421
VFW
p985
tp986
a(g311
VNN
p987
tp988
a(g387
VNN
p989
tp990
a(g112
g112
tp991
a(g285
V''
p992
tp993
a(g22
g22
tp994
a(g282
VNN
p995
tp996
a(g285
VPOS
p997
tp998
a(VW
p999
VNN
p1000
tp1001
a(g343
VSYM
p1002
tp1003
a(g285
V''
p1004
tp1005
a(g22
g22
tp1006
a(g282
VNN
p1007
tp1008
a(g285
VPOS
p1009
tp1010
a(g418
VNN
p1011
tp1012
a(g282
VNN
p1013
tp1014
a(g380
VNN
p1015
tp1016
a(g340
VNN
p1017
tp1018
a(g289
VNN
p1019
tp1020
a(g285
V''
p1021
tp1022
a(g22
g22
tp1023
a(g282
VNN
p1024
tp1025
a(g285
VPOS
p1026
tp1027
a(g303
VNN
p1028
tp1029
a(g343
VSYM
p1030
tp1031
a(g343
VLS
p1032
tp1033
a(g285
V''
p1034
tp1035
a(g22
g22
tp1036
a(g282
VNN
p1037
tp1038
a(g285
VPOS
p1039
tp1040
a(g141
VNN
p1041
tp1042
a(g298
VNN
p1043
tp1044
a(g421
VFW
p1045
tp1046
a(g311
VNN
p1047
tp1048
a(g335
VNN
p1049
tp1050
a(g303
VNN
p1051
tp1052
a(g285
V''
p1053
tp1054
a(g22
g22
tp1055
a(g282
VNN
p1056
tp1057
a(g285
V''
p1058
tp1059
a(g22
g22
tp1060
a(g285
V''
p1061
tp1062
a(g22
g22
tp1063
a(g282
VNN
p1064
tp1065
a(g285
VPOS
p1066
tp1067
a(g314
VNN
p1068
tp1069
a(g343
VSYM
p1070
tp1071
a(g343
VLS
p1072
tp1073
a(g141
VNN
p1074
tp1075
a(g285
V''
p1076
tp1077
a(g22
g22
tp1078
a(g282
VNN
p1079
tp1080
a(g285
V''
p1081
tp1082
a(g22
g22
tp1083
a(g285
V''
p1084
tp1085
a(g22
g22
tp1086
a(g282
VNN
p1087
tp1088
a(g285
VPOS
p1089
tp1090
a(g578
VNN
p1091
tp1092
a(g335
VNN
p1093
tp1094
a(g311
VNN
p1095
tp1096
a(g340
VNN
p1097
tp1098
a(g343
VSYM
p1099
tp1100
a(g289
VNN
p1101
tp1102
a(g303
VNN
p1103
tp1104
a(g285
V''
p1105
tp1106
a(g22
g22
tp1107
a(g282
VNN
p1108
tp1109
a(g285
V''
p1110
tp1111
a(g22
g22
tp1112
a(g285
V''
p1113
tp1114
a(g22
g22
tp1115
a(g282
VNN
p1116
tp1117
a(g285
VPOS
p1118
tp1119
a(g303
VNN
p1120
tp1121
a(g311
VNN
p1122
tp1123
a(g309
VDT
p1124
tp1125
a(g340
VNN
p1126
tp1127
a(g343
VSYM
p1128
tp1129
a(g303
g273
tp1130
a(g285
VPOS
p1131
tp1132
a(g22
g22
tp1133
a(g282
VNN
p1134
tp1135
a(g285
V''
p1136
tp1137
a(g22
g22
tp1138
a(g285
V''
p1139
tp1140
a(g22
g22
tp1141
a(g282
VNN
p1142
tp1143
a(g285
VPOS
p1144
tp1145
a(g424
VNN
p1146
tp1147
a(g335
VNN
p1148
tp1149
a(g311
VNN
p1150
tp1151
a(g303
VNN
p1152
tp1153
a(g285
V''
p1154
tp1155
a(g22
g22
tp1156
a(g282
VNN
p1157
tp1158
a(g285
VPOS
p1159
tp1160
a(g306
VNN
p1161
tp1162
a(g421
VFW
p1163
tp1164
a(g141
VNN
p1165
tp1166
a(g314
VNN
p1167
tp1168
a(g303
VNN
p1169
tp1170
a(g112
g112
tp1171
a(g285
V''
p1172
tp1173
a(g22
g22
tp1174
a(g282
VNN
p1175
tp1176
a(g285
VPOS
p1177
tp1178
a(g824
VNN
p1179
tp1180
a(g335
VNN
p1181
tp1182
a(g285
V''
p1183
tp1184
a(g22
g22
tp1185
a(g282
VNN
p1186
tp1187
a(g285
VPOS
p1188
tp1189
a(g424
VNN
p1190
tp1191
a(g421
VFW
p1192
tp1193
a(g387
VNN
p1194
tp1195
a(g343
VSYM
p1196
tp1197
a(g141
VNN
p1198
tp1199
a(g285
V''
p1200
tp1201
a(g22
g22
tp1202
a(g282
VNN
p1203
tp1204
a(g285
VPOS
p1205
tp1206
a(g303
VNN
p1207
tp1208
a(g375
VNN
p1209
tp1210
a(g335
VNN
p1211
tp1212
a(g424
VNN
p1213
tp1214
a(g424
VNN
p1215
tp1216
a(g421
VFW
p1217
tp1218
a(g311
VNN
p1219
tp1220
a(g387
VNN
p1221
tp1222
a(g303
VNN
p1223
tp1224
a(g285
V''
p1225
tp1226
a(g22
g22
tp1227
a(g282
VNN
p1228
tp1229
a(g285
VPOS
p1230
tp1231
a(g424
VNN
p1232
tp1233
a(g298
VNN
p1234
tp1235
a(g335
VNN
p1236
tp1237
a(g282
VNN
p1238
tp1239
a(g387
VNN
p1240
tp1241
a(g298
VNN
p1242
tp1243
a(g285
V''
p1244
tp1245
a(g22
g22
tp1246
a(g282
VNN
p1247
tp1248
a(g285
V''
p1249
tp1250
a(g25
g112
tp1251
a(g285
V''
p1252
tp1253
a(g22
g22
tp1254
a(g282
VNN
p1255
tp1256
a(g285
V''
p1257
tp1258
a(VA
p1259
VDT
p1260
tp1261
a(g380
VNN
p1262
tp1263
a(g380
VNN
p1264
tp1265
a(g335
VNN
p1266
tp1267
a(g578
VNN
p1268
tp1269
a(g335
VNN
p1270
tp1271
a(g314
VNN
p1272
tp1273
a(g309
VDT
p1274
tp1275
a(g424
VNN
p1276
tp1277
a(g421
VFW
p1278
tp1279
a(g335
VNN
p1280
tp1281
a(g311
VNN
p1282
tp1283
a(g303
VNN
p1284
tp1285
a(g285
V''
p1286
tp1287
a(g22
g22
tp1288
a(g282
VNN
p1289
tp1290
a(g285
VPOS
p1291
tp1292
a(g141
VNN
p1293
tp1294
a(g282
VNN
p1295
tp1296
a(g303
VNN
p1297
tp1298
a(g424
VNN
p1299
tp1300
a(g421
VFW
p1301
tp1302
a(g380
VNN
p1303
tp1304
a(g285
V''
p1305
tp1306
a(g22
g22
tp1307
a(g282
VNN
p1308
tp1309
a(g285
VPOS
p1310
tp1311
a(g380
VNN
p1312
tp1313
a(g335
VNN
p1314
tp1315
a(g578
VNN
p1316
tp1317
a(g719
VFW
p1318
tp1319
a(g335
VNN
p1320
tp1321
a(g141
VNN
p1322
tp1323
a(g424
VNN
p1324
tp1325
a(g309
VDT
p1326
tp1327
a(g306
VNN
p1328
tp1329
a(g418
VNN
p1330
tp1331
a(g343
VLS
p1332
tp1333
a(g112
g112
tp1334
a(g285
V''
p1335
tp1336
a(g22
g22
tp1337
a(g282
VNN
p1338
tp1339
a(g285
VPOS
p1340
tp1341
a(g843
VNN
p1342
tp1343
a(g298
VNN
p1344
tp1345
a(g343
VSYM
p1346
tp1347
a(g285
V''
p1348
tp1349
a(g22
g22
tp1350
a(g282
VNN
p1351
tp1352
a(g285
VPOS
p1353
tp1354
a(g303
VNN
p1355
tp1356
a(g726
VFW
p1357
tp1358
a(g421
VFW
p1359
tp1360
a(g578
VNN
p1361
tp1362
a(g578
VNN
p1363
tp1364
a(g421
VFW
p1365
tp1366
a(g311
VNN
p1367
tp1368
a(g387
VNN
p1369
tp1370
a(g285
V''
p1371
tp1372
a(g22
g22
tp1373
a(g282
VNN
p1374
tp1375
a(g285
VPOS
p1376
tp1377
a(g375
VNN
p1378
tp1379
a(g335
VNN
p1380
tp1381
a(g335
VNN
p1382
tp1383
a(g418
VNN
p1384
tp1385
a(g285
V''
p1386
tp1387
a(g22
g22
tp1388
a(g282
VNN
p1389
tp1390
a(g285
V''
p1391
tp1392
a(g314
VFW
p1393
tp1394
a(g421
VFW
p1395
tp1396
a(g303
g270
tp1397
a(g309
VDT
p1398
tp1399
a(g375
VNN
p1400
tp1401
a(g375
VNN
p1402
tp1403
a(g335
VNN
p1404
tp1405
a(g421
VFW
p1406
tp1407
a(g311
VNN
p1408
tp1409
a(g424
VNN
p1410
tp1411
a(g578
VNN
p1412
tp1413
a(g343
VSYM
p1414
tp1415
a(g311
VNN
p1416
tp1417
a(g424
VNN
p1418
tp1419
a(g285
V''
p1420
tp1421
a(g22
g22
tp1422
a(g282
VNN
p1423
tp1424
a(g285
V''
p1425
tp1426
a(g22
g22
tp1427
a(g285
V''
p1428
tp1429
a(g22
g22
tp1430
a(g282
VNN
p1431
tp1432
a(g285
VPOS
p1433
tp1434
a(g418
VNN
p1435
tp1436
a(g335
VNN
p1437
tp1438
a(g335
VNN
p1439
tp1440
a(g340
VNN
p1441
tp1442
a(g343
VSYM
p1443
tp1444
a(g314
VFW
p1445
tp1446
a(g285
V''
p1447
tp1448
a(g22
g22
tp1449
a(g282
VNN
p1450
tp1451
a(g285
VPOS
p1452
tp1453
a(g375
VNN
p1454
tp1455
a(g141
VNN
p1456
tp1457
a(g343
VSYM
p1458
tp1459
a(g424
VNN
p1460
tp1461
a(g424
VNN
p1462
tp1463
a(g289
VNN
p1464
tp1465
a(g285
V''
p1466
tp1467
a(g22
g22
tp1468
a(g282
VNN
p1469
tp1470
a(g285
VPOS
p1471
tp1472
a(g303
VNN
p1473
tp1474
a(g380
VNN
p1475
tp1476
a(g282
VNN
p1477
tp1478
a(Vz
p1479
VSYM
p1480
tp1481
a(g1479
VSYM
p1482
tp1483
a(g289
VNN
p1484
tp1485
a(g112
g112
tp1486
a(g285
V''
p1487
tp1488
a(g22
g22
tp1489
a(g282
VNN
p1490
tp1491
a(g285
VPOS
p1492
tp1493
a(g843
VNN
p1494
tp1495
a(g298
VNN
p1496
tp1497
a(g343
VSYM
p1498
tp1499
a(g285
V''
p1500
tp1501
a(g22
g22
tp1502
a(g282
VNN
p1503
tp1504
a(g285
V''
p1505
tp1506
a(g421
VLS
p1507
tp1508
a(g311
VNN
p1509
tp1510
a(g380
VNN
p1511
tp1512
a(g418
VNN
p1513
tp1514
a(g282
VFW
p1515
tp1516
a(g314
VFW
p1517
tp1518
a(g343
VLS
p1519
tp1520
a(g314
VNN
p1521
tp1522
a(g285
V''
p1523
tp1524
a(g22
g22
tp1525
a(g282
VNN
p1526
tp1527
a(g285
VPOS
p1528
tp1529
a(g578
VNN
p1530
tp1531
a(g343
VSYM
p1532
tp1533
a(g309
VDT
p1534
tp1535
a(g418
VNN
p1536
tp1537
a(g303
VNN
p1538
tp1539
a(g285
V''
p1540
tp1541
a(g22
g22
tp1542
a(g282
VNN
p1543
tp1544
a(g285
VPOS
p1545
tp1546
a(g314
VNN
p1547
tp1548
a(g343
VSYM
p1549
tp1550
a(g380
VLS
p1551
tp1552
a(g343
VLS
p1553
tp1554
a(g311
VNN
p1555
tp1556
a(g424
VNN
p1557
tp1558
a(g112
g112
tp1559
a(g285
V''
p1560
tp1561
a(g22
g22
tp1562
a(g282
VNN
p1563
tp1564
a(g285
V''
p1565
tp1566
a(g324
VPRP
p1567
tp1568
a(g285
V''
p1569
tp1570
a(g22
g22
tp1571
a(g282
VNN
p1572
tp1573
a(g285
V''
p1574
tp1575
a(g343
VLS
p1576
tp1577
a(g311
VNN
p1578
tp1579
a(g857
VNN
p1580
tp1581
a(g335
VNN
p1582
tp1583
a(g289
VNN
p1584
tp1585
a(g343
VSYM
p1586
tp1587
a(g314
VFW
p1588
tp1589
a(g285
V''
p1590
tp1591
a(g22
g22
tp1592
a(g282
VNN
p1593
tp1594
a(g285
VPOS
p1595
tp1596
a(g303
VNN
p1597
tp1598
a(g375
VNN
p1599
tp1600
a(g343
VSYM
p1601
tp1602
a(g311
VNN
p1603
tp1604
a(g314
VFW
p1605
tp1606
a(g421
VFW
p1607
tp1608
a(g311
VNN
p1609
tp1610
a(g387
VNN
p1611
tp1612
a(g285
V''
p1613
tp1614
a(g22
g22
tp1615
a(g282
VNN
p1616
tp1617
a(g285
V''
p1618
tp1619
a(g343
VLS
p1620
tp1621
a(g493
VLS
p1622
tp1623
a(g343
VLS
p1624
tp1625
a(g311
VNN
p1626
tp1627
a(g421
VFW
p1628
tp1629
a(g311
VNN
p1630
tp1631
a(g387
VNN
p1632
tp1633
a(g303
VNN
p1634
tp1635
a(g285
V''
p1636
tp1637
a(g22
g22
tp1638
a(g282
VNN
p1639
tp1640
a(g285
V''
p1641
tp1642
a(g309
VDT
p1643
tp1644
a(g141
VNN
p1645
tp1646
a(g335
VNN
p1647
tp1648
a(g282
VNN
p1649
tp1650
a(g311
VNN
p1651
tp1652
a(g314
VNN
p1653
tp1654
a(g285
V''
p1655
tp1656
a(g22
g22
tp1657
a(g282
VNN
p1658
tp1659
a(g285
VPOS
p1660
tp1661
a(g306
VNN
p1662
tp1663
a(g309
VDT
p1664
tp1665
a(g141
VNN
p1666
tp1667
a(g285
V''
p1668
tp1669
a(g22
g22
tp1670
a(g282
VNN
p1671
tp1672
a(g285
VPOS
p1673
tp1674
a(g311
VNN
p1675
tp1676
a(g421
VFW
p1677
tp1678
a(g387
VNN
p1679
tp1680
a(g298
VNN
p1681
tp1682
a(g424
VNN
p1683
tp1684
a(g719
VSYM
p1685
tp1686
a(g309
VDT
p1687
tp1688
a(g418
VNN
p1689
tp1690
a(g418
VNN
p1691
tp1692
a(g285
V''
p1693
tp1694
a(g22
g22
tp1695
a(g282
VNN
p1696
tp1697
a(g285
V''
p1698
tp1699
a(g22
g22
tp1700
a(g285
V''
p1701
tp1702
a(g22
g22
tp1703
a(g282
VNN
p1704
tp1705
a(g285
VPOS
p1706
tp1707
a(g380
VNN
p1708
tp1709
a(g298
VNN
p1710
tp1711
a(g309
VDT
p1712
tp1713
a(g424
VNN
p1714
tp1715
a(g424
VNN
p1716
tp1717
a(g421
VFW
p1718
tp1719
a(g311
VNN
p1720
tp1721
a(g387
VNN
p1722
tp1723
a(g285
V''
p1724
tp1725
a(g22
g22
tp1726
a(g282
VNN
p1727
tp1728
a(g285
VPOS
p1729
tp1730
a(g424
VNN
p1731
tp1732
a(g141
VNN
p1733
tp1734
a(g309
VDT
p1735
tp1736
a(g493
VLS
p1737
tp1738
a(g343
VLS
p1739
tp1740
a(g418
VNN
p1741
tp1742
a(g418
VNN
p1743
tp1744
a(g343
VSYM
p1745
tp1746
a(g141
VNN
p1747
tp1748
a(g303
VNN
p1749
tp1750
a(g285
V''
p1751
tp1752
a(g22
g22
tp1753
a(g282
VNN
p1754
tp1755
a(g285
V''
p1756
tp1757
a(g418
VNN
p1758
tp1759
a(g421
VFW
p1760
tp1761
a(g303
VNN
p1762
tp1763
a(g424
VNN
p1764
tp1765
a(g343
VSYM
p1766
tp1767
a(g311
VNN
p1768
tp1769
a(g421
VFW
p1770
tp1771
a(g311
VNN
p1772
tp1773
a(g387
VNN
p1774
tp1775
a(g285
V''
p1776
tp1777
a(g22
g22
tp1778
a(g282
VNN
p1779
tp1780
a(g285
VPOS
p1781
tp1782
a(g380
VNN
p1783
tp1784
a(g141
VNN
p1785
tp1786
a(g421
VFW
p1787
tp1788
a(g380
VNN
p1789
tp1790
a(g340
VNN
p1791
tp1792
a(g343
VSYM
p1793
tp1794
a(g424
VNN
p1795
tp1796
a(g303
VNN
p1797
tp1798
a(g112
g112
tp1799
a(g285
V''
p1800
tp1801
a(g22
g22
tp1802
a(g282
VNN
p1803
tp1804
a(g285
V''
p1805
tp1806
a(VQ
p1807
g268
tp1808
a(g282
VFW
p1809
tp1810
a(g421
VFW
p1811
tp1812
a(g424
VNN
p1813
tp1814
a(g343
VSYM
p1815
tp1816
a(g285
V''
p1817
tp1818
a(g22
g22
tp1819
a(g282
VNN
p1820
tp1821
a(g285
VPOS
p1822
tp1823
a(g141
VNN
p1824
tp1825
a(g335
VNN
p1826
tp1827
a(g578
VNN
p1828
tp1829
a(g309
VDT
p1830
tp1831
a(g311
VNN
p1832
tp1833
a(g424
VNN
p1834
tp1835
a(g421
VFW
p1836
tp1837
a(g380
VNN
p1838
tp1839
a(g285
V''
p1840
tp1841
a(g22
g22
tp1842
a(g282
VNN
p1843
tp1844
a(g285
V''
p1845
tp1846
a(g314
VFW
p1847
tp1848
a(g282
VFW
p1849
tp1850
a(g303
VNN
p1851
tp1852
a(g340
VNN
p1853
tp1854
a(g285
V''
p1855
tp1856
a(g22
g22
tp1857
a(g282
VNN
p1858
tp1859
a(g285
V''
p1860
tp1861
a(g92
g261
tp1862
a(g285
V''
p1863
tp1864
a(g22
g22
tp1865
a(g282
VNN
p1866
tp1867
a(g285
V''
p1868
tp1869
a(g309
VDT
p1870
tp1871
a(g380
VNN
p1872
tp1873
a(g424
VNN
p1874
tp1875
a(g282
VNN
p1876
tp1877
a(g309
VDT
p1878
tp1879
a(g418
VNN
p1880
tp1881
a(g418
VNN
p1882
tp1883
a(g289
VNN
p1884
tp1885
a(g285
V''
p1886
tp1887
a(g22
g22
tp1888
a(g282
VNN
p1889
tp1890
a(g285
VPOS
p1891
tp1892
a(g387
VNN
p1893
tp1894
a(g335
VNN
p1895
tp1896
a(g424
VNN
p1897
tp1898
a(g285
V''
p1899
tp1900
a(g22
g22
tp1901
a(g282
VNN
p1902
tp1903
a(g285
V''
p1904
tp1905
a(g343
VLS
p1906
tp1907
a(g311
VNN
p1908
tp1909
a(g387
VNN
p1910
tp1911
a(g309
VDT
p1912
tp1913
a(g387
VNN
p1914
tp1915
a(g343
VSYM
p1916
tp1917
a(g314
VFW
p1918
tp1919
a(g285
V''
p1920
tp1921
a(g22
g22
tp1922
a(g282
VNN
p1923
tp1924
a(g285
V''
p1925
tp1926
a(g25
g112
tp1927
a(g285
V''
p1928
tp1929
a(g22
g22
tp1930
a(g282
VNN
p1931
tp1932
a(g285
VPOS
p1933
tp1934
a(g843
VNN
p1935
tp1936
a(g298
VNN
p1937
tp1938
a(g343
VSYM
p1939
tp1940
a(g285
V''
p1941
tp1942
a(g22
g22
tp1943
a(g282
VNN
p1944
tp1945
a(g285
V''
p1946
tp1947
a(g309
VDT
p1948
tp1949
a(g380
VNN
p1950
tp1951
a(g424
VNN
p1952
tp1953
a(g421
VFW
p1954
tp1955
a(g493
VLS
p1956
tp1957
a(g421
VLS
p1958
tp1959
a(g424
VNN
p1960
tp1961
a(g421
VFW
p1962
tp1963
a(g343
VLS
p1964
tp1965
a(g303
VNNS
p1966
tp1967
a(g285
VPOS
p1968
tp1969
a(g22
g22
tp1970
a(g282
VNN
p1971
tp1972
a(g285
V''
p1973
tp1974
a(g421
VLS
p1975
tp1976
a(g311
VNN
p1977
tp1978
a(g380
VNN
p1979
tp1980
a(g418
VNN
p1981
tp1982
a(g282
VFW
p1983
tp1984
a(g314
VFW
p1985
tp1986
a(g343
VLS
p1987
tp1988
a(g314
VNN
p1989
tp1990
a(g285
V''
p1991
tp1992
a(g22
g22
tp1993
a(g282
VNN
p1994
tp1995
a(g285
VPOS
p1996
tp1997
a(g387
VNN
p1998
tp1999
a(g141
VNN
p2000
tp2001
a(g343
VSYM
p2002
tp2003
a(g309
VDT
p2004
tp2005
a(g424
VNN
p2006
tp2007
a(g112
g112
tp2008
a(g285
V''
p2009
tp2010
a(g22
g22
tp2011
a(g282
VNN
p2012
tp2013
a(g285
VPOS
p2014
tp2015
a(VG
p2016
VNN
p2017
tp2018
a(g282
VNN
p2019
tp2020
a(g343
VSYM
p2021
tp2022
a(g303
VNN
p2023
tp2024
a(g424
VNN
p2025
tp2026
a(g303
VNN
p2027
tp2028
a(g285
V''
p2029
tp2030
a(g22
g22
tp2031
a(g282
VNN
p2032
tp2033
a(g285
V''
p2034
tp2035
a(g314
VFW
p2036
tp2037
a(g421
VFW
p2038
tp2039
a(g493
VLS
p2040
tp2041
a(g421
VFW
p2042
tp2043
a(g314
VFW
p2044
tp2045
a(g343
VLS
p2046
tp2047
a(g314
VNN
p2048
tp2049
a(g285
V''
p2050
tp2051
a(g22
g22
tp2052
a(g282
VNN
p2053
tp2054
a(g285
VPOS
p2055
tp2056
a(g303
VNN
p2057
tp2058
a(g578
VNN
p2059
tp2060
a(g309
VDT
p2061
tp2062
a(g418
VNN
p2063
tp2064
a(g418
VNN
p2065
tp2066
a(g285
V''
p2067
tp2068
a(g22
g22
tp2069
a(g282
VNN
p2070
tp2071
a(g285
VPOS
p2072
tp2073
a(g387
VNN
p2074
tp2075
a(g141
VNN
p2076
tp2077
a(g335
VNN
p2078
tp2079
a(g282
VNN
p2080
tp2081
a(g375
VNN
p2082
tp2083
a(g303
VNN
p2084
tp2085
a(g285
V''
p2086
tp2087
a(g22
g22
tp2088
a(g282
VNN
p2089
tp2090
a(g285
V''
p2091
tp2092
a(g309
VDT
p2093
tp2094
a(g380
VNN
p2095
tp2096
a(g424
VNN
p2097
tp2098
a(g421
VFW
p2099
tp2100
a(g493
VLS
p2101
tp2102
a(g421
VLS
p2103
tp2104
a(g424
VNN
p2105
tp2106
a(g421
VFW
p2107
tp2108
a(g343
VLS
p2109
tp2110
a(g303
VNNS
p2111
tp2112
a(g285
VPOS
p2113
tp2114
a(g22
g22
tp2115
a(g282
VNN
p2116
tp2117
a(g285
VPOS
p2118
tp2119
a(g375
VNN
p2120
tp2121
a(g141
VNN
p2122
tp2123
a(g421
VFW
p2124
tp2125
a(g311
VNN
p2126
tp2127
a(g424
VNN
p2128
tp2129
a(g343
VSYM
p2130
tp2131
a(g314
VFW
p2132
tp2133
a(g285
V''
p2134
tp2135
a(g22
g22
tp2136
a(g282
VNN
p2137
tp2138
a(g285
VPOS
p2139
tp2140
a(g306
VNN
p2141
tp2142
a(g418
VNN
p2143
tp2144
a(g309
VDT
p2145
tp2146
a(g380
VNN
p2147
tp2148
a(g340
VNN
p2149
tp2150
a(g306
VNN
p2151
tp2152
a(g335
VNN
p2153
tp2154
a(g309
VDT
p2155
tp2156
a(g141
VNN
p2157
tp2158
a(g314
VNN
p2159
tp2160
a(g285
V''
p2161
tp2162
a(g22
g22
tp2163
a(g282
VNN
p2164
tp2165
a(g285
VPOS
p2166
tp2167
a(g578
VNN
p2168
tp2169
a(g343
VSYM
p2170
tp2171
a(g343
VLS
p2172
tp2173
a(g424
VNN
p2174
tp2175
a(g421
VFW
p2176
tp2177
a(g311
VNN
p2178
tp2179
a(g387
VNN
p2180
tp2181
a(g285
V''
p2182
tp2183
a(g22
g22
tp2184
a(g282
VNN
p2185
tp2186
a(g285
V''
p2187
tp2188
a(g309
VDT
p2189
tp2190
a(g141
VNN
p2191
tp2192
a(g343
VSYM
p2193
tp2194
a(g309
VDT
p2195
tp2196
a(g112
g112
tp2197
a(g285
V''
p2198
tp2199
a(g22
g22
tp2200
a(g282
VNN
p2201
tp2202
a(g285
V''
p2203
tp2204
a(g375
VNN
p2205
tp2206
a(g309
VDT
p2207
tp2208
a(g141
VNN
p2209
tp2210
a(g424
VNN
p2211
tp2212
a(g421
VFW
p2213
tp2214
a(g380
VNN
p2215
tp2216
a(g282
VNN
p2217
tp2218
a(g418
VNN
p2219
tp2220
a(g309
VDT
p2221
tp2222
a(g141
VNN
p2223
tp2224
a(g418
VNN
p2225
tp2226
a(g289
VNN
p2227
tp2228
a(g285
V''
p2229
tp2230
a(g22
g22
tp2231
a(g282
VNN
p2232
tp2233
a(g285
VPOS
p2234
tp2235
a(g418
VNN
p2236
tp2237
a(g335
VNN
p2238
tp2239
a(g493
VLS
p2240
tp2241
a(g343
VLS
p2242
tp2243
a(g314
VNN
p2244
tp2245
a(g285
V''
p2246
tp2247
a(g22
g22
tp2248
a(g282
VNN
p2249
tp2250
a(g285
V''
p2251
tp2252
a(g343
VLS
p2253
tp2254
a(g418
VNN
p2255
tp2256
a(g343
VSYM
p2257
tp2258
a(g375
VNN
p2259
tp2260
a(g298
VNN
p2261
tp2262
a(g309
VDT
p2263
tp2264
a(g311
VNN
p2265
tp2266
a(g424
VNN
p2267
tp2268
a(g285
V''
p2269
tp2270
a(g22
g22
tp2271
a(g282
VNN
p2272
tp2273
a(g285
VPOS
p2274
tp2275
a(g303
VNN
p2276
tp2277
a(g309
VFW
p2278
tp2279
a(g719
VFW
p2280
tp2281
a(g309
VDT
p2282
tp2283
a(g141
VNN
p2284
tp2285
a(g421
VFW
p2286
tp2287
a(g285
V''
p2288
tp2289
a(g22
g22
tp2290
a(g282
VNN
p2291
tp2292
a(g285
VPOS
p2293
tp2294
a(g151
VNN
p2295
tp2296
a(g285
V''
p2297
tp2298
a(g22
g22
tp2299
a(g282
VNN
p2300
tp2301
a(g285
VPOS
p2302
tp2303
a(g726
VNN
p2304
tp2305
a(g343
VSYM
p2306
tp2307
a(g311
VNN
p2308
tp2309
a(g424
VNN
p2310
tp2311
a(g285
V''
p2312
tp2313
a(g22
g22
tp2314
a(g282
VNN
p2315
tp2316
a(g285
VPOS
p2317
tp2318
a(g424
VNN
p2319
tp2320
a(g726
VFW
p2321
tp2322
a(g421
VFW
p2323
tp2324
a(g380
VNN
p2325
tp2326
a(g343
VSYM
p2327
tp2328
a(g285
V''
p2329
tp2330
a(g22
g22
tp2331
a(g282
VNN
p2332
tp2333
a(g285
VPOS
p2334
tp2335
a(g21
VNN
p2336
tp2337
a(g285
V''
p2338
tp2339
a(g22
g22
tp2340
a(g282
VNN
p2341
tp2342
a(g285
V''
p2343
tp2344
a(g22
g22
tp2345
a(g285
V''
p2346
tp2347
a(g22
g22
tp2348
a(g282
VNN
p2349
tp2350
a(g285
VPOS
p2351
tp2352
a(g387
VNN
p2353
tp2354
a(g343
VSYM
p2355
tp2356
a(g424
VNN
p2357
tp2358
a(g424
VNN
p2359
tp2360
a(g421
VFW
p2361
tp2362
a(g311
VNN
p2363
tp2364
a(g387
VNN
p2365
tp2366
a(g285
V''
p2367
tp2368
a(g22
g22
tp2369
a(g282
VNN
p2370
tp2371
a(g285
V''
p2372
tp2373
a(V`
p2374
g260
tp2375
a(g2374
V``
p2376
tp2377
a(g285
V''
p2378
tp2379
a(g22
g22
tp2380
a(g282
VNN
p2381
tp2382
a(g285
VPOS
p2383
tp2384
a(g380
VNN
p2385
tp2386
a(g418
VNN
p2387
tp2388
a(g335
VNN
p2389
tp2390
a(g303
VVBZ
p2391
tp2392
a(g343
VLS
p2393
tp2394
a(g285
V''
p2395
tp2396
a(g22
g22
tp2397
a(g282
VNN
p2398
tp2399
a(g285
VPOS
p2400
tp2401
a(g375
VNN
p2402
tp2403
a(g343
VSYM
p2404
tp2405
a(g141
VNN
p2406
tp2407
a(g303
VNN
p2408
tp2409
a(g335
VNN
p2410
tp2411
a(g311
VNN
p2412
tp2413
a(g309
VDT
p2414
tp2415
a(g418
VNN
p2416
tp2417
a(g285
V''
p2418
tp2419
a(g22
g22
tp2420
a(g282
VNN
p2421
tp2422
a(V"
p2423
V''
p2424
tp2425
a(g285
V''
p2426
tp2427
a(g285
V''
p2428
tp2429
a(g2423
V``
p2430
tp2431
a(g22
g22
tp2432
a(g282
VNN
p2433
tp2434
a(g285
VPOS
p2435
tp2436
a(g578
VNN
p2437
tp2438
a(g282
VNN
p2439
tp2440
a(g578
VNN
p2441
tp2442
a(g285
V''
p2443
tp2444
a(g22
g22
tp2445
a(g282
VNN
p2446
tp2447
a(g285
VPOS
p2448
tp2449
a(g306
VNN
p2450
tp2451
a(g309
VDT
p2452
tp2453
a(g306
VNN
p2454
tp2455
a(g289
VNN
p2456
tp2457
a(g285
V''
p2458
tp2459
a(g22
g22
tp2460
a(g282
VNN
p2461
tp2462
a(g285
V''
p2463
tp2464
a(g343
VLS
p2465
tp2466
a(g418
VNN
p2467
tp2468
a(g343
VSYM
p2469
tp2470
a(g375
VNN
p2471
tp2472
a(g298
VNN
p2473
tp2474
a(g309
VDT
p2475
tp2476
a(g311
VNN
p2477
tp2478
a(g424
VNN
p2479
tp2480
a(g303
VNN
p2481
tp2482
a(g285
V''
p2483
tp2484
a(g22
g22
tp2485
a(g282
VNN
p2486
tp2487
a(g285
VPOS
p2488
tp2489
a(g314
VNN
p2490
tp2491
a(g343
VSYM
p2492
tp2493
a(g418
VNN
p2494
tp2495
a(g421
VFW
p2496
tp2497
a(g387
VNN
p2498
tp2499
a(g298
VNN
p2500
tp2501
a(g424
VNN
p2502
tp2503
a(g719
VFW
p2504
tp2505
a(g282
VFW
p2506
tp2507
a(g418
VNN
p2508
tp2509
a(g112
g112
tp2510
a(g285
V''
p2511
tp2512
a(g22
g22
tp2513
a(g282
VNN
p2514
tp2515
a(g285
VPOS
p2516
tp2517
a(g843
VNN
p2518
tp2519
a(g298
VNN
p2520
tp2521
a(g343
VSYM
p2522
tp2523
a(g285
V''
p2524
tp2525
a(g22
g22
tp2526
a(g282
VNN
p2527
tp2528
a(g285
VPOS
p2529
tp2530
a(g303
VNN
p2531
tp2532
a(g424
VNN
p2533
tp2534
a(g309
VDT
p2535
tp2536
a(g719
VFW
p2537
tp2538
a(g719
VFW
p2539
tp2540
a(g285
V''
p2541
tp2542
a(g22
g22
tp2543
a(g282
VNN
p2544
tp2545
a(g285
V''
p2546
tp2547
a(g719
VLS
p2548
tp2549
a(g141
VNN
p2550
tp2551
a(g421
VFW
p2552
tp2553
a(g343
VLS
p2554
tp2555
a(g311
VNN
p2556
tp2557
a(g314
VNN
p2558
tp2559
a(g418
VNN
p2560
tp2561
a(g289
VNN
p2562
tp2563
a(g285
V''
p2564
tp2565
a(g22
g22
tp2566
a(g282
VNN
p2567
tp2568
a(g285
V''
p2569
tp2570
a(g343
VLS
p2571
tp2572
a(g311
VNN
p2573
tp2574
a(g424
VNN
p2575
tp2576
a(g298
VNN
p2577
tp2578
a(g282
VNN
p2579
tp2580
a(g303
VVBZ
p2581
tp2582
a(g421
VLS
p2583
tp2584
a(g309
VDT
p2585
tp2586
a(g303
VNN
p2587
tp2588
a(g424
VNN
p2589
tp2590
a(g421
VFW
p2591
tp2592
a(g380
VNN
p2593
tp2594
a(g285
V''
p2595
tp2596
a(g22
g22
tp2597
a(g282
VNN
p2598
tp2599
a(g285
V''
p2600
tp2601
a(V1
p2602
VCD
p2603
tp2604
a(V0
p2605
VCD
p2606
tp2607
a(g2605
VCD
p2608
tp2609
a(g285
V''
p2610
tp2611
a(g22
g22
tp2612
a(g282
VNN
p2613
tp2614
a(g285
V''
p2615
tp2616
a(g106
VNN
p2617
tp2618
a(g285
V''
p2619
tp2620
a(g22
g22
tp2621
a(g282
VNN
p2622
tp2623
a(g285
VPOS
p2624
tp2625
a(g340
VNN
p2626
tp2627
a(g311
VNN
p2628
tp2629
a(g335
VNN
p2630
tp2631
a(g726
VNN
p2632
tp2633
a(g418
VNN
p2634
tp2635
a(g343
VSYM
p2636
tp2637
a(g314
VNN
p2638
tp2639
a(g387
VNN
p2640
tp2641
a(g343
VSYM
p2642
tp2643
a(g309
VDT
p2644
tp2645
a(g306
VNN
p2646
tp2647
a(g418
VNN
p2648
tp2649
a(g343
VSYM
p2650
tp2651
a(g285
V''
p2652
tp2653
a(g22
g22
tp2654
a(g282
VNN
p2655
tp2656
a(g285
V''
p2657
tp2658
a(g112
g112
tp2659
a(g285
V''
p2660
tp2661
a(V]
p2662
VNN
p2663
tp2664
asS'tagged_title'
p2665
(lp2666
(g280
VFW
p2667
tp2668
a(g282
VFW
p2669
tp2670
a(g285
VPOS
p2671
tp2672
a(g1259
VNN
p2673
tp2674
a(g285
V''
p2675
tp2676
a(g22
g22
tp2677
a(g282
VNN
p2678
tp2679
a(g285
VPOS
p2680
tp2681
a(g387
VNN
p2682
tp2683
a(g141
VNN
p2684
tp2685
a(g343
VSYM
p2686
tp2687
a(g309
VDT
p2688
tp2689
a(g424
VNN
p2690
tp2691
a(g285
V''
p2692
tp2693
a(g22
g22
tp2694
a(g282
VNN
p2695
tp2696
a(g285
VPOS
p2697
tp2698
a(g424
VNN
p2699
tp2700
a(g421
VFW
p2701
tp2702
a(g578
VNN
p2703
tp2704
a(g343
VSYM
p2705
tp2706
a(g285
VPOS
p2707
tp2708
a(g2662
VNN
p2709
tp2710
asVtotal_points
p2711
V102
p2712
sVdate
p2713
V4/17/2009
p2714
sVtaObjectUrl
p2715
Vhttp://www.tripadvisor.com/Hotel_Review-g293892-d396932-Reviews-Machan_Wildlife_Resort-Chitwan_National_Park_Chitwan_District_Narayani_Zone_Central_Reg.html
p2716
sVtype
p2717
VHotels
p2718
sS'pos_unigram'
p2719
(lp2720
g263
ag283
ag266
ag262
ag290
ag267
ag22
ag294
ag296
ag299
ag301
ag304
ag307
ag271
ag312
ag315
ag317
ag22
ag320
ag322
ag269
ag326
ag22
ag329
ag331
ag333
ag336
ag338
ag341
ag265
ag345
ag347
ag22
ag350
ag352
ag272
ag355
ag22
ag358
ag360
ag362
ag364
ag366
ag368
ag22
ag371
ag373
ag376
ag378
ag381
ag383
ag385
ag388
ag390
ag392
ag22
ag395
ag397
ag399
ag401
ag403
ag405
ag407
ag409
ag411
ag22
ag414
ag416
ag419
ag422
ag425
ag427
ag429
ag431
ag433
ag22
ag436
ag438
ag441
ag443
ag22
ag446
ag448
ag264
ag451
ag22
ag454
ag456
ag458
ag460
ag22
ag463
ag465
ag467
ag469
ag471
ag473
ag475
ag477
ag479
ag481
ag483
ag22
ag486
ag488
ag491
ag274
ag495
ag497
ag499
ag501
ag503
ag505
ag22
ag508
ag510
ag512
ag514
ag516
ag518
ag520
ag522
ag524
ag22
ag527
ag529
ag531
ag533
ag535
ag537
ag539
ag541
ag543
ag22
ag546
ag548
ag550
ag552
ag554
ag556
ag558
ag560
ag562
ag22
ag565
ag567
ag570
ag572
ag574
ag576
ag579
ag581
ag583
ag585
ag587
ag112
ag590
ag22
ag593
ag595
ag597
ag599
ag601
ag22
ag604
ag606
ag608
ag610
ag22
ag613
ag615
ag617
ag619
ag621
ag623
ag625
ag627
ag22
ag630
ag632
ag261
ag635
ag22
ag638
ag640
ag642
ag644
ag646
ag648
ag650
ag652
ag654
ag656
ag658
ag660
ag22
ag663
ag665
ag667
ag669
ag671
ag673
ag675
ag677
ag679
ag681
ag683
ag685
ag687
ag689
ag691
ag22
ag694
ag696
ag698
ag700
ag702
ag704
ag706
ag708
ag710
ag712
ag22
ag715
ag717
ag720
ag722
ag724
ag727
ag729
ag731
ag733
ag735
ag22
ag738
ag740
ag261
ag743
ag22
ag746
ag748
ag750
ag752
ag754
ag756
ag758
ag760
ag762
ag22
ag765
ag767
ag769
ag771
ag773
ag775
ag777
ag22
ag780
ag782
ag784
ag786
ag788
ag790
ag792
ag794
ag796
ag798
ag800
ag802
ag22
ag805
ag807
ag809
ag811
ag813
ag815
ag817
ag22
ag820
ag822
ag825
ag827
ag829
ag831
ag833
ag112
ag836
ag22
ag839
ag841
ag844
ag846
ag848
ag850
ag22
ag853
ag855
ag858
ag860
ag862
ag864
ag866
ag868
ag870
ag22
ag873
ag875
ag877
ag879
ag881
ag883
ag885
ag887
ag889
ag891
ag22
ag894
ag896
ag898
ag900
ag902
ag904
ag906
ag908
ag910
ag912
ag914
ag22
ag917
ag919
ag22
ag922
ag22
ag925
ag927
ag929
ag931
ag933
ag935
ag937
ag939
ag941
ag943
ag945
ag947
ag22
ag950
ag952
ag954
ag956
ag958
ag960
ag962
ag964
ag966
ag968
ag970
ag22
ag973
ag975
ag977
ag979
ag981
ag983
ag985
ag987
ag989
ag112
ag992
ag22
ag995
ag997
ag1000
ag1002
ag1004
ag22
ag1007
ag1009
ag1011
ag1013
ag1015
ag1017
ag1019
ag1021
ag22
ag1024
ag1026
ag1028
ag1030
ag1032
ag1034
ag22
ag1037
ag1039
ag1041
ag1043
ag1045
ag1047
ag1049
ag1051
ag1053
ag22
ag1056
ag1058
ag22
ag1061
ag22
ag1064
ag1066
ag1068
ag1070
ag1072
ag1074
ag1076
ag22
ag1079
ag1081
ag22
ag1084
ag22
ag1087
ag1089
ag1091
ag1093
ag1095
ag1097
ag1099
ag1101
ag1103
ag1105
ag22
ag1108
ag1110
ag22
ag1113
ag22
ag1116
ag1118
ag1120
ag1122
ag1124
ag1126
ag1128
ag273
ag1131
ag22
ag1134
ag1136
ag22
ag1139
ag22
ag1142
ag1144
ag1146
ag1148
ag1150
ag1152
ag1154
ag22
ag1157
ag1159
ag1161
ag1163
ag1165
ag1167
ag1169
ag112
ag1172
ag22
ag1175
ag1177
ag1179
ag1181
ag1183
ag22
ag1186
ag1188
ag1190
ag1192
ag1194
ag1196
ag1198
ag1200
ag22
ag1203
ag1205
ag1207
ag1209
ag1211
ag1213
ag1215
ag1217
ag1219
ag1221
ag1223
ag1225
ag22
ag1228
ag1230
ag1232
ag1234
ag1236
ag1238
ag1240
ag1242
ag1244
ag22
ag1247
ag1249
ag112
ag1252
ag22
ag1255
ag1257
ag1260
ag1262
ag1264
ag1266
ag1268
ag1270
ag1272
ag1274
ag1276
ag1278
ag1280
ag1282
ag1284
ag1286
ag22
ag1289
ag1291
ag1293
ag1295
ag1297
ag1299
ag1301
ag1303
ag1305
ag22
ag1308
ag1310
ag1312
ag1314
ag1316
ag1318
ag1320
ag1322
ag1324
ag1326
ag1328
ag1330
ag1332
ag112
ag1335
ag22
ag1338
ag1340
ag1342
ag1344
ag1346
ag1348
ag22
ag1351
ag1353
ag1355
ag1357
ag1359
ag1361
ag1363
ag1365
ag1367
ag1369
ag1371
ag22
ag1374
ag1376
ag1378
ag1380
ag1382
ag1384
ag1386
ag22
ag1389
ag1391
ag1393
ag1395
ag270
ag1398
ag1400
ag1402
ag1404
ag1406
ag1408
ag1410
ag1412
ag1414
ag1416
ag1418
ag1420
ag22
ag1423
ag1425
ag22
ag1428
ag22
ag1431
ag1433
ag1435
ag1437
ag1439
ag1441
ag1443
ag1445
ag1447
ag22
ag1450
ag1452
ag1454
ag1456
ag1458
ag1460
ag1462
ag1464
ag1466
ag22
ag1469
ag1471
ag1473
ag1475
ag1477
ag1480
ag1482
ag1484
ag112
ag1487
ag22
ag1490
ag1492
ag1494
ag1496
ag1498
ag1500
ag22
ag1503
ag1505
ag1507
ag1509
ag1511
ag1513
ag1515
ag1517
ag1519
ag1521
ag1523
ag22
ag1526
ag1528
ag1530
ag1532
ag1534
ag1536
ag1538
ag1540
ag22
ag1543
ag1545
ag1547
ag1549
ag1551
ag1553
ag1555
ag1557
ag112
ag1560
ag22
ag1563
ag1565
ag1567
ag1569
ag22
ag1572
ag1574
ag1576
ag1578
ag1580
ag1582
ag1584
ag1586
ag1588
ag1590
ag22
ag1593
ag1595
ag1597
ag1599
ag1601
ag1603
ag1605
ag1607
ag1609
ag1611
ag1613
ag22
ag1616
ag1618
ag1620
ag1622
ag1624
ag1626
ag1628
ag1630
ag1632
ag1634
ag1636
ag22
ag1639
ag1641
ag1643
ag1645
ag1647
ag1649
ag1651
ag1653
ag1655
ag22
ag1658
ag1660
ag1662
ag1664
ag1666
ag1668
ag22
ag1671
ag1673
ag1675
ag1677
ag1679
ag1681
ag1683
ag1685
ag1687
ag1689
ag1691
ag1693
ag22
ag1696
ag1698
ag22
ag1701
ag22
ag1704
ag1706
ag1708
ag1710
ag1712
ag1714
ag1716
ag1718
ag1720
ag1722
ag1724
ag22
ag1727
ag1729
ag1731
ag1733
ag1735
ag1737
ag1739
ag1741
ag1743
ag1745
ag1747
ag1749
ag1751
ag22
ag1754
ag1756
ag1758
ag1760
ag1762
ag1764
ag1766
ag1768
ag1770
ag1772
ag1774
ag1776
ag22
ag1779
ag1781
ag1783
ag1785
ag1787
ag1789
ag1791
ag1793
ag1795
ag1797
ag112
ag1800
ag22
ag1803
ag1805
ag268
ag1809
ag1811
ag1813
ag1815
ag1817
ag22
ag1820
ag1822
ag1824
ag1826
ag1828
ag1830
ag1832
ag1834
ag1836
ag1838
ag1840
ag22
ag1843
ag1845
ag1847
ag1849
ag1851
ag1853
ag1855
ag22
ag1858
ag1860
ag261
ag1863
ag22
ag1866
ag1868
ag1870
ag1872
ag1874
ag1876
ag1878
ag1880
ag1882
ag1884
ag1886
ag22
ag1889
ag1891
ag1893
ag1895
ag1897
ag1899
ag22
ag1902
ag1904
ag1906
ag1908
ag1910
ag1912
ag1914
ag1916
ag1918
ag1920
ag22
ag1923
ag1925
ag112
ag1928
ag22
ag1931
ag1933
ag1935
ag1937
ag1939
ag1941
ag22
ag1944
ag1946
ag1948
ag1950
ag1952
ag1954
ag1956
ag1958
ag1960
ag1962
ag1964
ag1966
ag1968
ag22
ag1971
ag1973
ag1975
ag1977
ag1979
ag1981
ag1983
ag1985
ag1987
ag1989
ag1991
ag22
ag1994
ag1996
ag1998
ag2000
ag2002
ag2004
ag2006
ag112
ag2009
ag22
ag2012
ag2014
ag2017
ag2019
ag2021
ag2023
ag2025
ag2027
ag2029
ag22
ag2032
ag2034
ag2036
ag2038
ag2040
ag2042
ag2044
ag2046
ag2048
ag2050
ag22
ag2053
ag2055
ag2057
ag2059
ag2061
ag2063
ag2065
ag2067
ag22
ag2070
ag2072
ag2074
ag2076
ag2078
ag2080
ag2082
ag2084
ag2086
ag22
ag2089
ag2091
ag2093
ag2095
ag2097
ag2099
ag2101
ag2103
ag2105
ag2107
ag2109
ag2111
ag2113
ag22
ag2116
ag2118
ag2120
ag2122
ag2124
ag2126
ag2128
ag2130
ag2132
ag2134
ag22
ag2137
ag2139
ag2141
ag2143
ag2145
ag2147
ag2149
ag2151
ag2153
ag2155
ag2157
ag2159
ag2161
ag22
ag2164
ag2166
ag2168
ag2170
ag2172
ag2174
ag2176
ag2178
ag2180
ag2182
ag22
ag2185
ag2187
ag2189
ag2191
ag2193
ag2195
ag112
ag2198
ag22
ag2201
ag2203
ag2205
ag2207
ag2209
ag2211
ag2213
ag2215
ag2217
ag2219
ag2221
ag2223
ag2225
ag2227
ag2229
ag22
ag2232
ag2234
ag2236
ag2238
ag2240
ag2242
ag2244
ag2246
ag22
ag2249
ag2251
ag2253
ag2255
ag2257
ag2259
ag2261
ag2263
ag2265
ag2267
ag2269
ag22
ag2272
ag2274
ag2276
ag2278
ag2280
ag2282
ag2284
ag2286
ag2288
ag22
ag2291
ag2293
ag2295
ag2297
ag22
ag2300
ag2302
ag2304
ag2306
ag2308
ag2310
ag2312
ag22
ag2315
ag2317
ag2319
ag2321
ag2323
ag2325
ag2327
ag2329
ag22
ag2332
ag2334
ag2336
ag2338
ag22
ag2341
ag2343
ag22
ag2346
ag22
ag2349
ag2351
ag2353
ag2355
ag2357
ag2359
ag2361
ag2363
ag2365
ag2367
ag22
ag2370
ag2372
ag260
ag2376
ag2378
ag22
ag2381
ag2383
ag2385
ag2387
ag2389
ag2391
ag2393
ag2395
ag22
ag2398
ag2400
ag2402
ag2404
ag2406
ag2408
ag2410
ag2412
ag2414
ag2416
ag2418
ag22
ag2421
ag2424
ag2426
ag2428
ag2430
ag22
ag2433
ag2435
ag2437
ag2439
ag2441
ag2443
ag22
ag2446
ag2448
ag2450
ag2452
ag2454
ag2456
ag2458
ag22
ag2461
ag2463
ag2465
ag2467
ag2469
ag2471
ag2473
ag2475
ag2477
ag2479
ag2481
ag2483
ag22
ag2486
ag2488
ag2490
ag2492
ag2494
ag2496
ag2498
ag2500
ag2502
ag2504
ag2506
ag2508
ag112
ag2511
ag22
ag2514
ag2516
ag2518
ag2520
ag2522
ag2524
ag22
ag2527
ag2529
ag2531
ag2533
ag2535
ag2537
ag2539
ag2541
ag22
ag2544
ag2546
ag2548
ag2550
ag2552
ag2554
ag2556
ag2558
ag2560
ag2562
ag2564
ag22
ag2567
ag2569
ag2571
ag2573
ag2575
ag2577
ag2579
ag2581
ag2583
ag2585
ag2587
ag2589
ag2591
ag2593
ag2595
ag22
ag2598
ag2600
ag2603
ag2606
ag2608
ag2610
ag22
ag2613
ag2615
ag2617
ag2619
ag22
ag2622
ag2624
ag2626
ag2628
ag2630
ag2632
ag2634
ag2636
ag2638
ag2640
ag2642
ag2644
ag2646
ag2648
ag2650
ag2652
ag22
ag2655
ag2657
ag112
ag2660
ag2663
asVhelpfulness
p2721
V2
p2722
sVtaObjectCity
p2723
VChitwan National Park
p2724
s.(dp0
Vrating
p1
V4
p2
sVtext
p3
VWe spent one week here and no complaints. Airport pick up was included. It was close to the metro. Staff were pleasant and helpful. The room was well equipped, quiet, and clean. The included breakfast was simple.
p4
sS'title_length'
p5
I212
sS'bigram_counts'
p6
ccollections
Counter
p7
((dp8
(Vcomplaints.
p9
Vairport
p10
tp11
I1
s(Vquiet
p12
V,
p13
tp14
I1
s(Vone
p15
Vweek
p16
tp17
I1
s(g13
g12
tp18
I1
s(Vpick
p19
Vincluded.
p20
tp21
I1
s(Vincluded
p22
Vbreakfast
p23
tp24
I1
s(g13
Vclean.
p25
tp26
I1
s(g25
g22
tp27
I1
s(Vpleasant
p28
Vhelpful.
p29
tp30
I1
s(Vclose
p31
Vmetro.
p32
tp33
I1
s(Vsimple
p34
V.
p35
tp36
I1
s(g32
Vstaff
p37
tp38
I1
s(g10
g19
tp39
I1
s(g16
g9
tp40
I1
s(Vspent
p41
g15
tp42
I1
s(g37
g28
tp43
I1
s(g23
g34
tp44
I1
s(g29
Vroom
p45
tp46
I1
s(Vwell
p47
Vequipped
p48
tp49
I1
s(g48
g13
tp50
I1
s(g45
g47
tp51
I1
s(g20
g31
tp52
I1
stp53
Rp54
sS'rev_unigrams'
p55
(lp56
g41
ag15
ag16
ag9
ag10
ag19
ag20
ag31
ag32
ag37
ag28
ag29
ag45
ag47
ag48
ag13
ag12
ag13
ag25
ag22
ag23
ag34
ag35
asVid
p57
V16360
p58
sVtaObject
p59
VQuality Hotel Abaca Messidor Paris
p60
sVtitle
p61
VVery satisfied with this hotel.
p62
sS'unigram_counts'
p63
g7
((dp64
g29
I1
sg16
I1
sg32
I1
sg34
I1
sg19
I1
sg15
I1
sg28
I1
sg9
I1
sg20
I1
sg22
I1
sg31
I1
sg23
I1
sg37
I1
sg45
I1
sg47
I1
sg13
I2
sg35
I1
sg25
I1
sg10
I1
sg12
I1
sg48
I1
sg41
I1
stp65
Rp66
sS'rev_bigrams'
p67
(lp68
g42
ag17
ag40
ag11
ag39
ag21
ag52
ag33
ag38
ag43
ag30
ag46
ag51
ag49
ag50
ag18
ag14
ag26
ag27
ag24
ag44
ag36
asS'pos_count'
p69
ccollections
defaultdict
p70
(c__builtin__
int
p71
tp72
Rp73
VNN
p74
I106
sVFW
p75
I22
sg13
I28
sVSYM
p76
I16
sVPOS
p77
I19
sV''
p78
I35
sVLS
p79
I7
sVVBZ
p80
I1
sVDT
p81
I7
sg35
I6
ssS'rev_length'
p82
I212
sVusername
p83
VBrinoabroad
p84
sS'tagged_text'
p85
(lp86
(V[
p87
g75
tp88
a(Vu
p89
VFW
p90
tp91
a(V'
p92
g77
tp93
a(VW
p94
g74
tp95
a(Ve
p96
g76
tp97
a(g92
g78
tp98
a(g13
g13
tp99
a(g89
VNN
p100
tp101
a(g92
VPOS
p102
tp103
a(Vs
p104
VNN
p105
tp106
a(Vp
p107
VNN
p108
tp109
a(g96
VSYM
p110
tp111
a(Vn
p112
VNN
p113
tp114
a(Vt
p115
VNN
p116
tp117
a(g92
V''
p118
tp119
a(g13
g13
tp120
a(g89
VNN
p121
tp122
a(g92
VPOS
p123
tp124
a(Vo
p125
VNN
p126
tp127
a(g112
VNN
p128
tp129
a(g96
VSYM
p130
tp131
a(g92
V''
p132
tp133
a(g13
g13
tp134
a(g89
VNN
p135
tp136
a(g92
VPOS
p137
tp138
a(Vw
p139
VNN
p140
tp141
a(g96
VSYM
p142
tp143
a(g96
g79
tp144
a(Vk
p145
VNN
p146
tp147
a(g92
V''
p148
tp149
a(g13
g13
tp150
a(g89
VNN
p151
tp152
a(g92
VPOS
p153
tp154
a(Vc
p155
VNN
p156
tp157
a(g125
VNN
p158
tp159
a(Vm
p160
VNN
p161
tp162
a(g107
VNN
p163
tp164
a(Vl
p165
VNN
p166
tp167
a(Va
p168
VFW
p169
tp170
a(Vi
p171
VFW
p172
tp173
a(g112
VNN
p174
tp175
a(g115
VNN
p176
tp177
a(g104
VNN
p178
tp179
a(g35
g35
tp180
a(g92
V''
p181
tp182
a(g13
g13
tp183
a(g89
VNN
p184
tp185
a(g92
V''
p186
tp187
a(VA
p188
g81
tp189
a(g171
VFW
p190
tp191
a(Vr
p192
VNN
p193
tp194
a(g107
VNN
p195
tp196
a(g125
VNN
p197
tp198
a(g192
VNN
p199
tp200
a(g115
VNN
p201
tp202
a(g92
V''
p203
tp204
a(g13
g13
tp205
a(g89
VNN
p206
tp207
a(g92
VPOS
p208
tp209
a(g107
VNN
p210
tp211
a(g171
VFW
p212
tp213
a(g155
VNN
p214
tp215
a(g145
VNN
p216
tp217
a(g92
V''
p218
tp219
a(g13
g13
tp220
a(g89
VNN
p221
tp222
a(g92
V''
p223
tp224
a(g171
VLS
p225
tp226
a(g112
VNN
p227
tp228
a(g155
VNN
p229
tp230
a(g165
VNN
p231
tp232
a(g89
VFW
p233
tp234
a(Vd
p235
VFW
p236
tp237
a(g96
VLS
p238
tp239
a(g235
VNN
p240
tp241
a(g35
g35
tp242
a(g92
V''
p243
tp244
a(g13
g13
tp245
a(g89
VNN
p246
tp247
a(g92
VPOS
p248
tp249
a(VI
p250
VNN
p251
tp252
a(g115
VNN
p253
tp254
a(g92
V''
p255
tp256
a(g13
g13
tp257
a(g89
VNN
p258
tp259
a(g92
VPOS
p260
tp261
a(g155
VNN
p262
tp263
a(g165
VNN
p264
tp265
a(g125
VNN
p266
tp267
a(g104
g80
tp268
a(g96
VLS
p269
tp270
a(g92
V''
p271
tp272
a(g13
g13
tp273
a(g89
VNN
p274
tp275
a(g92
VPOS
p276
tp277
a(g160
VNN
p278
tp279
a(g96
VSYM
p280
tp281
a(g115
VNN
p282
tp283
a(g192
VNN
p284
tp285
a(g125
VNN
p286
tp287
a(g35
g35
tp288
a(g92
V''
p289
tp290
a(g13
g13
tp291
a(g89
VNN
p292
tp293
a(g92
VPOS
p294
tp295
a(VS
p296
VNN
p297
tp298
a(g115
VNN
p299
tp300
a(g168
VDT
p301
tp302
a(Vf
p303
VFW
p304
tp305
a(g303
VFW
p306
tp307
a(g92
V''
p308
tp309
a(g13
g13
tp310
a(g89
VNN
p311
tp312
a(g92
VPOS
p313
tp314
a(g107
VNN
p315
tp316
a(g165
VNN
p317
tp318
a(g96
VSYM
p319
tp320
a(g168
VDT
p321
tp322
a(g104
VNN
p323
tp324
a(g168
VDT
p325
tp326
a(g112
VNN
p327
tp328
a(g115
VNN
p329
tp330
a(g92
V''
p331
tp332
a(g13
g13
tp333
a(g89
VNN
p334
tp335
a(g92
VPOS
p336
tp337
a(Vh
p338
VNN
p339
tp340
a(g96
VSYM
p341
tp342
a(g165
VNN
p343
tp344
a(g107
VNN
p345
tp346
a(g303
VFW
p347
tp348
a(g89
VFW
p349
tp350
a(g165
VNN
p351
tp352
a(g35
g35
tp353
a(g92
V''
p354
tp355
a(g13
g13
tp356
a(g89
VNN
p357
tp358
a(g92
VPOS
p359
tp360
a(VT
p361
VNN
p362
tp363
a(g338
VNN
p364
tp365
a(g96
VSYM
p366
tp367
a(g92
V''
p368
tp369
a(g13
g13
tp370
a(g89
VNN
p371
tp372
a(g92
VPOS
p373
tp374
a(g192
VNN
p375
tp376
a(g125
VNN
p377
tp378
a(g125
VNN
p379
tp380
a(g160
VNN
p381
tp382
a(g92
V''
p383
tp384
a(g13
g13
tp385
a(g89
VNN
p386
tp387
a(g92
VPOS
p388
tp389
a(g139
VNN
p390
tp391
a(g96
VSYM
p392
tp393
a(g165
VNN
p394
tp395
a(g165
VNN
p396
tp397
a(g92
V''
p398
tp399
a(g13
g13
tp400
a(g89
VNN
p401
tp402
a(g92
V''
p403
tp404
a(g96
VSYM
p405
tp406
a(Vq
p407
VFW
p408
tp409
a(g89
VFW
p410
tp411
a(g171
VFW
p412
tp413
a(g107
VNN
p414
tp415
a(g107
VNN
p416
tp417
a(g96
VSYM
p418
tp419
a(g235
VFW
p420
tp421
a(g92
V''
p422
tp423
a(g13
g13
tp424
a(g89
VNN
p425
tp426
a(g92
V''
p427
tp428
a(g13
g13
tp429
a(g92
V''
p430
tp431
a(g13
g13
tp432
a(g89
VNN
p433
tp434
a(g92
V''
p435
tp436
a(g407
VFW
p437
tp438
a(g89
VFW
p439
tp440
a(g171
VFW
p441
tp442
a(g96
VLS
p443
tp444
a(g115
VNN
p445
tp446
a(g92
V''
p447
tp448
a(g13
g13
tp449
a(g89
VNN
p450
tp451
a(g92
V''
p452
tp453
a(g13
g13
tp454
a(g92
V''
p455
tp456
a(g13
g13
tp457
a(g89
VNN
p458
tp459
a(g92
VPOS
p460
tp461
a(g155
VNN
p462
tp463
a(g165
VNN
p464
tp465
a(g96
VSYM
p466
tp467
a(g168
VDT
p468
tp469
a(g112
VNN
p470
tp471
a(g35
g35
tp472
a(g92
V''
p473
tp474
a(g13
g13
tp475
a(g89
VNN
p476
tp477
a(g92
VPOS
p478
tp479
a(g361
VNN
p480
tp481
a(g338
VNN
p482
tp483
a(g96
VSYM
p484
tp485
a(g92
V''
p486
tp487
a(g13
g13
tp488
a(g89
VNN
p489
tp490
a(g92
V''
p491
tp492
a(g171
VLS
p493
tp494
a(g112
VNN
p495
tp496
a(g155
VNN
p497
tp498
a(g165
VNN
p499
tp500
a(g89
VFW
p501
tp502
a(g235
VFW
p503
tp504
a(g96
VLS
p505
tp506
a(g235
VNN
p507
tp508
a(g92
V''
p509
tp510
a(g13
g13
tp511
a(g89
VNN
p512
tp513
a(g92
VPOS
p514
tp515
a(Vb
p516
VNN
p517
tp518
a(g192
VNN
p519
tp520
a(g96
VSYM
p521
tp522
a(g168
VDT
p523
tp524
a(g145
VNN
p525
tp526
a(g303
VSYM
p527
tp528
a(g168
VDT
p529
tp530
a(g104
VNN
p531
tp532
a(g115
VNN
p533
tp534
a(g92
V''
p535
tp536
a(g13
g13
tp537
a(g89
VNN
p538
tp539
a(g92
VPOS
p540
tp541
a(g104
VNN
p542
tp543
a(g171
VFW
p544
tp545
a(g160
VNN
p546
tp547
a(g107
VNN
p548
tp549
a(g165
VNN
p550
tp551
a(g96
VSYM
p552
tp553
a(g92
V''
p554
tp555
a(g13
g13
tp556
a(g89
VNN
p557
tp558
a(g92
V''
p559
tp560
a(g35
g35
tp561
a(g92
V''
p562
tp563
a(V]
p564
VNN
p565
tp566
asS'tagged_title'
p567
(lp568
(g87
VFW
p569
tp570
a(g89
VFW
p571
tp572
a(g92
VPOS
p573
tp574
a(VV
p575
VNN
p576
tp577
a(g96
VSYM
p578
tp579
a(g192
VNN
p580
tp581
a(Vy
p582
VNN
p583
tp584
a(g92
V''
p585
tp586
a(g13
g13
tp587
a(g89
VNN
p588
tp589
a(g92
V''
p590
tp591
a(g104
VVBZ
p592
tp593
a(g168
VDT
p594
tp595
a(g115
VNN
p596
tp597
a(g171
VFW
p598
tp599
a(g104
VVBZ
p600
tp601
a(g303
VFW
p602
tp603
a(g171
VFW
p604
tp605
a(g96
VLS
p606
tp607
a(g235
VNN
p608
tp609
a(g92
V''
p610
tp611
a(g13
g13
tp612
a(g89
VNN
p613
tp614
a(g92
V''
p615
tp616
a(g139
VFW
p617
tp618
a(g171
VFW
p619
tp620
a(g115
VNN
p621
tp622
a(g338
VNN
p623
tp624
a(g92
V''
p625
tp626
a(g13
g13
tp627
a(g89
VNN
p628
tp629
a(g92
VPOS
p630
tp631
a(g115
VNN
p632
tp633
a(g338
VNN
p634
tp635
a(g171
VLS
p636
tp637
a(g104
VNNS
p638
tp639
a(g92
VPOS
p640
tp641
a(g13
g13
tp642
a(g89
VNN
p643
tp644
a(g92
VPOS
p645
tp646
a(g338
VNN
p647
tp648
a(g125
VNN
p649
tp650
a(g115
VNN
p651
tp652
a(g96
VSYM
p653
tp654
a(g165
VNN
p655
tp656
a(g92
V''
p657
tp658
a(g13
g13
tp659
a(g89
VNN
p660
tp661
a(g92
V''
p662
tp663
a(g35
g35
tp664
a(g92
V''
p665
tp666
a(g564
VNN
p667
tp668
asVtotal_points
p669
V101
p670
sVdate
p671
V4/17/2009
p672
sVtaObjectUrl
p673
Vhttp://www.tripadvisor.com/Hotel_Review-g187147-d197657-Reviews-Quality_Hotel_Abaca_Messidor_Paris-Paris_Ile_de_France.html
p674
sVtype
p675
VHotels
p676
sS'pos_unigram'
p677
(lp678
g75
ag90
ag77
ag74
ag76
ag78
ag13
ag100
ag102
ag105
ag108
ag110
ag113
ag116
ag118
ag13
ag121
ag123
ag126
ag128
ag130
ag132
ag13
ag135
ag137
ag140
ag142
ag79
ag146
ag148
ag13
ag151
ag153
ag156
ag158
ag161
ag163
ag166
ag169
ag172
ag174
ag176
ag178
ag35
ag181
ag13
ag184
ag186
ag81
ag190
ag193
ag195
ag197
ag199
ag201
ag203
ag13
ag206
ag208
ag210
ag212
ag214
ag216
ag218
ag13
ag221
ag223
ag225
ag227
ag229
ag231
ag233
ag236
ag238
ag240
ag35
ag243
ag13
ag246
ag248
ag251
ag253
ag255
ag13
ag258
ag260
ag262
ag264
ag266
ag80
ag269
ag271
ag13
ag274
ag276
ag278
ag280
ag282
ag284
ag286
ag35
ag289
ag13
ag292
ag294
ag297
ag299
ag301
ag304
ag306
ag308
ag13
ag311
ag313
ag315
ag317
ag319
ag321
ag323
ag325
ag327
ag329
ag331
ag13
ag334
ag336
ag339
ag341
ag343
ag345
ag347
ag349
ag351
ag35
ag354
ag13
ag357
ag359
ag362
ag364
ag366
ag368
ag13
ag371
ag373
ag375
ag377
ag379
ag381
ag383
ag13
ag386
ag388
ag390
ag392
ag394
ag396
ag398
ag13
ag401
ag403
ag405
ag408
ag410
ag412
ag414
ag416
ag418
ag420
ag422
ag13
ag425
ag427
ag13
ag430
ag13
ag433
ag435
ag437
ag439
ag441
ag443
ag445
ag447
ag13
ag450
ag452
ag13
ag455
ag13
ag458
ag460
ag462
ag464
ag466
ag468
ag470
ag35
ag473
ag13
ag476
ag478
ag480
ag482
ag484
ag486
ag13
ag489
ag491
ag493
ag495
ag497
ag499
ag501
ag503
ag505
ag507
ag509
ag13
ag512
ag514
ag517
ag519
ag521
ag523
ag525
ag527
ag529
ag531
ag533
ag535
ag13
ag538
ag540
ag542
ag544
ag546
ag548
ag550
ag552
ag554
ag13
ag557
ag559
ag35
ag562
ag565
asVhelpfulness
p679
V1
p680
sVtaObjectCity
p681
VParis
p682
s.(dp0
Vrating
p1
V3
p2
sVtext
p3
VA small place, a short walk across the train tracks from the city center. The rooms were basic, but clean and adequate. It was quiet. The courtyard is a pleasant place to spend time and read a book. The staff were friendly and polite, although not overly helpful. A decent, no-frills, budget choice.
p4
sS'title_length'
p5
I299
sS'bigram_counts'
p6
ccollections
Counter
p7
((dp8
(Vplace
p9
V,
p10
tp11
I1
s(Vcourtyard
p12
Vpleasant
p13
tp14
I1
s(Vclean
p15
Vadequate.
p16
tp17
I1
s(Vno-frills
p18
g10
tp19
I1
s(Vplace
p20
Vspend
p21
tp22
I1
s(g10
g18
tp23
I1
s(g16
Vquiet.
p24
tp25
I1
s(Voverly
p26
Vhelpful.
p27
tp28
I1
s(Vsmall
p29
g9
tp30
I1
s(Vread
p31
Vbook.
p32
tp33
I1
s(Vtrain
p34
Vtracks
p35
tp36
I1
s(Vstaff
p37
Vfriendly
p38
tp39
I1
s(Vtime
p40
g31
tp41
I1
s(Vwalk
p42
Vacross
p43
tp44
I1
s(Vcity
p45
Vcenter.
p46
tp47
I1
s(g35
g45
tp48
I1
s(g10
g15
tp49
I1
s(g24
g12
tp50
I1
s(g10
Vbudget
p51
tp52
I1
s(Vshort
p53
g42
tp54
I1
s(Vrooms
p55
Vbasic
p56
tp57
I1
s(g21
g40
tp58
I1
s(g13
g20
tp59
I1
s(g27
Vdecent
p60
tp61
I1
s(g46
g55
tp62
I1
s(Vchoice
p63
V.
p64
tp65
I1
s(g10
Valthough
p66
tp67
I1
s(g60
g10
tp68
I1
s(g32
g37
tp69
I1
s(Vpolite
p70
g10
tp71
I1
s(g66
g26
tp72
I1
s(g43
g34
tp73
I1
s(g51
g63
tp74
I1
s(g38
g70
tp75
I1
s(g56
g10
tp76
I1
s(g10
g53
tp77
I1
stp78
Rp79
sS'rev_unigrams'
p80
(lp81
g29
ag9
ag10
ag53
ag42
ag43
ag34
ag35
ag45
ag46
ag55
ag56
ag10
ag15
ag16
ag24
ag12
ag13
ag20
ag21
ag40
ag31
ag32
ag37
ag38
ag70
ag10
ag66
ag26
ag27
ag60
ag10
ag18
ag10
ag51
ag63
ag64
asVid
p82
V16361
p83
sVtaObject
p84
VNur Pension
p85
sVtitle
p86
VBasic hotel, basic service.
p87
sS'unigram_counts'
p88
g7
((dp89
g27
I1
sg42
I1
sg24
I1
sg55
I1
sg37
I1
sg45
I1
sg60
I1
sg10
I5
sg64
I1
sg16
I1
sg56
I1
sg43
I1
sg46
I1
sg26
I1
sg18
I1
sg31
I1
sg70
I1
sg32
I1
sg63
I1
sg12
I1
sg35
I1
sg34
I1
sg66
I1
sg13
I1
sg53
I1
sg51
I1
sg38
I1
sg9
I2
sg15
I1
sg40
I1
sg29
I1
sg21
I1
stp90
Rp91
sS'rev_bigrams'
p92
(lp93
g30
ag11
ag77
ag54
ag44
ag73
ag36
ag48
ag47
ag62
ag57
ag76
ag49
ag17
ag25
ag50
ag14
ag59
ag22
ag58
ag41
ag33
ag69
ag39
ag75
ag71
ag67
ag72
ag28
ag61
ag68
ag23
ag19
ag52
ag74
ag65
asS'pos_count'
p94
ccollections
defaultdict
p95
(c__builtin__
int
p96
tp97
Rp98
V:
p99
I1
sVNN
p100
I174
sVFW
p101
I18
sg10
I47
sVSYM
p102
I18
sVPOS
p103
I30
sV''
p104
I56
sVLS
p105
I11
sVDT
p106
I16
sg64
I6
ssS'rev_length'
p107
I299
sVusername
p108
VBrinoabroad
p109
sS'tagged_text'
p110
(lp111
(V[
p112
g101
tp113
a(Vu
p114
VFW
p115
tp116
a(V'
p117
g103
tp118
a(VA
p119
g100
tp120
a(g117
g104
tp121
a(g10
g10
tp122
a(g114
VNN
p123
tp124
a(g117
VPOS
p125
tp126
a(Vs
p127
VNN
p128
tp129
a(Vm
p130
VNN
p131
tp132
a(Va
p133
g106
tp134
a(Vl
p135
VNN
p136
tp137
a(g135
VNN
p138
tp139
a(g117
V''
p140
tp141
a(g10
g10
tp142
a(g114
VNN
p143
tp144
a(g117
VPOS
p145
tp146
a(Vp
p147
VNN
p148
tp149
a(g135
VNN
p150
tp151
a(g133
VDT
p152
tp153
a(Vc
p154
VNN
p155
tp156
a(Ve
p157
g102
tp158
a(g117
V''
p159
tp160
a(g10
g10
tp161
a(g114
VNN
p162
tp163
a(g117
V''
p164
tp165
a(g10
g10
tp166
a(g117
V''
p167
tp168
a(g10
g10
tp169
a(g114
VNN
p170
tp171
a(g117
VPOS
p172
tp173
a(g127
VNN
p174
tp175
a(Vh
p176
VNN
p177
tp178
a(Vo
p179
VNN
p180
tp181
a(Vr
p182
VNN
p183
tp184
a(Vt
p185
VNN
p186
tp187
a(g117
V''
p188
tp189
a(g10
g10
tp190
a(g114
VNN
p191
tp192
a(g117
V''
p193
tp194
a(Vw
p195
VNN
p196
tp197
a(g133
VDT
p198
tp199
a(g135
VNN
p200
tp201
a(Vk
p202
VNN
p203
tp204
a(g117
V''
p205
tp206
a(g10
g10
tp207
a(g114
VNN
p208
tp209
a(g117
V''
p210
tp211
a(g133
VDT
p212
tp213
a(g154
VNN
p214
tp215
a(g182
VNN
p216
tp217
a(g179
VNN
p218
tp219
a(g127
VNN
p220
tp221
a(g127
VNN
p222
tp223
a(g117
V''
p224
tp225
a(g10
g10
tp226
a(g114
VNN
p227
tp228
a(g117
VPOS
p229
tp230
a(g185
VNN
p231
tp232
a(g182
VNN
p233
tp234
a(g133
VFW
p235
tp236
a(Vi
p237
VFW
p238
tp239
a(Vn
p240
VNN
p241
tp242
a(g117
V''
p243
tp244
a(g10
g10
tp245
a(g114
VNN
p246
tp247
a(g117
VPOS
p248
tp249
a(g185
VNN
p250
tp251
a(g182
VNN
p252
tp253
a(g133
VDT
p254
tp255
a(g154
VNN
p256
tp257
a(g202
VNN
p258
tp259
a(g127
VNN
p260
tp261
a(g117
V''
p262
tp263
a(g10
g10
tp264
a(g114
VNN
p265
tp266
a(g117
VPOS
p267
tp268
a(g154
VNN
p269
tp270
a(g237
VFW
p271
tp272
a(g185
VNN
p273
tp274
a(Vy
p275
VNN
p276
tp277
a(g117
V''
p278
tp279
a(g10
g10
tp280
a(g114
VNN
p281
tp282
a(g117
VPOS
p283
tp284
a(g154
VNN
p285
tp286
a(g157
VSYM
p287
tp288
a(g240
VNN
p289
tp290
a(g185
VNN
p291
tp292
a(g157
VSYM
p293
tp294
a(g182
VNN
p295
tp296
a(g64
g64
tp297
a(g117
V''
p298
tp299
a(g10
g10
tp300
a(g114
VNN
p301
tp302
a(g117
VPOS
p303
tp304
a(VT
p305
VNN
p306
tp307
a(g176
VNN
p308
tp309
a(g157
VSYM
p310
tp311
a(g117
V''
p312
tp313
a(g10
g10
tp314
a(g114
VNN
p315
tp316
a(g117
VPOS
p317
tp318
a(g182
VNN
p319
tp320
a(g179
VNN
p321
tp322
a(g179
VNN
p323
tp324
a(g130
VNN
p325
tp326
a(g127
VNN
p327
tp328
a(g117
V''
p329
tp330
a(g10
g10
tp331
a(g114
VNN
p332
tp333
a(g117
V''
p334
tp335
a(Vb
p336
VNN
p337
tp338
a(g133
VDT
p339
tp340
a(g127
VNN
p341
tp342
a(g237
VFW
p343
tp344
a(g154
VNN
p345
tp346
a(g117
V''
p347
tp348
a(g10
g10
tp349
a(g114
VNN
p350
tp351
a(g117
V''
p352
tp353
a(g10
g10
tp354
a(g117
V''
p355
tp356
a(g10
g10
tp357
a(g114
VNN
p358
tp359
a(g117
VPOS
p360
tp361
a(g154
VNN
p362
tp363
a(g135
VNN
p364
tp365
a(g157
VSYM
p366
tp367
a(g133
VDT
p368
tp369
a(g240
VNN
p370
tp371
a(g117
V''
p372
tp373
a(g10
g10
tp374
a(g114
VNN
p375
tp376
a(g117
V''
p377
tp378
a(g133
VDT
p379
tp380
a(Vd
p381
VNN
p382
tp383
a(g157
VSYM
p384
tp385
a(Vq
p386
VFW
p387
tp388
a(g114
VFW
p389
tp390
a(g133
VDT
p391
tp392
a(g185
VNN
p393
tp394
a(g157
g105
tp395
a(g64
g64
tp396
a(g117
V''
p397
tp398
a(g10
g10
tp399
a(g114
VNN
p400
tp401
a(g117
VPOS
p402
tp403
a(VI
p404
VNN
p405
tp406
a(g185
VNN
p407
tp408
a(g117
V''
p409
tp410
a(g10
g10
tp411
a(g114
VNN
p412
tp413
a(g117
V''
p414
tp415
a(g386
VFW
p416
tp417
a(g114
VFW
p418
tp419
a(g237
VFW
p420
tp421
a(g157
VLS
p422
tp423
a(g185
VNN
p424
tp425
a(g64
g64
tp426
a(g117
V''
p427
tp428
a(g10
g10
tp429
a(g114
VNN
p430
tp431
a(g117
VPOS
p432
tp433
a(g305
VNN
p434
tp435
a(g176
VNN
p436
tp437
a(g157
VSYM
p438
tp439
a(g117
V''
p440
tp441
a(g10
g10
tp442
a(g114
VNN
p443
tp444
a(g117
VPOS
p445
tp446
a(g154
VNN
p447
tp448
a(g179
VNN
p449
tp450
a(g114
VNN
p451
tp452
a(g182
VNN
p453
tp454
a(g185
VNN
p455
tp456
a(g275
VNN
p457
tp458
a(g133
VDT
p459
tp460
a(g182
VNN
p461
tp462
a(g381
VNN
p463
tp464
a(g117
V''
p465
tp466
a(g10
g10
tp467
a(g114
VNN
p468
tp469
a(g117
VPOS
p470
tp471
a(g147
VNN
p472
tp473
a(g135
VNN
p474
tp475
a(g157
VSYM
p476
tp477
a(g133
VDT
p478
tp479
a(g127
VNN
p480
tp481
a(g133
VDT
p482
tp483
a(g240
VNN
p484
tp485
a(g185
VNN
p486
tp487
a(g117
V''
p488
tp489
a(g10
g10
tp490
a(g114
VNN
p491
tp492
a(g117
VPOS
p493
tp494
a(g147
VNN
p495
tp496
a(g135
VNN
p497
tp498
a(g133
VDT
p499
tp500
a(g154
VNN
p501
tp502
a(g157
VSYM
p503
tp504
a(g117
V''
p505
tp506
a(g10
g10
tp507
a(g114
VNN
p508
tp509
a(g117
VPOS
p510
tp511
a(g127
VNN
p512
tp513
a(g147
VNN
p514
tp515
a(g157
VSYM
p516
tp517
a(g240
VNN
p518
tp519
a(g381
VNN
p520
tp521
a(g117
V''
p522
tp523
a(g10
g10
tp524
a(g114
VNN
p525
tp526
a(g117
VPOS
p527
tp528
a(g185
VNN
p529
tp530
a(g237
VFW
p531
tp532
a(g130
VNN
p533
tp534
a(g157
VSYM
p535
tp536
a(g117
V''
p537
tp538
a(g10
g10
tp539
a(g114
VNN
p540
tp541
a(g117
VPOS
p542
tp543
a(g182
VNN
p544
tp545
a(g157
VSYM
p546
tp547
a(g133
VDT
p548
tp549
a(g381
VNN
p550
tp551
a(g117
V''
p552
tp553
a(g10
g10
tp554
a(g114
VNN
p555
tp556
a(g117
VPOS
p557
tp558
a(g336
VNN
p559
tp560
a(g179
VNN
p561
tp562
a(g179
VNN
p563
tp564
a(g202
VNN
p565
tp566
a(g64
g64
tp567
a(g117
V''
p568
tp569
a(g10
g10
tp570
a(g114
VNN
p571
tp572
a(g117
VPOS
p573
tp574
a(g305
VNN
p575
tp576
a(g176
VNN
p577
tp578
a(g157
VSYM
p579
tp580
a(g117
V''
p581
tp582
a(g10
g10
tp583
a(g114
VNN
p584
tp585
a(g117
VPOS
p586
tp587
a(g127
VNN
p588
tp589
a(g185
VNN
p590
tp591
a(g133
VDT
p592
tp593
a(Vf
p594
VFW
p595
tp596
a(g594
VFW
p597
tp598
a(g117
V''
p599
tp600
a(g10
g10
tp601
a(g114
VNN
p602
tp603
a(g117
V''
p604
tp605
a(g594
VLS
p606
tp607
a(g182
VNN
p608
tp609
a(g237
VFW
p610
tp611
a(g157
VLS
p612
tp613
a(g240
VNN
p614
tp615
a(g381
VNN
p616
tp617
a(g135
VNN
p618
tp619
a(g275
VNN
p620
tp621
a(g117
V''
p622
tp623
a(g10
g10
tp624
a(g114
VNN
p625
tp626
a(g117
VPOS
p627
tp628
a(g147
VNN
p629
tp630
a(g179
VNN
p631
tp632
a(g135
VNN
p633
tp634
a(g237
VLS
p635
tp636
a(g185
VNN
p637
tp638
a(g157
VSYM
p639
tp640
a(g117
V''
p641
tp642
a(g10
g10
tp643
a(g114
VNN
p644
tp645
a(g117
V''
p646
tp647
a(g10
g10
tp648
a(g117
V''
p649
tp650
a(g10
g10
tp651
a(g114
VNN
p652
tp653
a(g117
V''
p654
tp655
a(g133
VDT
p656
tp657
a(g135
VNN
p658
tp659
a(g185
VNN
p660
tp661
a(g176
VNN
p662
tp663
a(g179
VNN
p664
tp665
a(g114
VNN
p666
tp667
a(Vg
p668
VNN
p669
tp670
a(g176
VNN
p671
tp672
a(g117
V''
p673
tp674
a(g10
g10
tp675
a(g114
VNN
p676
tp677
a(g117
VPOS
p678
tp679
a(g179
VNN
p680
tp681
a(Vv
p682
VLS
p683
tp684
a(g157
VLS
p685
tp686
a(g182
VNN
p687
tp688
a(g135
VNN
p689
tp690
a(g275
VNN
p691
tp692
a(g117
V''
p693
tp694
a(g10
g10
tp695
a(g114
VNN
p696
tp697
a(g117
VPOS
p698
tp699
a(g176
VNN
p700
tp701
a(g157
VSYM
p702
tp703
a(g135
VNN
p704
tp705
a(g147
VNN
p706
tp707
a(g594
VFW
p708
tp709
a(g114
VFW
p710
tp711
a(g135
VNN
p712
tp713
a(g64
g64
tp714
a(g117
V''
p715
tp716
a(g10
g10
tp717
a(g114
VNN
p718
tp719
a(g117
VPOS
p720
tp721
a(g119
VNN
p722
tp723
a(g117
V''
p724
tp725
a(g10
g10
tp726
a(g114
VNN
p727
tp728
a(g117
VPOS
p729
tp730
a(g381
VNN
p731
tp732
a(g157
VSYM
p733
tp734
a(g154
VLS
p735
tp736
a(g157
VLS
p737
tp738
a(g240
VNN
p739
tp740
a(g185
VNN
p741
tp742
a(g117
V''
p743
tp744
a(g10
g10
tp745
a(g114
VNN
p746
tp747
a(g117
V''
p748
tp749
a(g10
g10
tp750
a(g117
V''
p751
tp752
a(g10
g10
tp753
a(g114
VNN
p754
tp755
a(g117
VPOS
p756
tp757
a(g240
VNN
p758
tp759
a(g179
VNN
p760
tp761
a(V-
p762
g99
tp763
a(g594
VLS
p764
tp765
a(g182
VNN
p766
tp767
a(g237
VFW
p768
tp769
a(g135
VNN
p770
tp771
a(g135
VNN
p772
tp773
a(g127
VNN
p774
tp775
a(g117
V''
p776
tp777
a(g10
g10
tp778
a(g114
VNN
p779
tp780
a(g117
V''
p781
tp782
a(g10
g10
tp783
a(g117
V''
p784
tp785
a(g10
g10
tp786
a(g114
VNN
p787
tp788
a(g117
VPOS
p789
tp790
a(g336
VNN
p791
tp792
a(g114
VNN
p793
tp794
a(g381
VNN
p795
tp796
a(g668
VNN
p797
tp798
a(g157
VSYM
p799
tp800
a(g185
VNN
p801
tp802
a(g117
V''
p803
tp804
a(g10
g10
tp805
a(g114
VNN
p806
tp807
a(g117
VPOS
p808
tp809
a(g154
VNN
p810
tp811
a(g176
VNN
p812
tp813
a(g179
VNN
p814
tp815
a(g237
VLS
p816
tp817
a(g154
VNN
p818
tp819
a(g157
VSYM
p820
tp821
a(g117
V''
p822
tp823
a(g10
g10
tp824
a(g114
VNN
p825
tp826
a(g117
V''
p827
tp828
a(g64
g64
tp829
a(g117
V''
p830
tp831
a(V]
p832
VNN
p833
tp834
asS'tagged_title'
p835
(lp836
(g112
VFW
p837
tp838
a(g114
VFW
p839
tp840
a(g117
VPOS
p841
tp842
a(VB
p843
VNN
p844
tp845
a(g133
VDT
p846
tp847
a(g127
VNN
p848
tp849
a(g237
VFW
p850
tp851
a(g154
VNN
p852
tp853
a(g117
V''
p854
tp855
a(g10
g10
tp856
a(g114
VNN
p857
tp858
a(g117
VPOS
p859
tp860
a(g176
VNN
p861
tp862
a(g179
VNN
p863
tp864
a(g185
VNN
p865
tp866
a(g157
VSYM
p867
tp868
a(g135
VNN
p869
tp870
a(g117
V''
p871
tp872
a(g10
g10
tp873
a(g114
VNN
p874
tp875
a(g117
V''
p876
tp877
a(g10
g10
tp878
a(g117
V''
p879
tp880
a(g10
g10
tp881
a(g114
VNN
p882
tp883
a(g117
V''
p884
tp885
a(g336
VNN
p886
tp887
a(g133
VDT
p888
tp889
a(g127
VNN
p890
tp891
a(g237
VFW
p892
tp893
a(g154
VNN
p894
tp895
a(g117
V''
p896
tp897
a(g10
g10
tp898
a(g114
VNN
p899
tp900
a(g117
VPOS
p901
tp902
a(g127
VNN
p903
tp904
a(g157
VSYM
p905
tp906
a(g182
VLS
p907
tp908
a(g682
VLS
p909
tp910
a(g237
VLS
p911
tp912
a(g154
VNN
p913
tp914
a(g157
VSYM
p915
tp916
a(g117
V''
p917
tp918
a(g10
g10
tp919
a(g114
VNN
p920
tp921
a(g117
V''
p922
tp923
a(g64
g64
tp924
a(g117
V''
p925
tp926
a(g832
VNN
p927
tp928
asVtotal_points
p929
V103
p930
sVdate
p931
V4/17/2009
p932
sVtaObjectUrl
p933
Vhttp://www.tripadvisor.com/Hotel_Review-g293976-d1196393-Reviews-Nur_Pension-Selcuk_Izmir_Province_Turkish_Aegean_Coast.html
p934
sVtype
p935
VHotels
p936
sS'pos_unigram'
p937
(lp938
g101
ag115
ag103
ag100
ag104
ag10
ag123
ag125
ag128
ag131
ag106
ag136
ag138
ag140
ag10
ag143
ag145
ag148
ag150
ag152
ag155
ag102
ag159
ag10
ag162
ag164
ag10
ag167
ag10
ag170
ag172
ag174
ag177
ag180
ag183
ag186
ag188
ag10
ag191
ag193
ag196
ag198
ag200
ag203
ag205
ag10
ag208
ag210
ag212
ag214
ag216
ag218
ag220
ag222
ag224
ag10
ag227
ag229
ag231
ag233
ag235
ag238
ag241
ag243
ag10
ag246
ag248
ag250
ag252
ag254
ag256
ag258
ag260
ag262
ag10
ag265
ag267
ag269
ag271
ag273
ag276
ag278
ag10
ag281
ag283
ag285
ag287
ag289
ag291
ag293
ag295
ag64
ag298
ag10
ag301
ag303
ag306
ag308
ag310
ag312
ag10
ag315
ag317
ag319
ag321
ag323
ag325
ag327
ag329
ag10
ag332
ag334
ag337
ag339
ag341
ag343
ag345
ag347
ag10
ag350
ag352
ag10
ag355
ag10
ag358
ag360
ag362
ag364
ag366
ag368
ag370
ag372
ag10
ag375
ag377
ag379
ag382
ag384
ag387
ag389
ag391
ag393
ag105
ag64
ag397
ag10
ag400
ag402
ag405
ag407
ag409
ag10
ag412
ag414
ag416
ag418
ag420
ag422
ag424
ag64
ag427
ag10
ag430
ag432
ag434
ag436
ag438
ag440
ag10
ag443
ag445
ag447
ag449
ag451
ag453
ag455
ag457
ag459
ag461
ag463
ag465
ag10
ag468
ag470
ag472
ag474
ag476
ag478
ag480
ag482
ag484
ag486
ag488
ag10
ag491
ag493
ag495
ag497
ag499
ag501
ag503
ag505
ag10
ag508
ag510
ag512
ag514
ag516
ag518
ag520
ag522
ag10
ag525
ag527
ag529
ag531
ag533
ag535
ag537
ag10
ag540
ag542
ag544
ag546
ag548
ag550
ag552
ag10
ag555
ag557
ag559
ag561
ag563
ag565
ag64
ag568
ag10
ag571
ag573
ag575
ag577
ag579
ag581
ag10
ag584
ag586
ag588
ag590
ag592
ag595
ag597
ag599
ag10
ag602
ag604
ag606
ag608
ag610
ag612
ag614
ag616
ag618
ag620
ag622
ag10
ag625
ag627
ag629
ag631
ag633
ag635
ag637
ag639
ag641
ag10
ag644
ag646
ag10
ag649
ag10
ag652
ag654
ag656
ag658
ag660
ag662
ag664
ag666
ag669
ag671
ag673
ag10
ag676
ag678
ag680
ag683
ag685
ag687
ag689
ag691
ag693
ag10
ag696
ag698
ag700
ag702
ag704
ag706
ag708
ag710
ag712
ag64
ag715
ag10
ag718
ag720
ag722
ag724
ag10
ag727
ag729
ag731
ag733
ag735
ag737
ag739
ag741
ag743
ag10
ag746
ag748
ag10
ag751
ag10
ag754
ag756
ag758
ag760
ag99
ag764
ag766
ag768
ag770
ag772
ag774
ag776
ag10
ag779
ag781
ag10
ag784
ag10
ag787
ag789
ag791
ag793
ag795
ag797
ag799
ag801
ag803
ag10
ag806
ag808
ag810
ag812
ag814
ag816
ag818
ag820
ag822
ag10
ag825
ag827
ag64
ag830
ag833
asVhelpfulness
p939
V3
p940
sVtaObjectCity
p941
VSelcuk
p942
s.(dp0
Vrating
p1
V4
p2
sVtext
p3
VWe spent our first 3 nights in Turkey here and loved it. The staff were helpful, arranged for airport pick up and helped out with further travel plans. The top floor room was plain, but clean, and had a lovely view of the blue mosque. Breakfast every morning was a delight on the rooftop terrace with eggs cooked to order (instead of the requisite hard boiled egg I had every morning for the remainder of my month in Turkey!) On return to Istanbul after touring Turkey we chose not to stay here, only because we found similar hotels for quite a bit less. A lovely place overall, but a bit over-priced.
p4
sS'title_length'
p5
I601
sS'bigram_counts'
p6
ccollections
Counter
p7
((dp8
(Vturkey
p9
V!
p10
tp11
I1
s(Vhelped
p12
Vtravel
p13
tp14
I1
s(Vorder
p15
V(
p16
tp17
I1
s(Vmonth
p18
g9
tp19
I1
s(Vhelpful
p20
V,
p21
tp22
I1
s(Vinstead
p23
Vrequisite
p24
tp25
I1
s(Vistanbul
p26
Vtouring
p27
tp28
I1
s(Vevery
p29
Vmorning
p30
tp31
I2
s(g27
Vturkey
p32
tp33
I1
s(Vreturn
p34
g26
tp35
I1
s(Vpick
p36
g12
tp37
I1
s(Veggs
p38
Vcooked
p39
tp40
I1
s(Vtop
p41
Vfloor
p42
tp43
I1
s(g21
Vlovely
p44
tp45
I1
s(Vhard
p46
Vboiled
p47
tp48
I1
s(Vremainder
p49
g18
tp50
I1
s(Vterrace
p51
g38
tp52
I1
s(Vit.
p53
Vstaff
p54
tp55
I1
s(Vblue
p56
Vmosque.
p57
tp58
I1
s(g21
Vclean
p59
tp60
I1
s(Vplace
p61
Voverall
p62
tp63
I1
s(g59
g21
tp64
I1
s(Vnights
p65
Vturkey
p66
tp67
I1
s(g39
g15
tp68
I1
s(g54
g20
tp69
I1
s(Vover-priced
p70
V.
p71
tp72
I1
s(g57
Vbreakfast
p73
tp74
I1
s(g66
Vloved
p75
tp76
I1
s(Vmorning
p77
g49
tp78
I1
s(Vless.
p79
Vlovely
p80
tp81
I1
s(Vbit
p82
g79
tp83
I1
s(Vegg
p84
Vevery
p85
tp86
I1
s(g75
g53
tp87
I1
s(g62
g21
tp88
I1
s(Vhotels
p89
Vquite
p90
tp91
I1
s(Vrooftop
p92
g51
tp93
I1
s(g10
V)
p94
tp95
I1
s(g30
Vdelight
p96
tp97
I1
s(g16
g23
tp98
I1
s(Vfound
p99
Vsimilar
p100
tp101
I1
s(Vplain
p102
g21
tp103
I1
s(g100
g89
tp104
I1
s(Vstay
p105
g21
tp106
I1
s(V3
p107
g65
tp108
I1
s(Vfirst
p109
g107
tp110
I1
s(g32
Vchose
p111
tp112
I1
s(g90
g82
tp113
I1
s(g80
g61
tp114
I1
s(Vview
p115
g56
tp116
I1
s(Vroom
p117
g102
tp118
I1
s(Varranged
p119
Vairport
p120
tp121
I1
s(g21
g119
tp122
I1
s(Vbit
p123
g70
tp124
I1
s(g111
g105
tp125
I1
s(g24
g46
tp126
I1
s(g44
g115
tp127
I1
s(g94
g34
tp128
I1
s(g120
g36
tp129
I1
s(g13
Vplans.
p130
tp131
I1
s(g73
g29
tp132
I1
s(g96
g92
tp133
I1
s(g21
g99
tp134
I1
s(g21
g123
tp135
I1
s(g130
g41
tp136
I1
s(g42
g117
tp137
I1
s(g47
g84
tp138
I1
s(Vspent
p139
g109
tp140
I1
stp141
Rp142
sS'rev_unigrams'
p143
(lp144
g139
ag109
ag107
ag65
ag66
ag75
ag53
ag54
ag20
ag21
ag119
ag120
ag36
ag12
ag13
ag130
ag41
ag42
ag117
ag102
ag21
ag59
ag21
ag44
ag115
ag56
ag57
ag73
ag29
ag30
ag96
ag92
ag51
ag38
ag39
ag15
ag16
ag23
ag24
ag46
ag47
ag84
ag85
ag77
ag49
ag18
ag9
ag10
ag94
ag34
ag26
ag27
ag32
ag111
ag105
ag21
ag99
ag100
ag89
ag90
ag82
ag79
ag80
ag61
ag62
ag21
ag123
ag70
ag71
asVid
p145
V16362
p146
sVtaObject
p147
VApricot Hotel
p148
sVtitle
p149
VGreat hotel
p150
sS'unigram_counts'
p151
g7
((dp152
g46
I1
sg27
I1
sg18
I1
sg12
I1
sg51
I1
sg73
I1
sg24
I1
sg54
I1
sg66
I3
sg65
I1
sg92
I1
sg26
I1
sg42
I1
sg94
I1
sg16
I1
sg13
I1
sg21
I5
sg71
I1
sg107
I1
sg23
I1
sg44
I2
sg53
I1
sg56
I1
sg47
I1
sg34
I1
sg111
I1
sg41
I1
sg38
I1
sg20
I1
sg62
I1
sg105
I1
sg96
I1
sg10
I1
sg29
I2
sg57
I1
sg82
I2
sg90
I1
sg49
I1
sg70
I1
sg75
I1
sg79
I1
sg119
I1
sg117
I1
sg130
I1
sg102
I1
sg139
I1
sg30
I2
sg89
I1
sg39
I1
sg120
I1
sg61
I1
sg59
I1
sg36
I1
sg99
I1
sg109
I1
sg100
I1
sg15
I1
sg84
I1
sg115
I1
stp153
Rp154
sS'rev_bigrams'
p155
(lp156
g140
ag110
ag108
ag67
ag76
ag87
ag55
ag69
ag22
ag122
ag121
ag129
ag37
ag14
ag131
ag136
ag43
ag137
ag118
ag103
ag60
ag64
ag45
ag127
ag116
ag58
ag74
ag132
ag31
ag97
ag133
ag93
ag52
ag40
ag68
ag17
ag98
ag25
ag126
ag48
ag138
ag86
a(g85
g77
tp157
ag78
ag50
ag19
ag11
ag95
ag128
ag35
ag28
ag33
ag112
ag125
ag106
ag134
ag101
ag104
ag91
ag113
ag83
ag81
ag114
ag63
ag88
ag135
ag124
ag72
asS'pos_count'
p158
ccollections
defaultdict
p159
(c__builtin__
int
p160
tp161
Rp162
V:
p163
I1
sVNN
p164
I301
sVFW
p165
I38
sg21
I79
sVSYM
p166
I34
sVPOS
p167
I50
sV''
p168
I100
sg71
I6
sVLS
p169
I31
sVVBZ
p170
I3
sVDT
p171
I16
sVCD
p172
I1
sVPRP
p173
I2
ssS'rev_length'
p174
I601
sVusername
p175
VBrinoabroad
p176
sS'tagged_text'
p177
(lp178
(V[
p179
g165
tp180
a(Vu
p181
VFW
p182
tp183
a(V'
p184
g167
tp185
a(VW
p186
g164
tp187
a(Ve
p188
g166
tp189
a(g184
g168
tp190
a(g21
g21
tp191
a(g181
VNN
p192
tp193
a(g184
VPOS
p194
tp195
a(Vs
p196
VNN
p197
tp198
a(Vp
p199
VNN
p200
tp201
a(g188
VSYM
p202
tp203
a(Vn
p204
VNN
p205
tp206
a(Vt
p207
VNN
p208
tp209
a(g184
V''
p210
tp211
a(g21
g21
tp212
a(g181
VNN
p213
tp214
a(g184
V''
p215
tp216
a(Vf
p217
VFW
p218
tp219
a(Vi
p220
VFW
p221
tp222
a(Vr
p223
VNN
p224
tp225
a(g196
VNN
p226
tp227
a(g207
VNN
p228
tp229
a(g184
V''
p230
tp231
a(g21
g21
tp232
a(g181
VNN
p233
tp234
a(g184
V''
p235
tp236
a(g107
g172
tp237
a(g184
V''
p238
tp239
a(g21
g21
tp240
a(g181
VNN
p241
tp242
a(g184
VPOS
p243
tp244
a(g204
VNN
p245
tp246
a(g220
VFW
p247
tp248
a(Vg
p249
VNN
p250
tp251
a(Vh
p252
VNN
p253
tp254
a(g207
VNN
p255
tp256
a(g196
VNN
p257
tp258
a(g184
V''
p259
tp260
a(g21
g21
tp261
a(g181
VNN
p262
tp263
a(g184
VPOS
p264
tp265
a(VT
p266
VNN
p267
tp268
a(g181
VNN
p269
tp270
a(g223
VNN
p271
tp272
a(Vk
p273
VNN
p274
tp275
a(g188
VSYM
p276
tp277
a(Vy
p278
VNN
p279
tp280
a(g184
V''
p281
tp282
a(g21
g21
tp283
a(g181
VNN
p284
tp285
a(g184
VPOS
p286
tp287
a(Vl
p288
VNN
p289
tp290
a(Vo
p291
VNN
p292
tp293
a(Vv
p294
g169
tp295
a(g188
VLS
p296
tp297
a(Vd
p298
VNN
p299
tp300
a(g184
V''
p301
tp302
a(g21
g21
tp303
a(g181
VNN
p304
tp305
a(g184
V''
p306
tp307
a(g220
VLS
p308
tp309
a(g207
VNN
p310
tp311
a(g71
g71
tp312
a(g184
V''
p313
tp314
a(g21
g21
tp315
a(g181
VNN
p316
tp317
a(g184
VPOS
p318
tp319
a(g266
VNN
p320
tp321
a(g252
VNN
p322
tp323
a(g188
VSYM
p324
tp325
a(g184
V''
p326
tp327
a(g21
g21
tp328
a(g181
VNN
p329
tp330
a(g184
VPOS
p331
tp332
a(g196
VNN
p333
tp334
a(g207
VNN
p335
tp336
a(Va
p337
g171
tp338
a(g217
VFW
p339
tp340
a(g217
VFW
p341
tp342
a(g184
V''
p343
tp344
a(g21
g21
tp345
a(g181
VNN
p346
tp347
a(g184
VPOS
p348
tp349
a(g252
VNN
p350
tp351
a(g188
VSYM
p352
tp353
a(g288
VNN
p354
tp355
a(g199
VNN
p356
tp357
a(g217
VFW
p358
tp359
a(g181
VFW
p360
tp361
a(g288
VNN
p362
tp363
a(g184
V''
p364
tp365
a(g21
g21
tp366
a(g181
VNN
p367
tp368
a(g184
V''
p369
tp370
a(g21
g21
tp371
a(g184
V''
p372
tp373
a(g21
g21
tp374
a(g181
VNN
p375
tp376
a(g184
V''
p377
tp378
a(g337
VDT
p379
tp380
a(g223
VNN
p381
tp382
a(g223
VNN
p383
tp384
a(g337
VDT
p385
tp386
a(g204
VNN
p387
tp388
a(g249
VNN
p389
tp390
a(g188
VSYM
p391
tp392
a(g298
VFW
p393
tp394
a(g184
V''
p395
tp396
a(g21
g21
tp397
a(g181
VNN
p398
tp399
a(g184
V''
p400
tp401
a(g337
VFW
p402
tp403
a(g220
VFW
p404
tp405
a(g223
VNN
p406
tp407
a(g199
VNN
p408
tp409
a(g291
VNN
p410
tp411
a(g223
VNN
p412
tp413
a(g207
VNN
p414
tp415
a(g184
V''
p416
tp417
a(g21
g21
tp418
a(g181
VNN
p419
tp420
a(g184
VPOS
p421
tp422
a(g199
VNN
p423
tp424
a(g220
VFW
p425
tp426
a(Vc
p427
VNN
p428
tp429
a(g273
VNN
p430
tp431
a(g184
V''
p432
tp433
a(g21
g21
tp434
a(g181
VNN
p435
tp436
a(g184
VPOS
p437
tp438
a(g252
VNN
p439
tp440
a(g188
VSYM
p441
tp442
a(g288
VNN
p443
tp444
a(g199
VNN
p445
tp446
a(g188
VSYM
p447
tp448
a(g298
VFW
p449
tp450
a(g184
V''
p451
tp452
a(g21
g21
tp453
a(g181
VNN
p454
tp455
a(g184
VPOS
p456
tp457
a(g207
VNN
p458
tp459
a(g223
VNN
p460
tp461
a(g337
VDT
p462
tp463
a(g294
VLS
p464
tp465
a(g188
VLS
p466
tp467
a(g288
VNN
p468
tp469
a(g184
V''
p470
tp471
a(g21
g21
tp472
a(g181
VNN
p473
tp474
a(g184
VPOS
p475
tp476
a(g199
VNN
p477
tp478
a(g288
VNN
p479
tp480
a(g337
VDT
p481
tp482
a(g204
VNN
p483
tp484
a(g196
VNN
p485
tp486
a(g71
g71
tp487
a(g184
V''
p488
tp489
a(g21
g21
tp490
a(g181
VNN
p491
tp492
a(g184
VPOS
p493
tp494
a(g266
VNN
p495
tp496
a(g252
VNN
p497
tp498
a(g188
VSYM
p499
tp500
a(g184
V''
p501
tp502
a(g21
g21
tp503
a(g181
VNN
p504
tp505
a(g184
VPOS
p506
tp507
a(g207
VNN
p508
tp509
a(g291
VNN
p510
tp511
a(g199
VNN
p512
tp513
a(g184
V''
p514
tp515
a(g21
g21
tp516
a(g181
VNN
p517
tp518
a(g184
V''
p519
tp520
a(g217
VLS
p521
tp522
a(g288
VNN
p523
tp524
a(g291
VNN
p525
tp526
a(g291
VNN
p527
tp528
a(g223
VNN
p529
tp530
a(g184
V''
p531
tp532
a(g21
g21
tp533
a(g181
VNN
p534
tp535
a(g184
VPOS
p536
tp537
a(g223
VNN
p538
tp539
a(g291
VNN
p540
tp541
a(g291
VNN
p542
tp543
a(Vm
p544
VNN
p545
tp546
a(g184
V''
p547
tp548
a(g21
g21
tp549
a(g181
VNN
p550
tp551
a(g184
VPOS
p552
tp553
a(g199
VNN
p554
tp555
a(g288
VNN
p556
tp557
a(g337
VFW
p558
tp559
a(g220
VFW
p560
tp561
a(g204
VNN
p562
tp563
a(g184
V''
p564
tp565
a(g21
g21
tp566
a(g181
VNN
p567
tp568
a(g184
V''
p569
tp570
a(g21
g21
tp571
a(g184
V''
p572
tp573
a(g21
g21
tp574
a(g181
VNN
p575
tp576
a(g184
VPOS
p577
tp578
a(g427
VNN
p579
tp580
a(g288
VNN
p581
tp582
a(g188
VSYM
p583
tp584
a(g337
VDT
p585
tp586
a(g204
VNN
p587
tp588
a(g184
V''
p589
tp590
a(g21
g21
tp591
a(g181
VNN
p592
tp593
a(g184
V''
p594
tp595
a(g21
g21
tp596
a(g184
V''
p597
tp598
a(g21
g21
tp599
a(g181
VNN
p600
tp601
a(g184
VPOS
p602
tp603
a(g288
VNN
p604
tp605
a(g291
VNN
p606
tp607
a(g294
VLS
p608
tp609
a(g188
VLS
p610
tp611
a(g288
VNN
p612
tp613
a(g278
VNN
p614
tp615
a(g184
V''
p616
tp617
a(g21
g21
tp618
a(g181
VNN
p619
tp620
a(g184
V''
p621
tp622
a(g294
VLS
p623
tp624
a(g220
VLS
p625
tp626
a(g188
VLS
p627
tp628
a(Vw
p629
VNN
p630
tp631
a(g184
V''
p632
tp633
a(g21
g21
tp634
a(g181
VNN
p635
tp636
a(g184
VPOS
p637
tp638
a(Vb
p639
VNN
p640
tp641
a(g288
VNN
p642
tp643
a(g181
VNN
p644
tp645
a(g188
VSYM
p646
tp647
a(g184
V''
p648
tp649
a(g21
g21
tp650
a(g181
VNN
p651
tp652
a(g184
VPOS
p653
tp654
a(g544
VNN
p655
tp656
a(g291
VNN
p657
tp658
a(g196
VNN
p659
tp660
a(Vq
p661
VFW
p662
tp663
a(g181
VFW
p664
tp665
a(g188
VLS
p666
tp667
a(g71
g71
tp668
a(g184
V''
p669
tp670
a(g21
g21
tp671
a(g181
VNN
p672
tp673
a(g184
VPOS
p674
tp675
a(VB
p676
VNN
p677
tp678
a(g223
VNN
p679
tp680
a(g188
VSYM
p681
tp682
a(g337
VDT
p683
tp684
a(g273
VNN
p685
tp686
a(g217
VSYM
p687
tp688
a(g337
VDT
p689
tp690
a(g196
VNN
p691
tp692
a(g207
VNN
p693
tp694
a(g184
V''
p695
tp696
a(g21
g21
tp697
a(g181
VNN
p698
tp699
a(g184
V''
p700
tp701
a(g188
VLS
p702
tp703
a(g294
VLS
p704
tp705
a(g188
VLS
p706
tp707
a(g223
VNN
p708
tp709
a(g278
VNN
p710
tp711
a(g184
V''
p712
tp713
a(g21
g21
tp714
a(g181
VNN
p715
tp716
a(g184
VPOS
p717
tp718
a(g544
VNN
p719
tp720
a(g291
VNN
p721
tp722
a(g223
VNN
p723
tp724
a(g204
VNN
p725
tp726
a(g220
VFW
p727
tp728
a(g204
VNN
p729
tp730
a(g249
VNN
p731
tp732
a(g184
V''
p733
tp734
a(g21
g21
tp735
a(g181
VNN
p736
tp737
a(g184
VPOS
p738
tp739
a(g298
VNN
p740
tp741
a(g188
VSYM
p742
tp743
a(g288
VNN
p744
tp745
a(g220
VFW
p746
tp747
a(g249
VNN
p748
tp749
a(g252
VNN
p750
tp751
a(g207
VNN
p752
tp753
a(g184
V''
p754
tp755
a(g21
g21
tp756
a(g181
VNN
p757
tp758
a(g184
VPOS
p759
tp760
a(g223
VNN
p761
tp762
a(g291
VNN
p763
tp764
a(g291
VNN
p765
tp766
a(g217
VSYM
p767
tp768
a(g207
VNN
p769
tp770
a(g291
VNN
p771
tp772
a(g199
VNN
p773
tp774
a(g184
V''
p775
tp776
a(g21
g21
tp777
a(g181
VNN
p778
tp779
a(g184
VPOS
p780
tp781
a(g207
VNN
p782
tp783
a(g188
VSYM
p784
tp785
a(g223
VNN
p786
tp787
a(g223
VNN
p788
tp789
a(g337
VDT
p790
tp791
a(g427
VNN
p792
tp793
a(g188
VSYM
p794
tp795
a(g184
V''
p796
tp797
a(g21
g21
tp798
a(g181
VNN
p799
tp800
a(g184
V''
p801
tp802
a(g188
VLS
p803
tp804
a(g249
VNN
p805
tp806
a(g249
VNN
p807
tp808
a(g196
VNN
p809
tp810
a(g184
V''
p811
tp812
a(g21
g21
tp813
a(g181
VNN
p814
tp815
a(g184
VPOS
p816
tp817
a(g427
VNN
p818
tp819
a(g291
VNN
p820
tp821
a(g291
VNN
p822
tp823
a(g273
VNN
p824
tp825
a(g188
VSYM
p826
tp827
a(g298
VFW
p828
tp829
a(g184
V''
p830
tp831
a(g21
g21
tp832
a(g181
VNN
p833
tp834
a(g184
VPOS
p835
tp836
a(g291
VNN
p837
tp838
a(g223
VNN
p839
tp840
a(g298
VNN
p841
tp842
a(g188
VSYM
p843
tp844
a(g223
VNN
p845
tp846
a(g184
V''
p847
tp848
a(g21
g21
tp849
a(g181
VNN
p850
tp851
a(g184
VPOS
p852
tp853
a(g16
VNN
p854
tp855
a(g184
V''
p856
tp857
a(g21
g21
tp858
a(g181
VNN
p859
tp860
a(g184
V''
p861
tp862
a(g220
VLS
p863
tp864
a(g204
VNN
p865
tp866
a(g196
VNN
p867
tp868
a(g207
VNN
p869
tp870
a(g188
VSYM
p871
tp872
a(g337
VDT
p873
tp874
a(g298
VNN
p875
tp876
a(g184
V''
p877
tp878
a(g21
g21
tp879
a(g181
VNN
p880
tp881
a(g184
VPOS
p882
tp883
a(g223
VNN
p884
tp885
a(g188
VSYM
p886
tp887
a(g661
VFW
p888
tp889
a(g181
VFW
p890
tp891
a(g220
VFW
p892
tp893
a(g196
g170
tp894
a(g220
VLS
p895
tp896
a(g207
VNN
p897
tp898
a(g188
VSYM
p899
tp900
a(g184
V''
p901
tp902
a(g21
g21
tp903
a(g181
VNN
p904
tp905
a(g184
V''
p906
tp907
a(g252
VNN
p908
tp909
a(g337
VDT
p910
tp911
a(g223
VNN
p912
tp913
a(g298
VNN
p914
tp915
a(g184
V''
p916
tp917
a(g21
g21
tp918
a(g181
VNN
p919
tp920
a(g184
VPOS
p921
tp922
a(g639
VNN
p923
tp924
a(g291
VNN
p925
tp926
a(g220
VFW
p927
tp928
a(g288
VNN
p929
tp930
a(g188
VSYM
p931
tp932
a(g298
VFW
p933
tp934
a(g184
V''
p935
tp936
a(g21
g21
tp937
a(g181
VNN
p938
tp939
a(g184
V''
p940
tp941
a(g188
VLS
p942
tp943
a(g249
VNN
p944
tp945
a(g249
VNN
p946
tp947
a(g184
V''
p948
tp949
a(g21
g21
tp950
a(g181
VNN
p951
tp952
a(g184
V''
p953
tp954
a(VI
p955
g173
tp956
a(g184
V''
p957
tp958
a(g21
g21
tp959
a(g181
VNN
p960
tp961
a(g184
V''
p962
tp963
a(g188
VLS
p964
tp965
a(g294
VLS
p966
tp967
a(g188
VLS
p968
tp969
a(g223
VNN
p970
tp971
a(g278
VNN
p972
tp973
a(g184
V''
p974
tp975
a(g21
g21
tp976
a(g181
VNN
p977
tp978
a(g184
VPOS
p979
tp980
a(g544
VNN
p981
tp982
a(g291
VNN
p983
tp984
a(g223
VNN
p985
tp986
a(g204
VNN
p987
tp988
a(g220
VFW
p989
tp990
a(g204
VNN
p991
tp992
a(g249
VNN
p993
tp994
a(g184
V''
p995
tp996
a(g21
g21
tp997
a(g181
VNN
p998
tp999
a(g184
VPOS
p1000
tp1001
a(g223
VNN
p1002
tp1003
a(g188
VSYM
p1004
tp1005
a(g544
VNN
p1006
tp1007
a(g337
VFW
p1008
tp1009
a(g220
VFW
p1010
tp1011
a(g204
VNN
p1012
tp1013
a(g298
VNN
p1014
tp1015
a(g188
VSYM
p1016
tp1017
a(g223
VNN
p1018
tp1019
a(g184
V''
p1020
tp1021
a(g21
g21
tp1022
a(g181
VNN
p1023
tp1024
a(g184
VPOS
p1025
tp1026
a(g544
VNN
p1027
tp1028
a(g291
VNN
p1029
tp1030
a(g204
VNN
p1031
tp1032
a(g207
VNN
p1033
tp1034
a(g252
VNN
p1035
tp1036
a(g184
V''
p1037
tp1038
a(g21
g21
tp1039
a(g181
VNN
p1040
tp1041
a(g184
VPOS
p1042
tp1043
a(g266
VNN
p1044
tp1045
a(g181
VNN
p1046
tp1047
a(g223
VNN
p1048
tp1049
a(g273
VNN
p1050
tp1051
a(g188
VSYM
p1052
tp1053
a(g278
VNN
p1054
tp1055
a(g184
V''
p1056
tp1057
a(g21
g21
tp1058
a(g181
VNN
p1059
tp1060
a(g184
V''
p1061
tp1062
a(g10
g71
tp1063
a(g184
V''
p1064
tp1065
a(g21
g21
tp1066
a(g181
VNN
p1067
tp1068
a(g184
VPOS
p1069
tp1070
a(g94
VNN
p1071
tp1072
a(g184
V''
p1073
tp1074
a(g21
g21
tp1075
a(g181
VNN
p1076
tp1077
a(g184
VPOS
p1078
tp1079
a(VO
p1080
VNN
p1081
tp1082
a(g204
VNN
p1083
tp1084
a(g184
V''
p1085
tp1086
a(g21
g21
tp1087
a(g181
VNN
p1088
tp1089
a(g184
VPOS
p1090
tp1091
a(g223
VNN
p1092
tp1093
a(g188
VSYM
p1094
tp1095
a(g207
VNN
p1096
tp1097
a(g181
VNN
p1098
tp1099
a(g223
VNN
p1100
tp1101
a(g204
VNN
p1102
tp1103
a(g184
V''
p1104
tp1105
a(g21
g21
tp1106
a(g181
VNN
p1107
tp1108
a(g184
V''
p1109
tp1110
a(g955
VPRP
p1111
tp1112
a(g196
VVBZ
p1113
tp1114
a(g207
VNN
p1115
tp1116
a(g337
VDT
p1117
tp1118
a(g204
VNN
p1119
tp1120
a(g639
VNN
p1121
tp1122
a(g181
VNN
p1123
tp1124
a(g288
VNN
p1125
tp1126
a(g184
V''
p1127
tp1128
a(g21
g21
tp1129
a(g181
VNN
p1130
tp1131
a(g184
VPOS
p1132
tp1133
a(g207
VNN
p1134
tp1135
a(g291
VNN
p1136
tp1137
a(g181
VNN
p1138
tp1139
a(g223
VNN
p1140
tp1141
a(g220
VFW
p1142
tp1143
a(g204
VNN
p1144
tp1145
a(g249
VNN
p1146
tp1147
a(g184
V''
p1148
tp1149
a(g21
g21
tp1150
a(g181
VNN
p1151
tp1152
a(g184
VPOS
p1153
tp1154
a(g266
VNN
p1155
tp1156
a(g181
VNN
p1157
tp1158
a(g223
VNN
p1159
tp1160
a(g273
VNN
p1161
tp1162
a(g188
VSYM
p1163
tp1164
a(g278
VNN
p1165
tp1166
a(g184
V''
p1167
tp1168
a(g21
g21
tp1169
a(g181
VNN
p1170
tp1171
a(g184
VPOS
p1172
tp1173
a(g427
VNN
p1174
tp1175
a(g252
VNN
p1176
tp1177
a(g291
VNN
p1178
tp1179
a(g196
VVBZ
p1180
tp1181
a(g188
VLS
p1182
tp1183
a(g184
V''
p1184
tp1185
a(g21
g21
tp1186
a(g181
VNN
p1187
tp1188
a(g184
VPOS
p1189
tp1190
a(g196
VNN
p1191
tp1192
a(g207
VNN
p1193
tp1194
a(g337
VDT
p1195
tp1196
a(g278
VNN
p1197
tp1198
a(g184
V''
p1199
tp1200
a(g21
g21
tp1201
a(g181
VNN
p1202
tp1203
a(g184
V''
p1204
tp1205
a(g21
g21
tp1206
a(g184
V''
p1207
tp1208
a(g21
g21
tp1209
a(g181
VNN
p1210
tp1211
a(g184
V''
p1212
tp1213
a(g217
VLS
p1214
tp1215
a(g291
VNN
p1216
tp1217
a(g181
VNN
p1218
tp1219
a(g204
VNN
p1220
tp1221
a(g298
VNN
p1222
tp1223
a(g184
V''
p1224
tp1225
a(g21
g21
tp1226
a(g181
VNN
p1227
tp1228
a(g184
VPOS
p1229
tp1230
a(g196
VNN
p1231
tp1232
a(g220
VFW
p1233
tp1234
a(g544
VNN
p1235
tp1236
a(g220
VFW
p1237
tp1238
a(g288
VNN
p1239
tp1240
a(g337
VDT
p1241
tp1242
a(g223
VNN
p1243
tp1244
a(g184
V''
p1245
tp1246
a(g21
g21
tp1247
a(g181
VNN
p1248
tp1249
a(g184
VPOS
p1250
tp1251
a(g252
VNN
p1252
tp1253
a(g291
VNN
p1254
tp1255
a(g207
VNN
p1256
tp1257
a(g188
VSYM
p1258
tp1259
a(g288
VNN
p1260
tp1261
a(g196
VNN
p1262
tp1263
a(g184
V''
p1264
tp1265
a(g21
g21
tp1266
a(g181
VNN
p1267
tp1268
a(g184
V''
p1269
tp1270
a(g661
VFW
p1271
tp1272
a(g181
VFW
p1273
tp1274
a(g220
VFW
p1275
tp1276
a(g207
VNN
p1277
tp1278
a(g188
VSYM
p1279
tp1280
a(g184
V''
p1281
tp1282
a(g21
g21
tp1283
a(g181
VNN
p1284
tp1285
a(g184
VPOS
p1286
tp1287
a(g639
VNN
p1288
tp1289
a(g220
VFW
p1290
tp1291
a(g207
VNN
p1292
tp1293
a(g184
V''
p1294
tp1295
a(g21
g21
tp1296
a(g181
VNN
p1297
tp1298
a(g184
V''
p1299
tp1300
a(g288
VNN
p1301
tp1302
a(g188
VSYM
p1303
tp1304
a(g196
VNN
p1305
tp1306
a(g196
VNN
p1307
tp1308
a(g71
g71
tp1309
a(g184
V''
p1310
tp1311
a(g21
g21
tp1312
a(g181
VNN
p1313
tp1314
a(g184
VPOS
p1315
tp1316
a(VA
p1317
VNN
p1318
tp1319
a(g184
V''
p1320
tp1321
a(g21
g21
tp1322
a(g181
VNN
p1323
tp1324
a(g184
VPOS
p1325
tp1326
a(g288
VNN
p1327
tp1328
a(g291
VNN
p1329
tp1330
a(g294
VLS
p1331
tp1332
a(g188
VLS
p1333
tp1334
a(g288
VNN
p1335
tp1336
a(g278
VNN
p1337
tp1338
a(g184
V''
p1339
tp1340
a(g21
g21
tp1341
a(g181
VNN
p1342
tp1343
a(g184
VPOS
p1344
tp1345
a(g199
VNN
p1346
tp1347
a(g288
VNN
p1348
tp1349
a(g337
VDT
p1350
tp1351
a(g427
VNN
p1352
tp1353
a(g188
VSYM
p1354
tp1355
a(g184
V''
p1356
tp1357
a(g21
g21
tp1358
a(g181
VNN
p1359
tp1360
a(g184
VPOS
p1361
tp1362
a(g291
VNN
p1363
tp1364
a(g294
VLS
p1365
tp1366
a(g188
VLS
p1367
tp1368
a(g223
VNN
p1369
tp1370
a(g337
VDT
p1371
tp1372
a(g288
VNN
p1373
tp1374
a(g288
VNN
p1375
tp1376
a(g184
V''
p1377
tp1378
a(g21
g21
tp1379
a(g181
VNN
p1380
tp1381
a(g184
V''
p1382
tp1383
a(g21
g21
tp1384
a(g184
V''
p1385
tp1386
a(g21
g21
tp1387
a(g181
VNN
p1388
tp1389
a(g184
VPOS
p1390
tp1391
a(g639
VNN
p1392
tp1393
a(g220
VFW
p1394
tp1395
a(g207
VNN
p1396
tp1397
a(g184
V''
p1398
tp1399
a(g21
g21
tp1400
a(g181
VNN
p1401
tp1402
a(g184
VPOS
p1403
tp1404
a(g291
VNN
p1405
tp1406
a(g294
VLS
p1407
tp1408
a(g188
VLS
p1409
tp1410
a(g223
VSYM
p1411
tp1412
a(V-
p1413
g163
tp1414
a(g199
VNN
p1415
tp1416
a(g223
VNN
p1417
tp1418
a(g220
VLS
p1419
tp1420
a(g427
VNN
p1421
tp1422
a(g188
VSYM
p1423
tp1424
a(g298
VFW
p1425
tp1426
a(g184
V''
p1427
tp1428
a(g21
g21
tp1429
a(g181
VNN
p1430
tp1431
a(g184
V''
p1432
tp1433
a(g71
g71
tp1434
a(g184
V''
p1435
tp1436
a(V]
p1437
VNN
p1438
tp1439
asS'tagged_title'
p1440
(lp1441
(g179
VFW
p1442
tp1443
a(g181
VFW
p1444
tp1445
a(g184
VPOS
p1446
tp1447
a(VG
p1448
VNN
p1449
tp1450
a(g223
VNN
p1451
tp1452
a(g188
VSYM
p1453
tp1454
a(g337
VDT
p1455
tp1456
a(g207
VNN
p1457
tp1458
a(g184
V''
p1459
tp1460
a(g21
g21
tp1461
a(g181
VNN
p1462
tp1463
a(g184
VPOS
p1464
tp1465
a(g252
VNN
p1466
tp1467
a(g291
VNN
p1468
tp1469
a(g207
VNN
p1470
tp1471
a(g188
VSYM
p1472
tp1473
a(g288
VNN
p1474
tp1475
a(g184
V''
p1476
tp1477
a(g1437
VNN
p1478
tp1479
asVtotal_points
p1480
V101
p1481
sVdate
p1482
V4/17/2009
p1483
sVtaObjectUrl
p1484
Vhttp://www.tripadvisor.com/Hotel_Review-g293974-d780484-Reviews-Apricot_Hotel-Istanbul.html
p1485
sVtype
p1486
VHotels
p1487
sS'pos_unigram'
p1488
(lp1489
g165
ag182
ag167
ag164
ag166
ag168
ag21
ag192
ag194
ag197
ag200
ag202
ag205
ag208
ag210
ag21
ag213
ag215
ag218
ag221
ag224
ag226
ag228
ag230
ag21
ag233
ag235
ag172
ag238
ag21
ag241
ag243
ag245
ag247
ag250
ag253
ag255
ag257
ag259
ag21
ag262
ag264
ag267
ag269
ag271
ag274
ag276
ag279
ag281
ag21
ag284
ag286
ag289
ag292
ag169
ag296
ag299
ag301
ag21
ag304
ag306
ag308
ag310
ag71
ag313
ag21
ag316
ag318
ag320
ag322
ag324
ag326
ag21
ag329
ag331
ag333
ag335
ag171
ag339
ag341
ag343
ag21
ag346
ag348
ag350
ag352
ag354
ag356
ag358
ag360
ag362
ag364
ag21
ag367
ag369
ag21
ag372
ag21
ag375
ag377
ag379
ag381
ag383
ag385
ag387
ag389
ag391
ag393
ag395
ag21
ag398
ag400
ag402
ag404
ag406
ag408
ag410
ag412
ag414
ag416
ag21
ag419
ag421
ag423
ag425
ag428
ag430
ag432
ag21
ag435
ag437
ag439
ag441
ag443
ag445
ag447
ag449
ag451
ag21
ag454
ag456
ag458
ag460
ag462
ag464
ag466
ag468
ag470
ag21
ag473
ag475
ag477
ag479
ag481
ag483
ag485
ag71
ag488
ag21
ag491
ag493
ag495
ag497
ag499
ag501
ag21
ag504
ag506
ag508
ag510
ag512
ag514
ag21
ag517
ag519
ag521
ag523
ag525
ag527
ag529
ag531
ag21
ag534
ag536
ag538
ag540
ag542
ag545
ag547
ag21
ag550
ag552
ag554
ag556
ag558
ag560
ag562
ag564
ag21
ag567
ag569
ag21
ag572
ag21
ag575
ag577
ag579
ag581
ag583
ag585
ag587
ag589
ag21
ag592
ag594
ag21
ag597
ag21
ag600
ag602
ag604
ag606
ag608
ag610
ag612
ag614
ag616
ag21
ag619
ag621
ag623
ag625
ag627
ag630
ag632
ag21
ag635
ag637
ag640
ag642
ag644
ag646
ag648
ag21
ag651
ag653
ag655
ag657
ag659
ag662
ag664
ag666
ag71
ag669
ag21
ag672
ag674
ag677
ag679
ag681
ag683
ag685
ag687
ag689
ag691
ag693
ag695
ag21
ag698
ag700
ag702
ag704
ag706
ag708
ag710
ag712
ag21
ag715
ag717
ag719
ag721
ag723
ag725
ag727
ag729
ag731
ag733
ag21
ag736
ag738
ag740
ag742
ag744
ag746
ag748
ag750
ag752
ag754
ag21
ag757
ag759
ag761
ag763
ag765
ag767
ag769
ag771
ag773
ag775
ag21
ag778
ag780
ag782
ag784
ag786
ag788
ag790
ag792
ag794
ag796
ag21
ag799
ag801
ag803
ag805
ag807
ag809
ag811
ag21
ag814
ag816
ag818
ag820
ag822
ag824
ag826
ag828
ag830
ag21
ag833
ag835
ag837
ag839
ag841
ag843
ag845
ag847
ag21
ag850
ag852
ag854
ag856
ag21
ag859
ag861
ag863
ag865
ag867
ag869
ag871
ag873
ag875
ag877
ag21
ag880
ag882
ag884
ag886
ag888
ag890
ag892
ag170
ag895
ag897
ag899
ag901
ag21
ag904
ag906
ag908
ag910
ag912
ag914
ag916
ag21
ag919
ag921
ag923
ag925
ag927
ag929
ag931
ag933
ag935
ag21
ag938
ag940
ag942
ag944
ag946
ag948
ag21
ag951
ag953
ag173
ag957
ag21
ag960
ag962
ag964
ag966
ag968
ag970
ag972
ag974
ag21
ag977
ag979
ag981
ag983
ag985
ag987
ag989
ag991
ag993
ag995
ag21
ag998
ag1000
ag1002
ag1004
ag1006
ag1008
ag1010
ag1012
ag1014
ag1016
ag1018
ag1020
ag21
ag1023
ag1025
ag1027
ag1029
ag1031
ag1033
ag1035
ag1037
ag21
ag1040
ag1042
ag1044
ag1046
ag1048
ag1050
ag1052
ag1054
ag1056
ag21
ag1059
ag1061
ag71
ag1064
ag21
ag1067
ag1069
ag1071
ag1073
ag21
ag1076
ag1078
ag1081
ag1083
ag1085
ag21
ag1088
ag1090
ag1092
ag1094
ag1096
ag1098
ag1100
ag1102
ag1104
ag21
ag1107
ag1109
ag1111
ag1113
ag1115
ag1117
ag1119
ag1121
ag1123
ag1125
ag1127
ag21
ag1130
ag1132
ag1134
ag1136
ag1138
ag1140
ag1142
ag1144
ag1146
ag1148
ag21
ag1151
ag1153
ag1155
ag1157
ag1159
ag1161
ag1163
ag1165
ag1167
ag21
ag1170
ag1172
ag1174
ag1176
ag1178
ag1180
ag1182
ag1184
ag21
ag1187
ag1189
ag1191
ag1193
ag1195
ag1197
ag1199
ag21
ag1202
ag1204
ag21
ag1207
ag21
ag1210
ag1212
ag1214
ag1216
ag1218
ag1220
ag1222
ag1224
ag21
ag1227
ag1229
ag1231
ag1233
ag1235
ag1237
ag1239
ag1241
ag1243
ag1245
ag21
ag1248
ag1250
ag1252
ag1254
ag1256
ag1258
ag1260
ag1262
ag1264
ag21
ag1267
ag1269
ag1271
ag1273
ag1275
ag1277
ag1279
ag1281
ag21
ag1284
ag1286
ag1288
ag1290
ag1292
ag1294
ag21
ag1297
ag1299
ag1301
ag1303
ag1305
ag1307
ag71
ag1310
ag21
ag1313
ag1315
ag1318
ag1320
ag21
ag1323
ag1325
ag1327
ag1329
ag1331
ag1333
ag1335
ag1337
ag1339
ag21
ag1342
ag1344
ag1346
ag1348
ag1350
ag1352
ag1354
ag1356
ag21
ag1359
ag1361
ag1363
ag1365
ag1367
ag1369
ag1371
ag1373
ag1375
ag1377
ag21
ag1380
ag1382
ag21
ag1385
ag21
ag1388
ag1390
ag1392
ag1394
ag1396
ag1398
ag21
ag1401
ag1403
ag1405
ag1407
ag1409
ag1411
ag163
ag1415
ag1417
ag1419
ag1421
ag1423
ag1425
ag1427
ag21
ag1430
ag1432
ag71
ag1435
ag1438
asVhelpfulness
p1490
V1
p1491
sVtaObjectCity
p1492
VIstanbul
p1493
s.(dp0
Vrating
p1
V3
p2
sVtext
p3
VMy husband & I spent one night here before a cruise, and I&acute;m glad it was a short stay. The facility is nice, our room was clean, good sized, and overlooking the pool and the bay. The dinner on the terrace was OK, but not great value, however it saved us a long trek into town.\u000aI found it was very noisy at night; with other travellers coming and going. Then the manager and his girlfriend spent several hours in the middle of the night having a very loud, and rather scary quarrel right outside our room. Overall I found the service to be poor; not helpful & unprofessional.
p4
sS'title_length'
p5
I580
sS'bigram_counts'
p6
ccollections
Counter
p7
((dp8
(Vtravellers
p9
Vcoming
p10
tp11
I1
s(g10
Vgoing.
p12
tp13
I1
s(V,
p14
Vgood
p15
tp16
I1
s(Vacute
p17
V;
p18
tp19
I1
s(Vshort
p20
Vstay.
p21
tp22
I1
s(g14
Vroom
p23
tp24
I1
s(g14
Voverlooking
p25
tp26
I1
s(Vhowever
p27
Vsaved
p28
tp29
I1
s(V&
p30
Vunprofessional
p31
tp32
I1
s(Vspent
p33
Vseveral
p34
tp35
I1
s(Vscary
p36
Vquarrel
p37
tp38
I1
s(Vpool
p39
Vbay.
p40
tp41
I1
s(g21
Vfacility
p42
tp43
I1
s(Vspent
p44
Vone
p45
tp46
I1
s(Vservice
p47
Vpoor
p48
tp49
I1
s(g12
Vmanager
p50
tp51
I1
s(g18
Vglad
p52
tp53
I1
s(Vgirlfriend
p54
g33
tp55
I1
s(Vtrek
p56
Vtown.
p57
tp58
I1
s(g45
Vnight
p59
tp60
I1
s(Vclean
p61
g14
tp62
I1
s(g30
g17
tp63
I1
s(g50
g54
tp64
I1
s(g59
Vcruise
p65
tp66
I1
s(Vnice
p67
g14
tp68
I1
s(Vnight
p69
g18
tp70
I1
s(Vlong
p71
g56
tp72
I1
s(Vhours
p73
Vmiddle
p74
tp75
I1
s(g34
g73
tp76
I1
s(g14
g27
tp77
I1
s(g52
g20
tp78
I1
s(g40
Vdinner
p79
tp80
I1
s(Voverall
p81
Vfound
p82
tp83
I1
s(g31
V.
p84
tp85
I1
s(Vnight
p86
Vloud
p87
tp88
I1
s(g28
Vus
p89
tp90
I1
s(g23
g61
tp91
I1
s(Vsized
p92
g14
tp93
I1
s(g30
g44
tp94
I1
s(g14
Vgreat
p95
tp96
I1
s(g48
g18
tp97
I1
s(Vvalue
p98
g14
tp99
I1
s(g14
Vrather
p100
tp101
I1
s(g15
g92
tp102
I1
s(g65
g14
tp103
I1
s(g95
g98
tp104
I1
s(Vfound
p105
Vnoisy
p106
tp107
I1
s(g57
g105
tp108
I1
s(Vok
p109
g14
tp110
I1
s(Vterrace
p111
g109
tp112
I1
s(g14
g30
tp113
I1
s(g42
g67
tp114
I1
s(g89
g71
tp115
I1
s(g87
g14
tp116
I1
s(g37
Vright
p117
tp118
I1
s(g79
g111
tp119
I1
s(g18
g9
tp120
I1
s(g117
Voutside
p121
tp122
I1
s(g74
g86
tp123
I1
s(Vroom.
p124
g81
tp125
I1
s(g100
g36
tp126
I1
s(Vhelpful
p127
g30
tp128
I1
s(g82
g47
tp129
I1
s(g25
g39
tp130
I1
s(g18
g127
tp131
I1
s(g106
g69
tp132
I1
s(g121
g124
tp133
I1
s(Vhusband
p134
g30
tp135
I1
stp136
Rp137
sS'rev_unigrams'
p138
(lp139
g134
ag30
ag44
ag45
ag59
ag65
ag14
ag30
ag17
ag18
ag52
ag20
ag21
ag42
ag67
ag14
ag23
ag61
ag14
ag15
ag92
ag14
ag25
ag39
ag40
ag79
ag111
ag109
ag14
ag95
ag98
ag14
ag27
ag28
ag89
ag71
ag56
ag57
ag105
ag106
ag69
ag18
ag9
ag10
ag12
ag50
ag54
ag33
ag34
ag73
ag74
ag86
ag87
ag14
ag100
ag36
ag37
ag117
ag121
ag124
ag81
ag82
ag47
ag48
ag18
ag127
ag30
ag31
ag84
asVid
p140
V16363
p141
sVtaObject
p142
VV-GO Hotel & Guesthouse
p143
sVtitle
p144
VUnprofessional service, ok room
p145
sS'unigram_counts'
p146
g7
((dp147
g117
I1
sg42
I1
sg21
I1
sg45
I1
sg74
I1
sg50
I1
sg111
I1
sg65
I1
sg54
I1
sg28
I1
sg47
I1
sg30
I3
sg100
I1
sg57
I1
sg14
I7
sg71
I1
sg84
I1
sg121
I1
sg39
I1
sg18
I3
sg34
I1
sg12
I1
sg67
I1
sg48
I1
sg40
I1
sg15
I1
sg17
I1
sg124
I1
sg95
I1
sg31
I1
sg81
I1
sg27
I1
sg73
I1
sg98
I1
sg9
I1
sg10
I1
sg52
I1
sg106
I1
sg36
I1
sg56
I1
sg20
I1
sg109
I1
sg127
I1
sg25
I1
sg23
I1
sg44
I2
sg89
I1
sg92
I1
sg79
I1
sg61
I1
sg59
I3
sg105
I2
sg87
I1
sg134
I1
sg37
I1
stp148
Rp149
sS'rev_bigrams'
p150
(lp151
g135
ag94
ag46
ag60
ag66
ag103
ag113
ag63
ag19
ag53
ag78
ag22
ag43
ag114
ag68
ag24
ag91
ag62
ag16
ag102
ag93
ag26
ag130
ag41
ag80
ag119
ag112
ag110
ag96
ag104
ag99
ag77
ag29
ag90
ag115
ag72
ag58
ag108
ag107
ag132
ag70
ag120
ag11
ag13
ag51
ag64
ag55
ag35
ag76
ag75
ag123
ag88
ag116
ag101
ag126
ag38
ag118
ag122
ag133
ag125
ag83
ag129
ag49
ag97
ag131
ag128
ag32
ag85
asS'pos_count'
p152
ccollections
defaultdict
p153
(c__builtin__
int
p154
tp155
Rp156
VNN
p157
I293
sVFW
p158
I29
sVCC
p159
I3
sg14
I83
sVSYM
p160
I30
sVPOS
p161
I50
sV''
p162
I104
sg84
I6
sVPRP
p163
I4
sVVBZ
p164
I1
sVDT
p165
I20
sV:
p166
I3
sVLS
p167
I24
ssS'rev_length'
p168
I580
sVusername
p169
VBrinoabroad
p170
sS'tagged_text'
p171
(lp172
(V[
p173
g158
tp174
a(Vu
p175
VFW
p176
tp177
a(V'
p178
g161
tp179
a(VM
p180
g157
tp181
a(Vy
p182
VNN
p183
tp184
a(g178
g162
tp185
a(g14
g14
tp186
a(g175
VNN
p187
tp188
a(g178
VPOS
p189
tp190
a(Vh
p191
VNN
p192
tp193
a(g175
VNN
p194
tp195
a(Vs
p196
VNN
p197
tp198
a(Vb
p199
VNN
p200
tp201
a(Va
p202
g165
tp203
a(Vn
p204
VNN
p205
tp206
a(Vd
p207
VNN
p208
tp209
a(g178
V''
p210
tp211
a(g14
g14
tp212
a(g175
VNN
p213
tp214
a(g178
V''
p215
tp216
a(g30
g159
tp217
a(g178
V''
p218
tp219
a(g14
g14
tp220
a(g175
VNN
p221
tp222
a(g178
V''
p223
tp224
a(VI
p225
g163
tp226
a(g178
V''
p227
tp228
a(g14
g14
tp229
a(g175
VNN
p230
tp231
a(g178
VPOS
p232
tp233
a(g196
VNN
p234
tp235
a(Vp
p236
VNN
p237
tp238
a(Ve
p239
g160
tp240
a(g204
VNN
p241
tp242
a(Vt
p243
VNN
p244
tp245
a(g178
V''
p246
tp247
a(g14
g14
tp248
a(g175
VNN
p249
tp250
a(g178
VPOS
p251
tp252
a(Vo
p253
VNN
p254
tp255
a(g204
VNN
p256
tp257
a(g239
VSYM
p258
tp259
a(g178
V''
p260
tp261
a(g14
g14
tp262
a(g175
VNN
p263
tp264
a(g178
VPOS
p265
tp266
a(g204
VNN
p267
tp268
a(Vi
p269
VFW
p270
tp271
a(Vg
p272
VNN
p273
tp274
a(g191
VNN
p275
tp276
a(g243
VNN
p277
tp278
a(g178
V''
p279
tp280
a(g14
g14
tp281
a(g175
VNN
p282
tp283
a(g178
VPOS
p284
tp285
a(Vc
p286
VNN
p287
tp288
a(Vr
p289
VNN
p290
tp291
a(g175
VFW
p292
tp293
a(g269
VFW
p294
tp295
a(g196
VNN
p296
tp297
a(g239
VSYM
p298
tp299
a(g178
V''
p300
tp301
a(g14
g14
tp302
a(g175
VNN
p303
tp304
a(g178
V''
p305
tp306
a(g14
g14
tp307
a(g178
V''
p308
tp309
a(g14
g14
tp310
a(g175
VNN
p311
tp312
a(g178
V''
p313
tp314
a(g225
VPRP
p315
tp316
a(g178
V''
p317
tp318
a(g14
g14
tp319
a(g175
VNN
p320
tp321
a(g178
V''
p322
tp323
a(g30
VCC
p324
tp325
a(g178
V''
p326
tp327
a(g14
g14
tp328
a(g175
VNN
p329
tp330
a(g178
V''
p331
tp332
a(g202
VDT
p333
tp334
a(g286
VNN
p335
tp336
a(g175
VNN
p337
tp338
a(g243
VNN
p339
tp340
a(g239
VSYM
p341
tp342
a(g178
V''
p343
tp344
a(g14
g14
tp345
a(g175
VNN
p346
tp347
a(g178
V''
p348
tp349
a(g18
g166
tp350
a(g178
V''
p351
tp352
a(g14
g14
tp353
a(g175
VNN
p354
tp355
a(g178
VPOS
p356
tp357
a(g272
VNN
p358
tp359
a(Vl
p360
VNN
p361
tp362
a(g202
VDT
p363
tp364
a(g207
VNN
p365
tp366
a(g178
V''
p367
tp368
a(g14
g14
tp369
a(g175
VNN
p370
tp371
a(g178
VPOS
p372
tp373
a(g196
VNN
p374
tp375
a(g191
VNN
p376
tp377
a(g253
VNN
p378
tp379
a(g289
VNN
p380
tp381
a(g243
VNN
p382
tp383
a(g178
V''
p384
tp385
a(g14
g14
tp386
a(g175
VNN
p387
tp388
a(g178
VPOS
p389
tp390
a(g196
VNN
p391
tp392
a(g243
VNN
p393
tp394
a(g202
VDT
p395
tp396
a(g182
VNN
p397
tp398
a(g84
g84
tp399
a(g178
V''
p400
tp401
a(g14
g14
tp402
a(g175
VNN
p403
tp404
a(g178
VPOS
p405
tp406
a(VT
p407
VNN
p408
tp409
a(g191
VNN
p410
tp411
a(g239
VSYM
p412
tp413
a(g178
V''
p414
tp415
a(g14
g14
tp416
a(g175
VNN
p417
tp418
a(g178
V''
p419
tp420
a(Vf
p421
g167
tp422
a(g202
VDT
p423
tp424
a(g286
VNN
p425
tp426
a(g269
VFW
p427
tp428
a(g360
VNN
p429
tp430
a(g269
VFW
p431
tp432
a(g243
VNN
p433
tp434
a(g182
VNN
p435
tp436
a(g178
V''
p437
tp438
a(g14
g14
tp439
a(g175
VNN
p440
tp441
a(g178
VPOS
p442
tp443
a(g204
VNN
p444
tp445
a(g269
VLS
p446
tp447
a(g286
VNN
p448
tp449
a(g239
VSYM
p450
tp451
a(g178
V''
p452
tp453
a(g14
g14
tp454
a(g175
VNN
p455
tp456
a(g178
V''
p457
tp458
a(g14
g14
tp459
a(g178
V''
p460
tp461
a(g14
g14
tp462
a(g175
VNN
p463
tp464
a(g178
VPOS
p465
tp466
a(g289
VNN
p467
tp468
a(g253
VNN
p469
tp470
a(g253
VNN
p471
tp472
a(Vm
p473
VNN
p474
tp475
a(g178
V''
p476
tp477
a(g14
g14
tp478
a(g175
VNN
p479
tp480
a(g178
VPOS
p481
tp482
a(g286
VNN
p483
tp484
a(g360
VNN
p485
tp486
a(g239
VSYM
p487
tp488
a(g202
VDT
p489
tp490
a(g204
VNN
p491
tp492
a(g178
V''
p493
tp494
a(g14
g14
tp495
a(g175
VNN
p496
tp497
a(g178
V''
p498
tp499
a(g14
g14
tp500
a(g178
V''
p501
tp502
a(g14
g14
tp503
a(g175
VNN
p504
tp505
a(g178
VPOS
p506
tp507
a(g272
VNN
p508
tp509
a(g253
VNN
p510
tp511
a(g253
VNN
p512
tp513
a(g207
VNN
p514
tp515
a(g178
V''
p516
tp517
a(g14
g14
tp518
a(g175
VNN
p519
tp520
a(g178
VPOS
p521
tp522
a(g196
VNN
p523
tp524
a(g269
VFW
p525
tp526
a(Vz
p527
VSYM
p528
tp529
a(g239
VLS
p530
tp531
a(g207
VNN
p532
tp533
a(g178
V''
p534
tp535
a(g14
g14
tp536
a(g175
VNN
p537
tp538
a(g178
V''
p539
tp540
a(g14
g14
tp541
a(g178
V''
p542
tp543
a(g14
g14
tp544
a(g175
VNN
p545
tp546
a(g178
VPOS
p547
tp548
a(g253
VNN
p549
tp550
a(Vv
p551
VLS
p552
tp553
a(g239
VLS
p554
tp555
a(g289
VNN
p556
tp557
a(g360
VNN
p558
tp559
a(g253
VNN
p560
tp561
a(g253
VNN
p562
tp563
a(Vk
p564
VNN
p565
tp566
a(g269
VFW
p567
tp568
a(g204
VNN
p569
tp570
a(g272
VNN
p571
tp572
a(g178
V''
p573
tp574
a(g14
g14
tp575
a(g175
VNN
p576
tp577
a(g178
VPOS
p578
tp579
a(g236
VNN
p580
tp581
a(g253
VNN
p582
tp583
a(g253
VNN
p584
tp585
a(g360
VNN
p586
tp587
a(g178
V''
p588
tp589
a(g14
g14
tp590
a(g175
VNN
p591
tp592
a(g178
VPOS
p593
tp594
a(g199
VNN
p595
tp596
a(g202
VDT
p597
tp598
a(g182
VNN
p599
tp600
a(g84
g84
tp601
a(g178
V''
p602
tp603
a(g14
g14
tp604
a(g175
VNN
p605
tp606
a(g178
VPOS
p607
tp608
a(g407
VNN
p609
tp610
a(g191
VNN
p611
tp612
a(g239
VSYM
p613
tp614
a(g178
V''
p615
tp616
a(g14
g14
tp617
a(g175
VNN
p618
tp619
a(g178
V''
p620
tp621
a(g207
VFW
p622
tp623
a(g269
VFW
p624
tp625
a(g204
VNN
p626
tp627
a(g204
VNN
p628
tp629
a(g239
VSYM
p630
tp631
a(g289
VNN
p632
tp633
a(g178
V''
p634
tp635
a(g14
g14
tp636
a(g175
VNN
p637
tp638
a(g178
VPOS
p639
tp640
a(g243
VNN
p641
tp642
a(g239
VSYM
p643
tp644
a(g289
VNN
p645
tp646
a(g289
VNN
p647
tp648
a(g202
VDT
p649
tp650
a(g286
VNN
p651
tp652
a(g239
VSYM
p653
tp654
a(g178
V''
p655
tp656
a(g14
g14
tp657
a(g175
VNN
p658
tp659
a(g178
VPOS
p660
tp661
a(VO
p662
VNN
p663
tp664
a(VK
p665
VNN
p666
tp667
a(g178
V''
p668
tp669
a(g14
g14
tp670
a(g175
VNN
p671
tp672
a(g178
V''
p673
tp674
a(g14
g14
tp675
a(g178
V''
p676
tp677
a(g14
g14
tp678
a(g175
VNN
p679
tp680
a(g178
VPOS
p681
tp682
a(g272
VNN
p683
tp684
a(g289
VNN
p685
tp686
a(g239
VSYM
p687
tp688
a(g202
VDT
p689
tp690
a(g243
VNN
p691
tp692
a(g178
V''
p693
tp694
a(g14
g14
tp695
a(g175
VNN
p696
tp697
a(g178
V''
p698
tp699
a(g551
VLS
p700
tp701
a(g202
VDT
p702
tp703
a(g360
VNN
p704
tp705
a(g175
VNN
p706
tp707
a(g239
VSYM
p708
tp709
a(g178
V''
p710
tp711
a(g14
g14
tp712
a(g175
VNN
p713
tp714
a(g178
V''
p715
tp716
a(g14
g14
tp717
a(g178
V''
p718
tp719
a(g14
g14
tp720
a(g175
VNN
p721
tp722
a(g178
VPOS
p723
tp724
a(g191
VNN
p725
tp726
a(g253
VNN
p727
tp728
a(Vw
p729
VNN
p730
tp731
a(g239
VSYM
p732
tp733
a(g551
VLS
p734
tp735
a(g239
VLS
p736
tp737
a(g289
VNN
p738
tp739
a(g178
V''
p740
tp741
a(g14
g14
tp742
a(g175
VNN
p743
tp744
a(g178
V''
p745
tp746
a(g196
g164
tp747
a(g202
VDT
p748
tp749
a(g551
VLS
p750
tp751
a(g239
VLS
p752
tp753
a(g207
VNN
p754
tp755
a(g178
V''
p756
tp757
a(g14
g14
tp758
a(g175
VNN
p759
tp760
a(g178
VPOS
p761
tp762
a(g175
VNN
p763
tp764
a(g196
VNN
p765
tp766
a(g178
V''
p767
tp768
a(g14
g14
tp769
a(g175
VNN
p770
tp771
a(g178
VPOS
p772
tp773
a(g360
VNN
p774
tp775
a(g253
VNN
p776
tp777
a(g204
VNN
p778
tp779
a(g272
VNN
p780
tp781
a(g178
V''
p782
tp783
a(g14
g14
tp784
a(g175
VNN
p785
tp786
a(g178
VPOS
p787
tp788
a(g243
VNN
p789
tp790
a(g289
VNN
p791
tp792
a(g239
VSYM
p793
tp794
a(g564
VNN
p795
tp796
a(g178
V''
p797
tp798
a(g14
g14
tp799
a(g175
VNN
p800
tp801
a(g178
VPOS
p802
tp803
a(g243
VNN
p804
tp805
a(g253
VNN
p806
tp807
a(g729
VNN
p808
tp809
a(g204
VNN
p810
tp811
a(g84
g84
tp812
a(g178
V''
p813
tp814
a(g14
g14
tp815
a(g175
VNN
p816
tp817
a(g178
V''
p818
tp819
a(g225
VPRP
p820
tp821
a(g178
V''
p822
tp823
a(g14
g14
tp824
a(g175
VNN
p825
tp826
a(g178
V''
p827
tp828
a(g421
VLS
p829
tp830
a(g253
VNN
p831
tp832
a(g175
VNN
p833
tp834
a(g204
VNN
p835
tp836
a(g207
VNN
p837
tp838
a(g178
V''
p839
tp840
a(g14
g14
tp841
a(g175
VNN
p842
tp843
a(g178
VPOS
p844
tp845
a(g204
VNN
p846
tp847
a(g253
VNN
p848
tp849
a(g269
VFW
p850
tp851
a(g196
VNN
p852
tp853
a(g182
VNN
p854
tp855
a(g178
V''
p856
tp857
a(g14
g14
tp858
a(g175
VNN
p859
tp860
a(g178
VPOS
p861
tp862
a(g204
VNN
p863
tp864
a(g269
VFW
p865
tp866
a(g272
VNN
p867
tp868
a(g191
VNN
p869
tp870
a(g243
VNN
p871
tp872
a(g178
V''
p873
tp874
a(g14
g14
tp875
a(g175
VNN
p876
tp877
a(g178
V''
p878
tp879
a(g18
g166
tp880
a(g178
V''
p881
tp882
a(g14
g14
tp883
a(g175
VNN
p884
tp885
a(g178
VPOS
p886
tp887
a(g243
VNN
p888
tp889
a(g289
VNN
p890
tp891
a(g202
VDT
p892
tp893
a(g551
VLS
p894
tp895
a(g239
VLS
p896
tp897
a(g360
VNN
p898
tp899
a(g360
VNN
p900
tp901
a(g239
VSYM
p902
tp903
a(g289
VNN
p904
tp905
a(g196
VNN
p906
tp907
a(g178
V''
p908
tp909
a(g14
g14
tp910
a(g175
VNN
p911
tp912
a(g178
VPOS
p913
tp914
a(g286
VNN
p915
tp916
a(g253
VNN
p917
tp918
a(g473
VNN
p919
tp920
a(g269
VFW
p921
tp922
a(g204
VNN
p923
tp924
a(g272
VNN
p925
tp926
a(g178
V''
p927
tp928
a(g14
g14
tp929
a(g175
VNN
p930
tp931
a(g178
VPOS
p932
tp933
a(g272
VNN
p934
tp935
a(g253
VNN
p936
tp937
a(g269
VFW
p938
tp939
a(g204
VNN
p940
tp941
a(g272
VNN
p942
tp943
a(g84
g84
tp944
a(g178
V''
p945
tp946
a(g14
g14
tp947
a(g175
VNN
p948
tp949
a(g178
VPOS
p950
tp951
a(g407
VNN
p952
tp953
a(g191
VNN
p954
tp955
a(g239
VSYM
p956
tp957
a(g204
VNN
p958
tp959
a(g178
V''
p960
tp961
a(g14
g14
tp962
a(g175
VNN
p963
tp964
a(g178
V''
p965
tp966
a(g473
VNN
p967
tp968
a(g202
VDT
p969
tp970
a(g204
VNN
p971
tp972
a(g202
VDT
p973
tp974
a(g272
VNN
p975
tp976
a(g239
VSYM
p977
tp978
a(g289
VNN
p979
tp980
a(g178
V''
p981
tp982
a(g14
g14
tp983
a(g175
VNN
p984
tp985
a(g178
VPOS
p986
tp987
a(g272
VNN
p988
tp989
a(g269
VFW
p990
tp991
a(g289
VNN
p992
tp993
a(g360
VNN
p994
tp995
a(g421
VSYM
p996
tp997
a(g289
VSYM
p998
tp999
a(g269
VFW
p1000
tp1001
a(g239
VLS
p1002
tp1003
a(g204
VNN
p1004
tp1005
a(g207
VNN
p1006
tp1007
a(g178
V''
p1008
tp1009
a(g14
g14
tp1010
a(g175
VNN
p1011
tp1012
a(g178
VPOS
p1013
tp1014
a(g196
VNN
p1015
tp1016
a(g236
VNN
p1017
tp1018
a(g239
VSYM
p1019
tp1020
a(g204
VNN
p1021
tp1022
a(g243
VNN
p1023
tp1024
a(g178
V''
p1025
tp1026
a(g14
g14
tp1027
a(g175
VNN
p1028
tp1029
a(g178
VPOS
p1030
tp1031
a(g196
VNN
p1032
tp1033
a(g239
VSYM
p1034
tp1035
a(g551
VLS
p1036
tp1037
a(g239
VLS
p1038
tp1039
a(g289
VNN
p1040
tp1041
a(g202
VDT
p1042
tp1043
a(g360
VNN
p1044
tp1045
a(g178
V''
p1046
tp1047
a(g14
g14
tp1048
a(g175
VNN
p1049
tp1050
a(g178
VPOS
p1051
tp1052
a(g191
VNN
p1053
tp1054
a(g253
VNN
p1055
tp1056
a(g175
VNN
p1057
tp1058
a(g289
VNN
p1059
tp1060
a(g196
VNN
p1061
tp1062
a(g178
V''
p1063
tp1064
a(g14
g14
tp1065
a(g175
VNN
p1066
tp1067
a(g178
VPOS
p1068
tp1069
a(g473
VNN
p1070
tp1071
a(g269
VFW
p1072
tp1073
a(g207
VFW
p1074
tp1075
a(g207
VFW
p1076
tp1077
a(g360
VNN
p1078
tp1079
a(g239
VSYM
p1080
tp1081
a(g178
V''
p1082
tp1083
a(g14
g14
tp1084
a(g175
VNN
p1085
tp1086
a(g178
VPOS
p1087
tp1088
a(g204
VNN
p1089
tp1090
a(g269
VFW
p1091
tp1092
a(g272
VNN
p1093
tp1094
a(g191
VNN
p1095
tp1096
a(g243
VNN
p1097
tp1098
a(g178
V''
p1099
tp1100
a(g14
g14
tp1101
a(g175
VNN
p1102
tp1103
a(g178
VPOS
p1104
tp1105
a(g360
VNN
p1106
tp1107
a(g253
VNN
p1108
tp1109
a(g175
VNN
p1110
tp1111
a(g207
VNN
p1112
tp1113
a(g178
V''
p1114
tp1115
a(g14
g14
tp1116
a(g175
VNN
p1117
tp1118
a(g178
V''
p1119
tp1120
a(g14
g14
tp1121
a(g178
V''
p1122
tp1123
a(g14
g14
tp1124
a(g175
VNN
p1125
tp1126
a(g178
VPOS
p1127
tp1128
a(g289
VNN
p1129
tp1130
a(g202
VDT
p1131
tp1132
a(g243
VNN
p1133
tp1134
a(g191
VNN
p1135
tp1136
a(g239
VSYM
p1137
tp1138
a(g289
VNN
p1139
tp1140
a(g178
V''
p1141
tp1142
a(g14
g14
tp1143
a(g175
VNN
p1144
tp1145
a(g178
VPOS
p1146
tp1147
a(g196
VNN
p1148
tp1149
a(g286
VNN
p1150
tp1151
a(g202
VDT
p1152
tp1153
a(g289
VNN
p1154
tp1155
a(g182
VNN
p1156
tp1157
a(g178
V''
p1158
tp1159
a(g14
g14
tp1160
a(g175
VNN
p1161
tp1162
a(g178
V''
p1163
tp1164
a(Vq
p1165
VFW
p1166
tp1167
a(g175
VFW
p1168
tp1169
a(g202
VDT
p1170
tp1171
a(g289
VNN
p1172
tp1173
a(g289
VNN
p1174
tp1175
a(g239
VSYM
p1176
tp1177
a(g360
VNN
p1178
tp1179
a(g178
V''
p1180
tp1181
a(g14
g14
tp1182
a(g175
VNN
p1183
tp1184
a(g178
VPOS
p1185
tp1186
a(g289
VNN
p1187
tp1188
a(g269
VFW
p1189
tp1190
a(g272
VNN
p1191
tp1192
a(g191
VNN
p1193
tp1194
a(g243
VNN
p1195
tp1196
a(g178
V''
p1197
tp1198
a(g14
g14
tp1199
a(g175
VNN
p1200
tp1201
a(g178
VPOS
p1202
tp1203
a(g253
VNN
p1204
tp1205
a(g175
VNN
p1206
tp1207
a(g243
VNN
p1208
tp1209
a(g196
VNN
p1210
tp1211
a(g269
VFW
p1212
tp1213
a(g207
VFW
p1214
tp1215
a(g239
VLS
p1216
tp1217
a(g178
V''
p1218
tp1219
a(g14
g14
tp1220
a(g175
VNN
p1221
tp1222
a(g178
VPOS
p1223
tp1224
a(g289
VNN
p1225
tp1226
a(g253
VNN
p1227
tp1228
a(g253
VNN
p1229
tp1230
a(g473
VNN
p1231
tp1232
a(g84
g84
tp1233
a(g178
V''
p1234
tp1235
a(g14
g14
tp1236
a(g175
VNN
p1237
tp1238
a(g178
VPOS
p1239
tp1240
a(g662
VNN
p1241
tp1242
a(g551
VLS
p1243
tp1244
a(g239
VLS
p1245
tp1246
a(g289
VNN
p1247
tp1248
a(g202
VDT
p1249
tp1250
a(g360
VNN
p1251
tp1252
a(g360
VNN
p1253
tp1254
a(g178
V''
p1255
tp1256
a(g14
g14
tp1257
a(g175
VNN
p1258
tp1259
a(g178
V''
p1260
tp1261
a(g225
VPRP
p1262
tp1263
a(g178
V''
p1264
tp1265
a(g14
g14
tp1266
a(g175
VNN
p1267
tp1268
a(g178
V''
p1269
tp1270
a(g421
VLS
p1271
tp1272
a(g253
VNN
p1273
tp1274
a(g175
VNN
p1275
tp1276
a(g204
VNN
p1277
tp1278
a(g207
VNN
p1279
tp1280
a(g178
V''
p1281
tp1282
a(g14
g14
tp1283
a(g175
VNN
p1284
tp1285
a(g178
VPOS
p1286
tp1287
a(g196
VNN
p1288
tp1289
a(g239
VSYM
p1290
tp1291
a(g289
VLS
p1292
tp1293
a(g551
VLS
p1294
tp1295
a(g269
VLS
p1296
tp1297
a(g286
VNN
p1298
tp1299
a(g239
VSYM
p1300
tp1301
a(g178
V''
p1302
tp1303
a(g14
g14
tp1304
a(g175
VNN
p1305
tp1306
a(g178
VPOS
p1307
tp1308
a(g236
VNN
p1309
tp1310
a(g253
VNN
p1311
tp1312
a(g253
VNN
p1313
tp1314
a(g289
VNN
p1315
tp1316
a(g178
V''
p1317
tp1318
a(g14
g14
tp1319
a(g175
VNN
p1320
tp1321
a(g178
V''
p1322
tp1323
a(g18
g166
tp1324
a(g178
V''
p1325
tp1326
a(g14
g14
tp1327
a(g175
VNN
p1328
tp1329
a(g178
VPOS
p1330
tp1331
a(g191
VNN
p1332
tp1333
a(g239
VSYM
p1334
tp1335
a(g360
VNN
p1336
tp1337
a(g236
VNN
p1338
tp1339
a(g421
VFW
p1340
tp1341
a(g175
VFW
p1342
tp1343
a(g360
VNN
p1344
tp1345
a(g178
V''
p1346
tp1347
a(g14
g14
tp1348
a(g175
VNN
p1349
tp1350
a(g178
V''
p1351
tp1352
a(g30
VCC
p1353
tp1354
a(g178
V''
p1355
tp1356
a(g14
g14
tp1357
a(g175
VNN
p1358
tp1359
a(g178
VPOS
p1360
tp1361
a(g175
VNN
p1362
tp1363
a(g204
VNN
p1364
tp1365
a(g236
VNN
p1366
tp1367
a(g289
VNN
p1368
tp1369
a(g253
VNN
p1370
tp1371
a(g421
VSYM
p1372
tp1373
a(g239
VLS
p1374
tp1375
a(g196
VNN
p1376
tp1377
a(g196
VNN
p1378
tp1379
a(g269
VFW
p1380
tp1381
a(g253
VNN
p1382
tp1383
a(g204
VNN
p1384
tp1385
a(g202
VDT
p1386
tp1387
a(g360
VNN
p1388
tp1389
a(g178
V''
p1390
tp1391
a(g14
g14
tp1392
a(g175
VNN
p1393
tp1394
a(g178
V''
p1395
tp1396
a(g84
g84
tp1397
a(g178
V''
p1398
tp1399
a(V]
p1400
VNN
p1401
tp1402
asS'tagged_title'
p1403
(lp1404
(g173
VFW
p1405
tp1406
a(g175
VFW
p1407
tp1408
a(g178
VPOS
p1409
tp1410
a(VU
p1411
VNN
p1412
tp1413
a(g204
VNN
p1414
tp1415
a(g236
VNN
p1416
tp1417
a(g289
VNN
p1418
tp1419
a(g253
VNN
p1420
tp1421
a(g421
VSYM
p1422
tp1423
a(g239
VLS
p1424
tp1425
a(g196
VNN
p1426
tp1427
a(g196
VNN
p1428
tp1429
a(g269
VFW
p1430
tp1431
a(g253
VNN
p1432
tp1433
a(g204
VNN
p1434
tp1435
a(g202
VDT
p1436
tp1437
a(g360
VNN
p1438
tp1439
a(g178
V''
p1440
tp1441
a(g14
g14
tp1442
a(g175
VNN
p1443
tp1444
a(g178
VPOS
p1445
tp1446
a(g196
VNN
p1447
tp1448
a(g239
VSYM
p1449
tp1450
a(g289
VLS
p1451
tp1452
a(g551
VLS
p1453
tp1454
a(g269
VLS
p1455
tp1456
a(g286
VNN
p1457
tp1458
a(g239
VSYM
p1459
tp1460
a(g178
V''
p1461
tp1462
a(g14
g14
tp1463
a(g175
VNN
p1464
tp1465
a(g178
V''
p1466
tp1467
a(g14
g14
tp1468
a(g178
V''
p1469
tp1470
a(g14
g14
tp1471
a(g175
VNN
p1472
tp1473
a(g178
VPOS
p1474
tp1475
a(g253
VNN
p1476
tp1477
a(g564
VNN
p1478
tp1479
a(g178
V''
p1480
tp1481
a(g14
g14
tp1482
a(g175
VNN
p1483
tp1484
a(g178
VPOS
p1485
tp1486
a(g289
VNN
p1487
tp1488
a(g253
VNN
p1489
tp1490
a(g253
VNN
p1491
tp1492
a(g473
VNN
p1493
tp1494
a(g178
V''
p1495
tp1496
a(g1400
VNN
p1497
tp1498
asVtotal_points
p1499
V101
p1500
sVdate
p1501
V4/17/2009
p1502
sVtaObjectUrl
p1503
Vhttp://www.tripadvisor.com/Hotel_Review-g298031-d655864-Reviews-V_GO_Hotel_Guesthouse-Fethiye_Mugla_Province_Turkish_Aegean_Coast.html
p1504
sVtype
p1505
VHotels
p1506
sS'pos_unigram'
p1507
(lp1508
g158
ag176
ag161
ag157
ag183
ag162
ag14
ag187
ag189
ag192
ag194
ag197
ag200
ag165
ag205
ag208
ag210
ag14
ag213
ag215
ag159
ag218
ag14
ag221
ag223
ag163
ag227
ag14
ag230
ag232
ag234
ag237
ag160
ag241
ag244
ag246
ag14
ag249
ag251
ag254
ag256
ag258
ag260
ag14
ag263
ag265
ag267
ag270
ag273
ag275
ag277
ag279
ag14
ag282
ag284
ag287
ag290
ag292
ag294
ag296
ag298
ag300
ag14
ag303
ag305
ag14
ag308
ag14
ag311
ag313
ag315
ag317
ag14
ag320
ag322
ag324
ag326
ag14
ag329
ag331
ag333
ag335
ag337
ag339
ag341
ag343
ag14
ag346
ag348
ag166
ag351
ag14
ag354
ag356
ag358
ag361
ag363
ag365
ag367
ag14
ag370
ag372
ag374
ag376
ag378
ag380
ag382
ag384
ag14
ag387
ag389
ag391
ag393
ag395
ag397
ag84
ag400
ag14
ag403
ag405
ag408
ag410
ag412
ag414
ag14
ag417
ag419
ag167
ag423
ag425
ag427
ag429
ag431
ag433
ag435
ag437
ag14
ag440
ag442
ag444
ag446
ag448
ag450
ag452
ag14
ag455
ag457
ag14
ag460
ag14
ag463
ag465
ag467
ag469
ag471
ag474
ag476
ag14
ag479
ag481
ag483
ag485
ag487
ag489
ag491
ag493
ag14
ag496
ag498
ag14
ag501
ag14
ag504
ag506
ag508
ag510
ag512
ag514
ag516
ag14
ag519
ag521
ag523
ag525
ag528
ag530
ag532
ag534
ag14
ag537
ag539
ag14
ag542
ag14
ag545
ag547
ag549
ag552
ag554
ag556
ag558
ag560
ag562
ag565
ag567
ag569
ag571
ag573
ag14
ag576
ag578
ag580
ag582
ag584
ag586
ag588
ag14
ag591
ag593
ag595
ag597
ag599
ag84
ag602
ag14
ag605
ag607
ag609
ag611
ag613
ag615
ag14
ag618
ag620
ag622
ag624
ag626
ag628
ag630
ag632
ag634
ag14
ag637
ag639
ag641
ag643
ag645
ag647
ag649
ag651
ag653
ag655
ag14
ag658
ag660
ag663
ag666
ag668
ag14
ag671
ag673
ag14
ag676
ag14
ag679
ag681
ag683
ag685
ag687
ag689
ag691
ag693
ag14
ag696
ag698
ag700
ag702
ag704
ag706
ag708
ag710
ag14
ag713
ag715
ag14
ag718
ag14
ag721
ag723
ag725
ag727
ag730
ag732
ag734
ag736
ag738
ag740
ag14
ag743
ag745
ag164
ag748
ag750
ag752
ag754
ag756
ag14
ag759
ag761
ag763
ag765
ag767
ag14
ag770
ag772
ag774
ag776
ag778
ag780
ag782
ag14
ag785
ag787
ag789
ag791
ag793
ag795
ag797
ag14
ag800
ag802
ag804
ag806
ag808
ag810
ag84
ag813
ag14
ag816
ag818
ag820
ag822
ag14
ag825
ag827
ag829
ag831
ag833
ag835
ag837
ag839
ag14
ag842
ag844
ag846
ag848
ag850
ag852
ag854
ag856
ag14
ag859
ag861
ag863
ag865
ag867
ag869
ag871
ag873
ag14
ag876
ag878
ag166
ag881
ag14
ag884
ag886
ag888
ag890
ag892
ag894
ag896
ag898
ag900
ag902
ag904
ag906
ag908
ag14
ag911
ag913
ag915
ag917
ag919
ag921
ag923
ag925
ag927
ag14
ag930
ag932
ag934
ag936
ag938
ag940
ag942
ag84
ag945
ag14
ag948
ag950
ag952
ag954
ag956
ag958
ag960
ag14
ag963
ag965
ag967
ag969
ag971
ag973
ag975
ag977
ag979
ag981
ag14
ag984
ag986
ag988
ag990
ag992
ag994
ag996
ag998
ag1000
ag1002
ag1004
ag1006
ag1008
ag14
ag1011
ag1013
ag1015
ag1017
ag1019
ag1021
ag1023
ag1025
ag14
ag1028
ag1030
ag1032
ag1034
ag1036
ag1038
ag1040
ag1042
ag1044
ag1046
ag14
ag1049
ag1051
ag1053
ag1055
ag1057
ag1059
ag1061
ag1063
ag14
ag1066
ag1068
ag1070
ag1072
ag1074
ag1076
ag1078
ag1080
ag1082
ag14
ag1085
ag1087
ag1089
ag1091
ag1093
ag1095
ag1097
ag1099
ag14
ag1102
ag1104
ag1106
ag1108
ag1110
ag1112
ag1114
ag14
ag1117
ag1119
ag14
ag1122
ag14
ag1125
ag1127
ag1129
ag1131
ag1133
ag1135
ag1137
ag1139
ag1141
ag14
ag1144
ag1146
ag1148
ag1150
ag1152
ag1154
ag1156
ag1158
ag14
ag1161
ag1163
ag1166
ag1168
ag1170
ag1172
ag1174
ag1176
ag1178
ag1180
ag14
ag1183
ag1185
ag1187
ag1189
ag1191
ag1193
ag1195
ag1197
ag14
ag1200
ag1202
ag1204
ag1206
ag1208
ag1210
ag1212
ag1214
ag1216
ag1218
ag14
ag1221
ag1223
ag1225
ag1227
ag1229
ag1231
ag84
ag1234
ag14
ag1237
ag1239
ag1241
ag1243
ag1245
ag1247
ag1249
ag1251
ag1253
ag1255
ag14
ag1258
ag1260
ag1262
ag1264
ag14
ag1267
ag1269
ag1271
ag1273
ag1275
ag1277
ag1279
ag1281
ag14
ag1284
ag1286
ag1288
ag1290
ag1292
ag1294
ag1296
ag1298
ag1300
ag1302
ag14
ag1305
ag1307
ag1309
ag1311
ag1313
ag1315
ag1317
ag14
ag1320
ag1322
ag166
ag1325
ag14
ag1328
ag1330
ag1332
ag1334
ag1336
ag1338
ag1340
ag1342
ag1344
ag1346
ag14
ag1349
ag1351
ag1353
ag1355
ag14
ag1358
ag1360
ag1362
ag1364
ag1366
ag1368
ag1370
ag1372
ag1374
ag1376
ag1378
ag1380
ag1382
ag1384
ag1386
ag1388
ag1390
ag14
ag1393
ag1395
ag84
ag1398
ag1401
asVhelpfulness
p1509
V1
p1510
sVtaObjectCity
p1511
VFethiye
p1512
s.